

Microchip MPLAB XC8 Assembler V2.20 build 20200408173844 
                                                                                               Mon Feb 15 18:14:08 2021

Microchip MPLAB XC8 C Compiler v2.20 (Free license) build 20200408173844 Og1 
     1                           	processor	16F887
     2                           	pagewidth 120
     3                           	opt	flic
     4                           	psect	strings,global,class=STRING,delta=2,noexec
     5                           	psect	cinit,global,class=CODE,merge=1,delta=2
     6                           	psect	bssBANK0,global,class=BANK0,space=1,delta=1,noexec
     7                           	psect	bssBANK1,global,class=BANK1,space=1,delta=1,noexec
     8                           	psect	bssBANK3,global,class=BANK3,space=1,delta=1,noexec
     9                           	psect	clrtext,global,class=CODE,delta=2
    10                           	psect	cstackBANK1,global,class=BANK1,space=1,delta=1,noexec
    11                           	psect	cstackCOMMON,global,class=COMMON,space=1,delta=1,noexec
    12                           	psect	cstackBANK0,global,class=BANK0,space=1,delta=1,noexec
    13                           	psect	maintext,global,class=CODE,split=1,delta=2
    14                           	psect	text1,local,class=CODE,merge=1,delta=2,group=1
    15                           	psect	text2,local,class=CODE,merge=1,delta=2,group=3
    16                           	psect	text3,local,class=CODE,merge=1,delta=2,group=2
    17                           	psect	text4,local,class=CODE,merge=1,delta=2,group=2
    18                           	psect	text5,local,class=CODE,merge=1,delta=2,group=2
    19                           	psect	text6,local,class=CODE,merge=1,delta=2
    20                           	psect	text7,local,class=CODE,merge=1,delta=2
    21                           	psect	text8,local,class=CODE,merge=1,delta=2,group=2
    22                           	psect	text9,local,class=CODE,merge=1,delta=2,group=2
    23                           	psect	text10,local,class=CODE,merge=1,delta=2,group=2
    24                           	psect	text11,local,class=CODE,merge=1,delta=2,group=2
    25                           	psect	text12,local,class=CODE,merge=1,delta=2,group=2
    26                           	psect	text13,local,class=CODE,merge=1,delta=2,group=2
    27                           	psect	text14,local,class=CODE,merge=1,delta=2
    28                           	psect	text15,local,class=CODE,merge=1,delta=2
    29                           	psect	text16,local,class=CODE,merge=1,delta=2
    30                           	psect	text17,local,class=CODE,merge=1,delta=2
    31                           	psect	text18,local,class=CODE,merge=1,delta=2
    32                           	psect	text19,local,class=CODE,merge=1,delta=2
    33                           	psect	text20,local,class=CODE,merge=1,delta=2
    34                           	psect	text21,local,class=CODE,merge=1,delta=2,group=2
    35                           	psect	text22,local,class=CODE,merge=1,delta=2
    36                           	psect	text23,local,class=CODE,merge=1,delta=2
    37                           	psect	intentry,global,class=CODE,delta=2
    38                           	psect	text24,local,class=CODE,merge=1,delta=2,group=2
    39                           	psect	config,global,abs,ovrld,class=CONFIG,space=4,delta=2,noexec
    40                           	dabs	1,0x7E,2
    41  0000                     
    42                           ; Version 2.20
    43                           ; Generated 12/02/2020 GMT
    44                           ; 
    45                           ; Copyright © 2020, Microchip Technology Inc. and its subsidiaries ("Microchip")
    46                           ; All rights reserved.
    47                           ; 
    48                           ; This software is developed by Microchip Technology Inc. and its subsidiaries ("Microch
      +                          ip").
    49                           ; 
    50                           ; Redistribution and use in source and binary forms, with or without modification, are
    51                           ; permitted provided that the following conditions are met:
    52                           ; 
    53                           ;     1. Redistributions of source code must retain the above copyright notice, this lis
      +                          t of
    54                           ;        conditions and the following disclaimer.
    55                           ; 
    56                           ;     2. Redistributions in binary form must reproduce the above copyright notice, this 
      +                          list
    57                           ;        of conditions and the following disclaimer in the documentation and/or other
    58                           ;        materials provided with the distribution.
    59                           ; 
    60                           ;     3. Microchip's name may not be used to endorse or promote products derived from th
      +                          is
    61                           ;        software without specific prior written permission.
    62                           ; 
    63                           ; THIS SOFTWARE IS PROVIDED BY MICROCHIP "AS IS" AND ANY EXPRESS OR IMPLIED WARRANTIES,
    64                           ; INCLUDING, BUT NOT LIMITED TO, THE IMPLIED WARRANTIES OF MERCHANTABILITY AND FITNESS F
      +                          OR
    65                           ; PURPOSE ARE DISCLAIMED.  IN NO EVENT SHALL MICROCHIP BE LIABLE FOR ANY DIRECT, INDIREC
      +                          T,
    66                           ; INCIDENTAL, SPECIAL, EXEMPLARY, OR CONSEQUENTIAL DAMAGES (INCLUDING BUT NOT LIMITED TO
    67                           ; PROCUREMENT OF SUBSTITUTE GOODS OR SERVICES; LOSS OF USE, DATA OR PROFITS; OR BUSINESS
    68                           ; INTERRUPTION) HOWSOEVER CAUSED AND ON ANY THEORY OF LIABILITY, WHETHER IN CONTRACT, ST
      +                          RICT
    69                           ; LIABILITY, OR TORT (INCLUDING NEGLIGENCE OR OTHERWISE) ARISING IN ANY WAY OUT OF THE U
      +                          SE OF
    70                           ; THIS SOFTWARE, EVEN IF ADVISED OF THE POSSIBILITY OF SUCH DAMAGE.
    71                           ; 
    72                           ; 
    73                           ; Code-generator required, PIC16F887 Definitions
    74                           ; 
    75                           ; SFR Addresses
    76  0000                     	;# 
    77  0001                     	;# 
    78  0002                     	;# 
    79  0003                     	;# 
    80  0004                     	;# 
    81  0005                     	;# 
    82  0006                     	;# 
    83  0007                     	;# 
    84  0008                     	;# 
    85  0009                     	;# 
    86  000A                     	;# 
    87  000B                     	;# 
    88  000C                     	;# 
    89  000D                     	;# 
    90  000E                     	;# 
    91  000E                     	;# 
    92  000F                     	;# 
    93  0010                     	;# 
    94  0011                     	;# 
    95  0012                     	;# 
    96  0013                     	;# 
    97  0014                     	;# 
    98  0015                     	;# 
    99  0015                     	;# 
   100  0016                     	;# 
   101  0017                     	;# 
   102  0018                     	;# 
   103  0019                     	;# 
   104  001A                     	;# 
   105  001B                     	;# 
   106  001B                     	;# 
   107  001C                     	;# 
   108  001D                     	;# 
   109  001E                     	;# 
   110  001F                     	;# 
   111  0081                     	;# 
   112  0085                     	;# 
   113  0086                     	;# 
   114  0087                     	;# 
   115  0088                     	;# 
   116  0089                     	;# 
   117  008C                     	;# 
   118  008D                     	;# 
   119  008E                     	;# 
   120  008F                     	;# 
   121  0090                     	;# 
   122  0091                     	;# 
   123  0092                     	;# 
   124  0093                     	;# 
   125  0093                     	;# 
   126  0093                     	;# 
   127  0094                     	;# 
   128  0095                     	;# 
   129  0096                     	;# 
   130  0097                     	;# 
   131  0098                     	;# 
   132  0099                     	;# 
   133  009A                     	;# 
   134  009B                     	;# 
   135  009C                     	;# 
   136  009D                     	;# 
   137  009E                     	;# 
   138  009F                     	;# 
   139  0105                     	;# 
   140  0107                     	;# 
   141  0108                     	;# 
   142  0109                     	;# 
   143  010C                     	;# 
   144  010C                     	;# 
   145  010D                     	;# 
   146  010E                     	;# 
   147  010F                     	;# 
   148  0185                     	;# 
   149  0187                     	;# 
   150  0188                     	;# 
   151  0189                     	;# 
   152  018C                     	;# 
   153  018D                     	;# 
   154  0000                     	;# 
   155  0001                     	;# 
   156  0002                     	;# 
   157  0003                     	;# 
   158  0004                     	;# 
   159  0005                     	;# 
   160  0006                     	;# 
   161  0007                     	;# 
   162  0008                     	;# 
   163  0009                     	;# 
   164  000A                     	;# 
   165  000B                     	;# 
   166  000C                     	;# 
   167  000D                     	;# 
   168  000E                     	;# 
   169  000E                     	;# 
   170  000F                     	;# 
   171  0010                     	;# 
   172  0011                     	;# 
   173  0012                     	;# 
   174  0013                     	;# 
   175  0014                     	;# 
   176  0015                     	;# 
   177  0015                     	;# 
   178  0016                     	;# 
   179  0017                     	;# 
   180  0018                     	;# 
   181  0019                     	;# 
   182  001A                     	;# 
   183  001B                     	;# 
   184  001B                     	;# 
   185  001C                     	;# 
   186  001D                     	;# 
   187  001E                     	;# 
   188  001F                     	;# 
   189  0081                     	;# 
   190  0085                     	;# 
   191  0086                     	;# 
   192  0087                     	;# 
   193  0088                     	;# 
   194  0089                     	;# 
   195  008C                     	;# 
   196  008D                     	;# 
   197  008E                     	;# 
   198  008F                     	;# 
   199  0090                     	;# 
   200  0091                     	;# 
   201  0092                     	;# 
   202  0093                     	;# 
   203  0093                     	;# 
   204  0093                     	;# 
   205  0094                     	;# 
   206  0095                     	;# 
   207  0096                     	;# 
   208  0097                     	;# 
   209  0098                     	;# 
   210  0099                     	;# 
   211  009A                     	;# 
   212  009B                     	;# 
   213  009C                     	;# 
   214  009D                     	;# 
   215  009E                     	;# 
   216  009F                     	;# 
   217  0105                     	;# 
   218  0107                     	;# 
   219  0108                     	;# 
   220  0109                     	;# 
   221  010C                     	;# 
   222  010C                     	;# 
   223  010D                     	;# 
   224  010E                     	;# 
   225  010F                     	;# 
   226  0185                     	;# 
   227  0187                     	;# 
   228  0188                     	;# 
   229  0189                     	;# 
   230  018C                     	;# 
   231  018D                     	;# 
   232  0000                     	;# 
   233  0001                     	;# 
   234  0002                     	;# 
   235  0003                     	;# 
   236  0004                     	;# 
   237  0005                     	;# 
   238  0006                     	;# 
   239  0007                     	;# 
   240  0008                     	;# 
   241  0009                     	;# 
   242  000A                     	;# 
   243  000B                     	;# 
   244  000C                     	;# 
   245  000D                     	;# 
   246  000E                     	;# 
   247  000E                     	;# 
   248  000F                     	;# 
   249  0010                     	;# 
   250  0011                     	;# 
   251  0012                     	;# 
   252  0013                     	;# 
   253  0014                     	;# 
   254  0015                     	;# 
   255  0015                     	;# 
   256  0016                     	;# 
   257  0017                     	;# 
   258  0018                     	;# 
   259  0019                     	;# 
   260  001A                     	;# 
   261  001B                     	;# 
   262  001B                     	;# 
   263  001C                     	;# 
   264  001D                     	;# 
   265  001E                     	;# 
   266  001F                     	;# 
   267  0081                     	;# 
   268  0085                     	;# 
   269  0086                     	;# 
   270  0087                     	;# 
   271  0088                     	;# 
   272  0089                     	;# 
   273  008C                     	;# 
   274  008D                     	;# 
   275  008E                     	;# 
   276  008F                     	;# 
   277  0090                     	;# 
   278  0091                     	;# 
   279  0092                     	;# 
   280  0093                     	;# 
   281  0093                     	;# 
   282  0093                     	;# 
   283  0094                     	;# 
   284  0095                     	;# 
   285  0096                     	;# 
   286  0097                     	;# 
   287  0098                     	;# 
   288  0099                     	;# 
   289  009A                     	;# 
   290  009B                     	;# 
   291  009C                     	;# 
   292  009D                     	;# 
   293  009E                     	;# 
   294  009F                     	;# 
   295  0105                     	;# 
   296  0107                     	;# 
   297  0108                     	;# 
   298  0109                     	;# 
   299  010C                     	;# 
   300  010C                     	;# 
   301  010D                     	;# 
   302  010E                     	;# 
   303  010F                     	;# 
   304  0185                     	;# 
   305  0187                     	;# 
   306  0188                     	;# 
   307  0189                     	;# 
   308  018C                     	;# 
   309  018D                     	;# 
   310  0000                     	;# 
   311  0001                     	;# 
   312  0002                     	;# 
   313  0003                     	;# 
   314  0004                     	;# 
   315  0005                     	;# 
   316  0006                     	;# 
   317  0007                     	;# 
   318  0008                     	;# 
   319  0009                     	;# 
   320  000A                     	;# 
   321  000B                     	;# 
   322  000C                     	;# 
   323  000D                     	;# 
   324  000E                     	;# 
   325  000E                     	;# 
   326  000F                     	;# 
   327  0010                     	;# 
   328  0011                     	;# 
   329  0012                     	;# 
   330  0013                     	;# 
   331  0014                     	;# 
   332  0015                     	;# 
   333  0015                     	;# 
   334  0016                     	;# 
   335  0017                     	;# 
   336  0018                     	;# 
   337  0019                     	;# 
   338  001A                     	;# 
   339  001B                     	;# 
   340  001B                     	;# 
   341  001C                     	;# 
   342  001D                     	;# 
   343  001E                     	;# 
   344  001F                     	;# 
   345  0081                     	;# 
   346  0085                     	;# 
   347  0086                     	;# 
   348  0087                     	;# 
   349  0088                     	;# 
   350  0089                     	;# 
   351  008C                     	;# 
   352  008D                     	;# 
   353  008E                     	;# 
   354  008F                     	;# 
   355  0090                     	;# 
   356  0091                     	;# 
   357  0092                     	;# 
   358  0093                     	;# 
   359  0093                     	;# 
   360  0093                     	;# 
   361  0094                     	;# 
   362  0095                     	;# 
   363  0096                     	;# 
   364  0097                     	;# 
   365  0098                     	;# 
   366  0099                     	;# 
   367  009A                     	;# 
   368  009B                     	;# 
   369  009C                     	;# 
   370  009D                     	;# 
   371  009E                     	;# 
   372  009F                     	;# 
   373  0105                     	;# 
   374  0107                     	;# 
   375  0108                     	;# 
   376  0109                     	;# 
   377  010C                     	;# 
   378  010C                     	;# 
   379  010D                     	;# 
   380  010E                     	;# 
   381  010F                     	;# 
   382  0185                     	;# 
   383  0187                     	;# 
   384  0188                     	;# 
   385  0189                     	;# 
   386  018C                     	;# 
   387  018D                     	;# 
   388  0000                     	;# 
   389  0001                     	;# 
   390  0002                     	;# 
   391  0003                     	;# 
   392  0004                     	;# 
   393  0005                     	;# 
   394  0006                     	;# 
   395  0007                     	;# 
   396  0008                     	;# 
   397  0009                     	;# 
   398  000A                     	;# 
   399  000B                     	;# 
   400  000C                     	;# 
   401  000D                     	;# 
   402  000E                     	;# 
   403  000E                     	;# 
   404  000F                     	;# 
   405  0010                     	;# 
   406  0011                     	;# 
   407  0012                     	;# 
   408  0013                     	;# 
   409  0014                     	;# 
   410  0015                     	;# 
   411  0015                     	;# 
   412  0016                     	;# 
   413  0017                     	;# 
   414  0018                     	;# 
   415  0019                     	;# 
   416  001A                     	;# 
   417  001B                     	;# 
   418  001B                     	;# 
   419  001C                     	;# 
   420  001D                     	;# 
   421  001E                     	;# 
   422  001F                     	;# 
   423  0081                     	;# 
   424  0085                     	;# 
   425  0086                     	;# 
   426  0087                     	;# 
   427  0088                     	;# 
   428  0089                     	;# 
   429  008C                     	;# 
   430  008D                     	;# 
   431  008E                     	;# 
   432  008F                     	;# 
   433  0090                     	;# 
   434  0091                     	;# 
   435  0092                     	;# 
   436  0093                     	;# 
   437  0093                     	;# 
   438  0093                     	;# 
   439  0094                     	;# 
   440  0095                     	;# 
   441  0096                     	;# 
   442  0097                     	;# 
   443  0098                     	;# 
   444  0099                     	;# 
   445  009A                     	;# 
   446  009B                     	;# 
   447  009C                     	;# 
   448  009D                     	;# 
   449  009E                     	;# 
   450  009F                     	;# 
   451  0105                     	;# 
   452  0107                     	;# 
   453  0108                     	;# 
   454  0109                     	;# 
   455  010C                     	;# 
   456  010C                     	;# 
   457  010D                     	;# 
   458  010E                     	;# 
   459  010F                     	;# 
   460  0185                     	;# 
   461  0187                     	;# 
   462  0188                     	;# 
   463  0189                     	;# 
   464  018C                     	;# 
   465  018D                     	;# 
   466  0000                     	;# 
   467  0001                     	;# 
   468  0002                     	;# 
   469  0003                     	;# 
   470  0004                     	;# 
   471  0005                     	;# 
   472  0006                     	;# 
   473  0007                     	;# 
   474  0008                     	;# 
   475  0009                     	;# 
   476  000A                     	;# 
   477  000B                     	;# 
   478  000C                     	;# 
   479  000D                     	;# 
   480  000E                     	;# 
   481  000E                     	;# 
   482  000F                     	;# 
   483  0010                     	;# 
   484  0011                     	;# 
   485  0012                     	;# 
   486  0013                     	;# 
   487  0014                     	;# 
   488  0015                     	;# 
   489  0015                     	;# 
   490  0016                     	;# 
   491  0017                     	;# 
   492  0018                     	;# 
   493  0019                     	;# 
   494  001A                     	;# 
   495  001B                     	;# 
   496  001B                     	;# 
   497  001C                     	;# 
   498  001D                     	;# 
   499  001E                     	;# 
   500  001F                     	;# 
   501  0081                     	;# 
   502  0085                     	;# 
   503  0086                     	;# 
   504  0087                     	;# 
   505  0088                     	;# 
   506  0089                     	;# 
   507  008C                     	;# 
   508  008D                     	;# 
   509  008E                     	;# 
   510  008F                     	;# 
   511  0090                     	;# 
   512  0091                     	;# 
   513  0092                     	;# 
   514  0093                     	;# 
   515  0093                     	;# 
   516  0093                     	;# 
   517  0094                     	;# 
   518  0095                     	;# 
   519  0096                     	;# 
   520  0097                     	;# 
   521  0098                     	;# 
   522  0099                     	;# 
   523  009A                     	;# 
   524  009B                     	;# 
   525  009C                     	;# 
   526  009D                     	;# 
   527  009E                     	;# 
   528  009F                     	;# 
   529  0105                     	;# 
   530  0107                     	;# 
   531  0108                     	;# 
   532  0109                     	;# 
   533  010C                     	;# 
   534  010C                     	;# 
   535  010D                     	;# 
   536  010E                     	;# 
   537  010F                     	;# 
   538  0185                     	;# 
   539  0187                     	;# 
   540  0188                     	;# 
   541  0189                     	;# 
   542  018C                     	;# 
   543  018D                     	;# 
   544  0000                     	;# 
   545  0001                     	;# 
   546  0002                     	;# 
   547  0003                     	;# 
   548  0004                     	;# 
   549  0005                     	;# 
   550  0006                     	;# 
   551  0007                     	;# 
   552  0008                     	;# 
   553  0009                     	;# 
   554  000A                     	;# 
   555  000B                     	;# 
   556  000C                     	;# 
   557  000D                     	;# 
   558  000E                     	;# 
   559  000E                     	;# 
   560  000F                     	;# 
   561  0010                     	;# 
   562  0011                     	;# 
   563  0012                     	;# 
   564  0013                     	;# 
   565  0014                     	;# 
   566  0015                     	;# 
   567  0015                     	;# 
   568  0016                     	;# 
   569  0017                     	;# 
   570  0018                     	;# 
   571  0019                     	;# 
   572  001A                     	;# 
   573  001B                     	;# 
   574  001B                     	;# 
   575  001C                     	;# 
   576  001D                     	;# 
   577  001E                     	;# 
   578  001F                     	;# 
   579  0081                     	;# 
   580  0085                     	;# 
   581  0086                     	;# 
   582  0087                     	;# 
   583  0088                     	;# 
   584  0089                     	;# 
   585  008C                     	;# 
   586  008D                     	;# 
   587  008E                     	;# 
   588  008F                     	;# 
   589  0090                     	;# 
   590  0091                     	;# 
   591  0092                     	;# 
   592  0093                     	;# 
   593  0093                     	;# 
   594  0093                     	;# 
   595  0094                     	;# 
   596  0095                     	;# 
   597  0096                     	;# 
   598  0097                     	;# 
   599  0098                     	;# 
   600  0099                     	;# 
   601  009A                     	;# 
   602  009B                     	;# 
   603  009C                     	;# 
   604  009D                     	;# 
   605  009E                     	;# 
   606  009F                     	;# 
   607  0105                     	;# 
   608  0107                     	;# 
   609  0108                     	;# 
   610  0109                     	;# 
   611  010C                     	;# 
   612  010C                     	;# 
   613  010D                     	;# 
   614  010E                     	;# 
   615  010F                     	;# 
   616  0185                     	;# 
   617  0187                     	;# 
   618  0188                     	;# 
   619  0189                     	;# 
   620  018C                     	;# 
   621  018D                     	;# 
   622  0000                     	;# 
   623  0001                     	;# 
   624  0002                     	;# 
   625  0003                     	;# 
   626  0004                     	;# 
   627  0005                     	;# 
   628  0006                     	;# 
   629  0007                     	;# 
   630  0008                     	;# 
   631  0009                     	;# 
   632  000A                     	;# 
   633  000B                     	;# 
   634  000C                     	;# 
   635  000D                     	;# 
   636  000E                     	;# 
   637  000E                     	;# 
   638  000F                     	;# 
   639  0010                     	;# 
   640  0011                     	;# 
   641  0012                     	;# 
   642  0013                     	;# 
   643  0014                     	;# 
   644  0015                     	;# 
   645  0015                     	;# 
   646  0016                     	;# 
   647  0017                     	;# 
   648  0018                     	;# 
   649  0019                     	;# 
   650  001A                     	;# 
   651  001B                     	;# 
   652  001B                     	;# 
   653  001C                     	;# 
   654  001D                     	;# 
   655  001E                     	;# 
   656  001F                     	;# 
   657  0081                     	;# 
   658  0085                     	;# 
   659  0086                     	;# 
   660  0087                     	;# 
   661  0088                     	;# 
   662  0089                     	;# 
   663  008C                     	;# 
   664  008D                     	;# 
   665  008E                     	;# 
   666  008F                     	;# 
   667  0090                     	;# 
   668  0091                     	;# 
   669  0092                     	;# 
   670  0093                     	;# 
   671  0093                     	;# 
   672  0093                     	;# 
   673  0094                     	;# 
   674  0095                     	;# 
   675  0096                     	;# 
   676  0097                     	;# 
   677  0098                     	;# 
   678  0099                     	;# 
   679  009A                     	;# 
   680  009B                     	;# 
   681  009C                     	;# 
   682  009D                     	;# 
   683  009E                     	;# 
   684  009F                     	;# 
   685  0105                     	;# 
   686  0107                     	;# 
   687  0108                     	;# 
   688  0109                     	;# 
   689  010C                     	;# 
   690  010C                     	;# 
   691  010D                     	;# 
   692  010E                     	;# 
   693  010F                     	;# 
   694  0185                     	;# 
   695  0187                     	;# 
   696  0188                     	;# 
   697  0189                     	;# 
   698  018C                     	;# 
   699  018D                     	;# 
   700                           
   701                           	psect	strings
   702  0800                     __pstrings:
   703  0800                     stringtab:
   704  0800                     __stringtab:
   705                           
   706                           ;	String table - string pointers are 1 byte each
   707  0800  1BFF               	btfsc	btemp+1,7
   708  0801  280A               	ljmp	stringcode
   709  0802  1383               	bcf	3,7
   710  0803  187F               	btfsc	btemp+1,0
   711  0804  1783               	bsf	3,7
   712  0805  0800               	movf	0,w
   713  0806  0A84               	incf	4,f
   714  0807  1903               	skipnz
   715  0808  0AFF               	incf	btemp+1,f
   716  0809  0008               	return
   717  080A                     stringcode:
   718  080A                     stringdir:
   719  080A  3008               	movlw	high stringdir
   720  080B  008A               	movwf	10
   721  080C  0804               	movf	4,w
   722  080D  0A84               	incf	4,f
   723  080E  0782               	addwf	2,f
   724  080F                     __stringbase:
   725  080F  3400               	retlw	0
   726  0810                     __end_of__stringtab:
   727  0810                     _dpowers:
   728  0810  3401               	retlw	1
   729  0811  3400               	retlw	0
   730  0812  340A               	retlw	10
   731  0813  3400               	retlw	0
   732  0814  3464               	retlw	100
   733  0815  3400               	retlw	0
   734  0816  34E8               	retlw	232
   735  0817  3403               	retlw	3
   736  0818  3410               	retlw	16
   737  0819  3427               	retlw	39
   738  081A                     __end_of_dpowers:
   739  0018                     _RCSTA	set	24
   740  001A                     _RCREG	set	26
   741  0019                     _TXREG	set	25
   742  001F                     _ADCON0bits	set	31
   743  001E                     _ADRESH	set	30
   744  000C                     _PIR1bits	set	12
   745  0009                     _PORTE	set	9
   746  0006                     _PORTB	set	6
   747  0005                     _PORTA	set	5
   748  000B                     _INTCONbits	set	11
   749  0009                     _PORTEbits	set	9
   750  0008                     _PORTD	set	8
   751  001F                     _ADCON0	set	31
   752  0099                     _SPBRG	set	153
   753  0098                     _TXSTA	set	152
   754  0086                     _TRISB	set	134
   755  0089                     _TRISE	set	137
   756  0085                     _TRISA	set	133
   757  0088                     _TRISD	set	136
   758  009F                     _ADCON1	set	159
   759  008C                     _PIE1bits	set	140
   760  0187                     _BAUDCTLbits	set	391
   761  0189                     _ANSELH	set	393
   762  0188                     _ANSEL	set	392
   763  081A                     STR_5:
   764  081A  3425               	retlw	37	;'%'
   765  081B  3469               	retlw	105	;'i'
   766  081C  342E               	retlw	46	;'.'
   767  081D  3425               	retlw	37	;'%'
   768  081E  3469               	retlw	105	;'i'
   769  081F  3425               	retlw	37	;'%'
   770  0820  3469               	retlw	105	;'i'
   771  0821  3456               	retlw	86	;'V'
   772  0822  3420               	retlw	32	;' '
   773  0823  3425               	retlw	37	;'%'
   774  0824  3469               	retlw	105	;'i'
   775  0825  342E               	retlw	46	;'.'
   776  0826  3425               	retlw	37	;'%'
   777  0827  3469               	retlw	105	;'i'
   778  0828  3425               	retlw	37	;'%'
   779  0829  3469               	retlw	105	;'i'
   780  082A  3456               	retlw	86	;'V'
   781  082B  3420               	retlw	32	;' '
   782  082C  3425               	retlw	37	;'%'
   783  082D  3469               	retlw	105	;'i'
   784  082E  340D               	retlw	13
   785  082F  340A               	retlw	10
   786  0830  3400               	retlw	0
   787  0831                     STR_1:
   788  0831  3420               	retlw	32	;' '
   789  0832  3453               	retlw	83	;'S'
   790  0833  3431               	retlw	49	;'1'
   791  0834  343A               	retlw	58	;':'
   792  0835  3420               	retlw	32	;' '
   793  0836  3420               	retlw	32	;' '
   794  0837  3420               	retlw	32	;' '
   795  0838  3453               	retlw	83	;'S'
   796  0839  3432               	retlw	50	;'2'
   797  083A  343A               	retlw	58	;':'
   798  083B  3420               	retlw	32	;' '
   799  083C  3420               	retlw	32	;' '
   800  083D  3420               	retlw	32	;' '
   801  083E  3453               	retlw	83	;'S'
   802  083F  3433               	retlw	51	;'3'
   803  0840  343A               	retlw	58	;':'
   804  0841  3420               	retlw	32	;' '
   805  0842  3400               	retlw	0
   806  0843                     STR_3:
   807  0843  3425               	retlw	37	;'%'
   808  0844  3469               	retlw	105	;'i'
   809  0845  342E               	retlw	46	;'.'
   810  0846  3425               	retlw	37	;'%'
   811  0847  3469               	retlw	105	;'i'
   812  0848  3425               	retlw	37	;'%'
   813  0849  3469               	retlw	105	;'i'
   814  084A  3456               	retlw	86	;'V'
   815  084B  3400               	retlw	0
   816  084C                     STR_2:
   817  084C  3425               	retlw	37	;'%'
   818  084D  3433               	retlw	51	;'3'
   819  084E  3469               	retlw	105	;'i'
   820  084F  3400               	retlw	0
   821  0843                     
   822                           	psect	cinit
   823  0015                     start_initialization:	
   824                           ; #config settings
   825                           
   826  0015                     __initialization:
   827                           
   828                           ; Clear objects allocated to BANK0
   829  0015  1383               	bcf	3,7	;select IRP bank0
   830  0016  305E               	movlw	low __pbssBANK0
   831  0017  0084               	movwf	4
   832  0018  3066               	movlw	low (__pbssBANK0+8)
   833  0019  160A  118A  271D  120A  118A  	fcall	clear_ram0
   834                           
   835                           ; Clear objects allocated to BANK1
   836  001E  30A0               	movlw	low __pbssBANK1
   837  001F  0084               	movwf	4
   838  0020  30CA               	movlw	low (__pbssBANK1+42)
   839  0021  160A  118A  271D  120A  118A  	fcall	clear_ram0
   840                           
   841                           ; Clear objects allocated to BANK3
   842  0026  1783               	bsf	3,7	;select IRP bank2
   843  0027  3090               	movlw	low __pbssBANK3
   844  0028  0084               	movwf	4
   845  0029  30CC               	movlw	low (__pbssBANK3+60)
   846  002A  160A  118A  271D  120A  118A  	fcall	clear_ram0
   847  002F                     end_of_initialization:	
   848                           ;End of C runtime variable initialization code
   849                           
   850  002F                     __end_of__initialization:
   851  002F  0183               	clrf	3
   852  0030  120A  118A  2B94   	ljmp	_main	;jump to C main() function
   853                           
   854                           	psect	bssBANK0
   855  005E                     __pbssBANK0:
   856  005E                     _i:
   857  005E                     	ds	2
   858  0060                     _voltage_int1:
   859  0060                     	ds	2
   860  0062                     _cons:
   861  0062                     	ds	2
   862  0064                     _leer:
   863  0064                     	ds	1
   864  0065                     _var1:
   865  0065                     	ds	1
   866                           
   867                           	psect	bssBANK1
   868  00A0                     __pbssBANK1:
   869  00A0                     _voltage2:
   870  00A0                     	ds	4
   871  00A4                     _voltage1:
   872  00A4                     	ds	4
   873  00A8                     _digitos2:
   874  00A8                     	ds	3
   875  00AB                     _digitos:
   876  00AB                     	ds	3
   877  00AE                     _incre2:
   878  00AE                     	ds	2
   879  00B0                     _incre:
   880  00B0                     	ds	2
   881  00B2                     _fla:
   882  00B2                     	ds	2
   883  00B4                     _voltage_int2:
   884  00B4                     	ds	2
   885  00B6                     _buffer:
   886  00B6                     	ds	20
   887                           
   888                           	psect	bssBANK3
   889  0190                     __pbssBANK3:
   890  0190                     _datos2:
   891  0190                     	ds	20
   892  01A4                     _datos:
   893  01A4                     	ds	20
   894  01B8                     _buffer2:
   895  01B8                     	ds	20
   896                           
   897                           	psect	clrtext
   898  171D                     clear_ram0:	
   899                           ;	Called with FSR containing the base address, and
   900                           ;	W with the last address+1
   901                           
   902  171D  0064               	clrwdt	;clear the watchdog before getting into this loop
   903  171E                     clrloop0:
   904  171E  0180               	clrf	0	;clear RAM location pointed to by FSR
   905  171F  0A84               	incf	4,f	;increment pointer
   906  1720  0604               	xorwf	4,w	;XOR with final address
   907  1721  1903               	btfsc	3,2	;have we reached the end yet?
   908  1722  3400               	retlw	0	;all done for this memory range, return
   909  1723  0604               	xorwf	4,w	;XOR again to restore value
   910  1724  2F1E               	goto	clrloop0	;do the next byte
   911                           
   912                           	psect	cstackBANK1
   913  00CA                     __pcstackBANK1:
   914  00CA                     ___fldiv@rem:
   915                           
   916                           ; 4 bytes @ 0x0
   917  00CA                     	ds	4
   918  00CE                     ___fldiv@sign:
   919                           
   920                           ; 1 bytes @ 0x4
   921  00CE                     	ds	1
   922  00CF                     ___fldiv@new_exp:
   923                           
   924                           ; 2 bytes @ 0x5
   925  00CF                     	ds	2
   926  00D1                     ___fldiv@grs:
   927                           
   928                           ; 4 bytes @ 0x7
   929  00D1                     	ds	4
   930  00D5                     ___fldiv@bexp:
   931                           
   932                           ; 1 bytes @ 0xB
   933  00D5                     	ds	1
   934  00D6                     ___fldiv@aexp:
   935                           
   936                           ; 1 bytes @ 0xC
   937  00D6                     	ds	1
   938  00D7                     ?___fltol:
   939  00D7                     ___fltol@f1:	
   940                           ; 4 bytes @ 0xD
   941                           
   942                           
   943                           ; 4 bytes @ 0xD
   944  00D7                     	ds	4
   945  00DB                     ??_main:
   946                           
   947                           ; 1 bytes @ 0x11
   948  00DB                     	ds	12
   949                           
   950                           	psect	cstackCOMMON
   951  0070                     __pcstackCOMMON:
   952  0070                     ?_isdigit:
   953  0070                     ?_LCDCmd:	
   954                           ; 1 bit 
   955                           
   956  0070                     ?_ADCL_con:	
   957                           ; 1 bytes @ 0x0
   958                           
   959  0070                     ?_LCD_Initialize:	
   960                           ; 1 bytes @ 0x0
   961                           
   962  0070                     ?_LCDChar:	
   963                           ; 1 bytes @ 0x0
   964                           
   965  0070                     ?_intr:	
   966                           ; 1 bytes @ 0x0
   967                           
   968  0070                     ?_setup:	
   969                           ; 1 bytes @ 0x0
   970                           
   971  0070                     ?_intac:	
   972                           ; 1 bytes @ 0x0
   973                           
   974  0070                     ?_main:	
   975                           ; 1 bytes @ 0x0
   976                           
   977  0070                     ?___xxtofl:	
   978                           ; 1 bytes @ 0x0
   979                           
   980  0070                     ___xxtofl@val:	
   981                           ; 4 bytes @ 0x0
   982                           
   983                           
   984                           ; 4 bytes @ 0x0
   985  0070                     	ds	4
   986  0074                     ??___xxtofl:
   987                           
   988                           ; 1 bytes @ 0x4
   989  0074                     	ds	4
   990  0078                     ___xxtofl@sign:
   991                           
   992                           ; 1 bytes @ 0x8
   993  0078                     	ds	1
   994  0079                     ___xxtofl@exp:
   995                           
   996                           ; 1 bytes @ 0x9
   997  0079                     	ds	1
   998  007A                     ___xxtofl@arg:
   999                           
  1000                           ; 4 bytes @ 0xA
  1001  007A                     	ds	4
  1002                           
  1003                           	psect	cstackBANK0
  1004  0020                     __pcstackBANK0:
  1005  0020                     ??_intac:
  1006                           
  1007                           ; 1 bytes @ 0x0
  1008  0020                     	ds	8
  1009  0028                     ??_isdigit:
  1010  0028                     ??_ADCL_con:	
  1011                           ; 1 bytes @ 0x8
  1012                           
  1013  0028                     ?_LCDWrite:	
  1014                           ; 1 bytes @ 0x8
  1015                           
  1016  0028                     ??_intr:	
  1017                           ; 1 bytes @ 0x8
  1018                           
  1019  0028                     ??_setup:	
  1020                           ; 1 bytes @ 0x8
  1021                           
  1022  0028                     ?__Umul8_16:	
  1023                           ; 1 bytes @ 0x8
  1024                           
  1025  0028                     ?___wmul:	
  1026                           ; 2 bytes @ 0x8
  1027                           
  1028  0028                     ?___awdiv:	
  1029                           ; 2 bytes @ 0x8
  1030                           
  1031  0028                     ?___awmod:	
  1032                           ; 2 bytes @ 0x8
  1033                           
  1034  0028                     ?___lwdiv:	
  1035                           ; 2 bytes @ 0x8
  1036                           
  1037  0028                     ?___aldiv:	
  1038                           ; 2 bytes @ 0x8
  1039                           
  1040  0028                     LCDWrite@rs:	
  1041                           ; 4 bytes @ 0x8
  1042                           
  1043  0028                     __Umul8_16@multiplicand:	
  1044                           ; 1 bytes @ 0x8
  1045                           
  1046  0028                     _isdigit$787:	
  1047                           ; 1 bytes @ 0x8
  1048                           
  1049  0028                     ___wmul@multiplier:	
  1050                           ; 1 bytes @ 0x8
  1051                           
  1052  0028                     ___awdiv@divisor:	
  1053                           ; 2 bytes @ 0x8
  1054                           
  1055  0028                     ___awmod@divisor:	
  1056                           ; 2 bytes @ 0x8
  1057                           
  1058  0028                     ___lwdiv@divisor:	
  1059                           ; 2 bytes @ 0x8
  1060                           
  1061  0028                     ___aldiv@divisor:	
  1062                           ; 2 bytes @ 0x8
  1063                           
  1064                           
  1065                           ; 4 bytes @ 0x8
  1066  0028                     	ds	1
  1067  0029                     ??_LCDWrite:
  1068  0029                     LCDWrite@ch:	
  1069                           ; 1 bytes @ 0x9
  1070                           
  1071  0029                     isdigit@c:	
  1072                           ; 1 bytes @ 0x9
  1073                           
  1074                           
  1075                           ; 1 bytes @ 0x9
  1076  0029                     	ds	1
  1077  002A                     ??_LCDCmd:
  1078  002A                     ??__Umul8_16:	
  1079                           ; 1 bytes @ 0xA
  1080                           
  1081  002A                     ??_LCDChar:	
  1082                           ; 1 bytes @ 0xA
  1083                           
  1084  002A                     ___wmul@multiplicand:	
  1085                           ; 1 bytes @ 0xA
  1086                           
  1087  002A                     ___awdiv@dividend:	
  1088                           ; 2 bytes @ 0xA
  1089                           
  1090  002A                     ___awmod@dividend:	
  1091                           ; 2 bytes @ 0xA
  1092                           
  1093  002A                     ___lwdiv@dividend:	
  1094                           ; 2 bytes @ 0xA
  1095                           
  1096                           
  1097                           ; 2 bytes @ 0xA
  1098  002A                     	ds	2
  1099  002C                     ??___wmul:
  1100  002C                     ??___awdiv:	
  1101                           ; 1 bytes @ 0xC
  1102                           
  1103  002C                     ??___awmod:	
  1104                           ; 1 bytes @ 0xC
  1105                           
  1106  002C                     ??___lwdiv:	
  1107                           ; 1 bytes @ 0xC
  1108                           
  1109  002C                     LCDChar@ch:	
  1110                           ; 1 bytes @ 0xC
  1111                           
  1112  002C                     LCDCmd@ch:	
  1113                           ; 1 bytes @ 0xC
  1114                           
  1115  002C                     ___awdiv@counter:	
  1116                           ; 1 bytes @ 0xC
  1117                           
  1118  002C                     ___awmod@counter:	
  1119                           ; 1 bytes @ 0xC
  1120                           
  1121  002C                     ___wmul@product:	
  1122                           ; 1 bytes @ 0xC
  1123                           
  1124  002C                     ___lwdiv@quotient:	
  1125                           ; 2 bytes @ 0xC
  1126                           
  1127  002C                     __Umul8_16@product:	
  1128                           ; 2 bytes @ 0xC
  1129                           
  1130  002C                     ___aldiv@dividend:	
  1131                           ; 2 bytes @ 0xC
  1132                           
  1133                           
  1134                           ; 4 bytes @ 0xC
  1135  002C                     	ds	1
  1136  002D                     ??_LCD_Initialize:
  1137  002D                     ?_LCDStr:	
  1138                           ; 1 bytes @ 0xD
  1139                           
  1140  002D                     ?_LCDGoto:	
  1141                           ; 1 bytes @ 0xD
  1142                           
  1143  002D                     LCDGoto@ln:	
  1144                           ; 1 bytes @ 0xD
  1145                           
  1146  002D                     ___awdiv@sign:	
  1147                           ; 1 bytes @ 0xD
  1148                           
  1149  002D                     ___awmod@sign:	
  1150                           ; 1 bytes @ 0xD
  1151                           
  1152  002D                     LCDStr@str:	
  1153                           ; 1 bytes @ 0xD
  1154                           
  1155                           
  1156                           ; 2 bytes @ 0xD
  1157  002D                     	ds	1
  1158  002E                     ??_LCDGoto:
  1159  002E                     ___lwdiv@counter:	
  1160                           ; 1 bytes @ 0xE
  1161                           
  1162  002E                     ___awdiv@quotient:	
  1163                           ; 1 bytes @ 0xE
  1164                           
  1165  002E                     __Umul8_16@word_mpld:	
  1166                           ; 2 bytes @ 0xE
  1167                           
  1168                           
  1169                           ; 2 bytes @ 0xE
  1170  002E                     	ds	1
  1171  002F                     ??_LCDStr:
  1172  002F                     ?___lwmod:	
  1173                           ; 1 bytes @ 0xF
  1174                           
  1175  002F                     LCDStr@i:	
  1176                           ; 2 bytes @ 0xF
  1177                           
  1178  002F                     ___lwmod@divisor:	
  1179                           ; 1 bytes @ 0xF
  1180                           
  1181                           
  1182                           ; 2 bytes @ 0xF
  1183  002F                     	ds	1
  1184  0030                     ??___aldiv:
  1185  0030                     __Umul8_16@multiplier:	
  1186                           ; 1 bytes @ 0x10
  1187                           
  1188  0030                     _LCDGoto$97:	
  1189                           ; 1 bytes @ 0x10
  1190                           
  1191                           
  1192                           ; 2 bytes @ 0x10
  1193  0030                     	ds	1
  1194  0031                     ?___flmul:
  1195  0031                     ___aldiv@counter:	
  1196                           ; 4 bytes @ 0x11
  1197                           
  1198  0031                     ___lwmod@dividend:	
  1199                           ; 1 bytes @ 0x11
  1200                           
  1201  0031                     ___flmul@b:	
  1202                           ; 2 bytes @ 0x11
  1203                           
  1204                           
  1205                           ; 4 bytes @ 0x11
  1206  0031                     	ds	1
  1207  0032                     LCDGoto@pos:
  1208  0032                     ___aldiv@sign:	
  1209                           ; 1 bytes @ 0x12
  1210                           
  1211                           
  1212                           ; 1 bytes @ 0x12
  1213  0032                     	ds	1
  1214  0033                     ??___lwmod:
  1215  0033                     ___lwmod@counter:	
  1216                           ; 1 bytes @ 0x13
  1217                           
  1218  0033                     ___aldiv@quotient:	
  1219                           ; 1 bytes @ 0x13
  1220                           
  1221                           
  1222                           ; 4 bytes @ 0x13
  1223  0033                     	ds	1
  1224  0034                     ?_sprintf:
  1225  0034                     sprintf@sp:	
  1226                           ; 2 bytes @ 0x14
  1227                           
  1228                           
  1229                           ; 2 bytes @ 0x14
  1230  0034                     	ds	1
  1231  0035                     ___flmul@a:
  1232                           
  1233                           ; 4 bytes @ 0x15
  1234  0035                     	ds	1
  1235  0036                     sprintf@f:
  1236                           
  1237                           ; 1 bytes @ 0x16
  1238  0036                     	ds	1
  1239  0037                     ?_CONUSART:
  1240  0037                     CONUSART@baudrate:	
  1241                           ; 1 bytes @ 0x17
  1242                           
  1243                           
  1244                           ; 4 bytes @ 0x17
  1245  0037                     	ds	2
  1246  0039                     ??___flmul:
  1247                           
  1248                           ; 1 bytes @ 0x19
  1249  0039                     	ds	2
  1250  003B                     ??_CONUSART:
  1251                           
  1252                           ; 1 bytes @ 0x1B
  1253  003B                     	ds	3
  1254  003E                     ___flmul@sign:
  1255                           
  1256                           ; 1 bytes @ 0x1E
  1257  003E                     	ds	1
  1258  003F                     ___flmul@grs:
  1259                           
  1260                           ; 4 bytes @ 0x1F
  1261  003F                     	ds	4
  1262  0043                     ___flmul@aexp:
  1263                           
  1264                           ; 1 bytes @ 0x23
  1265  0043                     	ds	1
  1266  0044                     ___flmul@bexp:
  1267                           
  1268                           ; 1 bytes @ 0x24
  1269  0044                     	ds	1
  1270  0045                     ??_sprintf:
  1271  0045                     ___flmul@prod:	
  1272                           ; 1 bytes @ 0x25
  1273                           
  1274                           
  1275                           ; 4 bytes @ 0x25
  1276  0045                     	ds	2
  1277  0047                     CONUSART@p:
  1278                           
  1279                           ; 4 bytes @ 0x27
  1280  0047                     	ds	1
  1281  0048                     sprintf@ap:
  1282                           
  1283                           ; 1 bytes @ 0x28
  1284  0048                     	ds	1
  1285  0049                     sprintf@prec:
  1286  0049                     ___flmul@temp:	
  1287                           ; 1 bytes @ 0x29
  1288                           
  1289                           
  1290                           ; 2 bytes @ 0x29
  1291  0049                     	ds	1
  1292  004A                     sprintf@flag:
  1293                           
  1294                           ; 1 bytes @ 0x2A
  1295  004A                     	ds	1
  1296  004B                     ?___fldiv:
  1297  004B                     sprintf@val:	
  1298                           ; 4 bytes @ 0x2B
  1299                           
  1300  004B                     ___fldiv@a:	
  1301                           ; 2 bytes @ 0x2B
  1302                           
  1303                           
  1304                           ; 4 bytes @ 0x2B
  1305  004B                     	ds	2
  1306  004D                     sprintf@width:
  1307                           
  1308                           ; 2 bytes @ 0x2D
  1309  004D                     	ds	2
  1310  004F                     sprintf@c:
  1311  004F                     ___fldiv@b:	
  1312                           ; 1 bytes @ 0x2F
  1313                           
  1314                           
  1315                           ; 4 bytes @ 0x2F
  1316  004F                     	ds	4
  1317  0053                     ??___fldiv:
  1318                           
  1319                           ; 1 bytes @ 0x33
  1320  0053                     	ds	5
  1321  0058                     ??___fltol:
  1322                           
  1323                           ; 1 bytes @ 0x38
  1324  0058                     	ds	4
  1325  005C                     ___fltol@sign1:
  1326                           
  1327                           ; 1 bytes @ 0x3C
  1328  005C                     	ds	1
  1329  005D                     ___fltol@exp1:
  1330                           
  1331                           ; 1 bytes @ 0x3D
  1332  005D                     	ds	1
  1333                           
  1334                           	psect	maintext
  1335  0394                     __pmaintext:	
  1336 ;;
  1337 ;;Main: autosize = 0, tempsize = 12, incstack = 0, save=0
  1338 ;;
  1339 ;; *************** function _main *****************
  1340 ;; Defined at:
  1341 ;;		line 75 in file "Lab3.c"
  1342 ;; Parameters:    Size  Location     Type
  1343 ;;		None
  1344 ;; Auto vars:     Size  Location     Type
  1345 ;;		None
  1346 ;; Return value:  Size  Location     Type
  1347 ;;                  1    wreg      void 
  1348 ;; Registers used:
  1349 ;;		wreg, fsr0l, fsr0h, status,2, status,0, btemp+1, pclath, cstack
  1350 ;; Tracked objects:
  1351 ;;		On entry : B00/0
  1352 ;;		On exit  : 0/0
  1353 ;;		Unchanged: 0/0
  1354 ;; Data sizes:     COMMON   BANK0   BANK1   BANK3   BANK2
  1355 ;;      Params:         0       0       0       0       0
  1356 ;;      Locals:         0       0       0       0       0
  1357 ;;      Temps:          0       0      12       0       0
  1358 ;;      Totals:         0       0      12       0       0
  1359 ;;Total ram usage:       12 bytes
  1360 ;; Hardware stack levels required when called:    5
  1361 ;; This function calls:
  1362 ;;		_ADCL_con
  1363 ;;		_CONUSART
  1364 ;;		_LCDGoto
  1365 ;;		_LCDStr
  1366 ;;		_LCD_Initialize
  1367 ;;		___awdiv
  1368 ;;		___awmod
  1369 ;;		___fldiv
  1370 ;;		___flmul
  1371 ;;		___fltol
  1372 ;;		_intr
  1373 ;;		_setup
  1374 ;;		_sprintf
  1375 ;; This function is called by:
  1376 ;;		Startup code after reset
  1377 ;; This function uses a non-reentrant model
  1378 ;;
  1379                           
  1380                           
  1381                           ;psect for function _main
  1382  0394                     _main:
  1383  0394                     l2813:	
  1384                           ;incstack = 0
  1385                           ; Regs used in _main: [wreg-fsr0h+status,2+status,0+btemp+1+pclath+cstack]
  1386                           
  1387                           
  1388                           ;Lab3.c: 76:     setup();
  1389  0394  120A  158A  2050  120A  118A  	fcall	_setup
  1390  0399                     l2815:
  1391                           
  1392                           ;Lab3.c: 77:     cons = 0;
  1393  0399  1283               	bcf	3,5	;RP0=0, select bank0
  1394  039A  1303               	bcf	3,6	;RP1=0, select bank0
  1395  039B  01E2               	clrf	_cons
  1396  039C  01E3               	clrf	_cons+1
  1397  039D                     l2817:
  1398                           
  1399                           ;Lab3.c: 78:     intr();
  1400  039D  160A  118A  2716  120A  118A  	fcall	_intr
  1401  03A2                     l2819:
  1402                           
  1403                           ;Lab3.c: 79:     _delay((unsigned long)((25)*(8000000/4000000.0)));
  1404  03A2  300F               	movlw	15
  1405  03A3  1683               	bsf	3,5	;RP0=1, select bank1
  1406  03A4  1303               	bcf	3,6	;RP1=0, select bank1
  1407  03A5  00DB               	movwf	??_main^(0+128)
  1408  03A6                     u3987:
  1409  03A6  0BDB               	decfsz	??_main^(0+128),f
  1410  03A7  2BA6               	goto	u3987
  1411  03A8  2BA9               	nop2
  1412  03A9                     l2821:
  1413                           
  1414                           ;Lab3.c: 80:     LCD_Initialize();
  1415  03A9  120A  158A  2063  120A  118A  	fcall	_LCD_Initialize
  1416  03AE                     l2823:
  1417                           
  1418                           ;Lab3.c: 81:     ADCL_con();
  1419  03AE  160A  118A  2725  120A  118A  	fcall	_ADCL_con
  1420  03B3                     l2825:
  1421                           
  1422                           ;Lab3.c: 82:     ADCON0bits.GO_DONE = 1;
  1423  03B3  1283               	bcf	3,5	;RP0=0, select bank0
  1424  03B4  1303               	bcf	3,6	;RP1=0, select bank0
  1425  03B5  149F               	bsf	31,1	;volatile
  1426  03B6                     l2827:
  1427                           
  1428                           ;Lab3.c: 83:     CONUSART(9600);
  1429  03B6  3000               	movlw	0
  1430  03B7  00BA               	movwf	CONUSART@baudrate+3
  1431  03B8  3000               	movlw	0
  1432  03B9  00B9               	movwf	CONUSART@baudrate+2
  1433  03BA  3025               	movlw	37
  1434  03BB  00B8               	movwf	CONUSART@baudrate+1
  1435  03BC  3080               	movlw	128
  1436  03BD  00B7               	movwf	CONUSART@baudrate
  1437  03BE  120A  158A  220A  120A  118A  	fcall	_CONUSART
  1438  03C3                     l2829:
  1439                           
  1440                           ;Lab3.c: 84:     LCDGoto(0, 0);
  1441  03C3  1283               	bcf	3,5	;RP0=0, select bank0
  1442  03C4  1303               	bcf	3,6	;RP1=0, select bank0
  1443  03C5  01AD               	clrf	LCDGoto@ln
  1444  03C6  3000               	movlw	0
  1445  03C7  120A  158A  2093  120A  118A  	fcall	_LCDGoto
  1446  03CC                     l2831:
  1447                           
  1448                           ;Lab3.c: 85:     LCDStr(" S1:   S2:   S3: ");
  1449  03CC  3022               	movlw	(low ((STR_1-__stringbase)| (0+32768)))& (0+255)
  1450  03CD  1283               	bcf	3,5	;RP0=0, select bank0
  1451  03CE  1303               	bcf	3,6	;RP1=0, select bank0
  1452  03CF  00AD               	movwf	LCDStr@str
  1453  03D0  3080               	movlw	128
  1454  03D1  00AE               	movwf	LCDStr@str+1
  1455  03D2  160A  118A  27D3  120A  118A  	fcall	_LCDStr
  1456  03D7                     l2833:
  1457                           
  1458                           ;Lab3.c: 87:         if (fla == 1) {
  1459  03D7  1683               	bsf	3,5	;RP0=1, select bank1
  1460  03D8  1303               	bcf	3,6	;RP1=0, select bank1
  1461  03D9  0332               	decf	_fla^(0+128),w
  1462  03DA  0433               	iorwf	(_fla+1)^(0+128),w
  1463  03DB  1D03               	btfss	3,2
  1464  03DC  2BDE               	goto	u3931
  1465  03DD  2BDF               	goto	u3930
  1466  03DE                     u3931:
  1467  03DE  2C1B               	goto	l2847
  1468  03DF                     u3930:
  1469  03DF                     l2835:
  1470                           
  1471                           ;Lab3.c: 88:             fla = 0;
  1472  03DF  01B2               	clrf	_fla^(0+128)
  1473  03E0  01B3               	clrf	(_fla+1)^(0+128)
  1474  03E1                     l2837:
  1475                           
  1476                           ;Lab3.c: 89:             sprintf(datos2, "%3i", incre2);
  1477  03E1  3090               	movlw	(low (_datos2| (0+256)))& (0+255)
  1478  03E2  1283               	bcf	3,5	;RP0=0, select bank0
  1479  03E3  1303               	bcf	3,6	;RP1=0, select bank0
  1480  03E4  00B4               	movwf	sprintf@sp
  1481  03E5  3001               	movlw	1
  1482  03E6  00B5               	movwf	sprintf@sp+1
  1483  03E7  303D               	movlw	(low ((STR_2-__stringbase)| (0+32768)))& (0+255)
  1484  03E8  00FF               	movwf	btemp+1
  1485  03E9  087F               	movf	btemp+1,w
  1486  03EA  00B6               	movwf	sprintf@f
  1487  03EB  1683               	bsf	3,5	;RP0=1, select bank1
  1488  03EC  1303               	bcf	3,6	;RP1=0, select bank1
  1489  03ED  082F               	movf	(_incre2+1)^(0+128),w
  1490  03EE  1283               	bcf	3,5	;RP0=0, select bank0
  1491  03EF  1303               	bcf	3,6	;RP1=0, select bank0
  1492  03F0  00B8               	movwf	?_sprintf+4
  1493  03F1  1683               	bsf	3,5	;RP0=1, select bank1
  1494  03F2  1303               	bcf	3,6	;RP1=0, select bank1
  1495  03F3  082E               	movf	_incre2^(0+128),w
  1496  03F4  1283               	bcf	3,5	;RP0=0, select bank0
  1497  03F5  1303               	bcf	3,6	;RP1=0, select bank0
  1498  03F6  00B7               	movwf	?_sprintf+3
  1499  03F7  120A  158A  23CF  120A  118A  	fcall	_sprintf
  1500  03FC                     l2839:
  1501                           
  1502                           ;Lab3.c: 90:             LCDGoto(12, 1);
  1503  03FC  1283               	bcf	3,5	;RP0=0, select bank0
  1504  03FD  1303               	bcf	3,6	;RP1=0, select bank0
  1505  03FE  01AD               	clrf	LCDGoto@ln
  1506  03FF  0AAD               	incf	LCDGoto@ln,f
  1507  0400  300C               	movlw	12
  1508  0401  120A  158A  2093  120A  118A  	fcall	_LCDGoto
  1509  0406                     l2841:
  1510                           
  1511                           ;Lab3.c: 91:             LCDStr(datos2);
  1512  0406  3090               	movlw	(low (_datos2| (0+256)))& (0+255)
  1513  0407  1283               	bcf	3,5	;RP0=0, select bank0
  1514  0408  1303               	bcf	3,6	;RP1=0, select bank0
  1515  0409  00AD               	movwf	LCDStr@str
  1516  040A  3001               	movlw	1
  1517  040B  00AE               	movwf	LCDStr@str+1
  1518  040C  160A  118A  27D3  120A  118A  	fcall	_LCDStr
  1519  0411                     l2843:
  1520                           
  1521                           ;Lab3.c: 92:             _delay((unsigned long)((25)*(8000000/4000000.0)));
  1522  0411  300F               	movlw	15
  1523  0412  1683               	bsf	3,5	;RP0=1, select bank1
  1524  0413  1303               	bcf	3,6	;RP1=0, select bank1
  1525  0414  00DB               	movwf	??_main^(0+128)
  1526  0415                     u3997:
  1527  0415  0BDB               	decfsz	??_main^(0+128),f
  1528  0416  2C15               	goto	u3997
  1529  0417  2C18               	nop2
  1530  0418                     l2845:
  1531                           
  1532                           ;Lab3.c: 93:             ADCON0bits.GO_DONE = 1;
  1533  0418  1283               	bcf	3,5	;RP0=0, select bank0
  1534  0419  1303               	bcf	3,6	;RP1=0, select bank0
  1535  041A  149F               	bsf	31,1	;volatile
  1536  041B                     l2847:
  1537                           
  1538                           ;Lab3.c: 95:         if (cons == 0) {
  1539  041B  1283               	bcf	3,5	;RP0=0, select bank0
  1540  041C  0862               	movf	_cons,w
  1541  041D  0463               	iorwf	_cons+1,w
  1542  041E  1D03               	btfss	3,2
  1543  041F  2C21               	goto	u3941
  1544  0420  2C22               	goto	u3940
  1545  0421                     u3941:
  1546  0421  2D1A               	goto	l2871
  1547  0422                     u3940:
  1548  0422                     l2849:
  1549                           
  1550                           ;Lab3.c: 96:             voltage_int1 = (uint16_t) ((((voltage1 * 500) / 255) ));
  1551  0422  1683               	bsf	3,5	;RP0=1, select bank1
  1552  0423  1303               	bcf	3,6	;RP1=0, select bank1
  1553  0424  0827               	movf	(_voltage1+3)^(0+128),w
  1554  0425  1283               	bcf	3,5	;RP0=0, select bank0
  1555  0426  1303               	bcf	3,6	;RP1=0, select bank0
  1556  0427  00B8               	movwf	___flmul@a+3
  1557  0428  1683               	bsf	3,5	;RP0=1, select bank1
  1558  0429  1303               	bcf	3,6	;RP1=0, select bank1
  1559  042A  0826               	movf	(_voltage1+2)^(0+128),w
  1560  042B  1283               	bcf	3,5	;RP0=0, select bank0
  1561  042C  1303               	bcf	3,6	;RP1=0, select bank0
  1562  042D  00B7               	movwf	___flmul@a+2
  1563  042E  1683               	bsf	3,5	;RP0=1, select bank1
  1564  042F  1303               	bcf	3,6	;RP1=0, select bank1
  1565  0430  0825               	movf	(_voltage1+1)^(0+128),w
  1566  0431  1283               	bcf	3,5	;RP0=0, select bank0
  1567  0432  1303               	bcf	3,6	;RP1=0, select bank0
  1568  0433  00B6               	movwf	___flmul@a+1
  1569  0434  1683               	bsf	3,5	;RP0=1, select bank1
  1570  0435  1303               	bcf	3,6	;RP1=0, select bank1
  1571  0436  0824               	movf	_voltage1^(0+128),w
  1572  0437  1283               	bcf	3,5	;RP0=0, select bank0
  1573  0438  1303               	bcf	3,6	;RP1=0, select bank0
  1574  0439  00B5               	movwf	___flmul@a
  1575  043A  3043               	movlw	67
  1576  043B  00B4               	movwf	___flmul@b+3
  1577  043C  30FA               	movlw	250
  1578  043D  00B3               	movwf	___flmul@b+2
  1579  043E  3000               	movlw	0
  1580  043F  00B2               	movwf	___flmul@b+1
  1581  0440  3000               	movlw	0
  1582  0441  00B1               	movwf	___flmul@b
  1583  0442  120A  118A  2033  120A  118A  	fcall	___flmul
  1584  0447  1283               	bcf	3,5	;RP0=0, select bank0
  1585  0448  1303               	bcf	3,6	;RP1=0, select bank0
  1586  0449  0834               	movf	?___flmul+3,w
  1587  044A  00D2               	movwf	___fldiv@b+3
  1588  044B  0833               	movf	?___flmul+2,w
  1589  044C  00D1               	movwf	___fldiv@b+2
  1590  044D  0832               	movf	?___flmul+1,w
  1591  044E  00D0               	movwf	___fldiv@b+1
  1592  044F  0831               	movf	?___flmul,w
  1593  0450  00CF               	movwf	___fldiv@b
  1594  0451  3043               	movlw	67
  1595  0452  00CE               	movwf	___fldiv@a+3
  1596  0453  307F               	movlw	127
  1597  0454  00CD               	movwf	___fldiv@a+2
  1598  0455  3000               	movlw	0
  1599  0456  00CC               	movwf	___fldiv@a+1
  1600  0457  3000               	movlw	0
  1601  0458  00CB               	movwf	___fldiv@a
  1602  0459  120A  158A  2568  120A  118A  	fcall	___fldiv
  1603  045E  1283               	bcf	3,5	;RP0=0, select bank0
  1604  045F  1303               	bcf	3,6	;RP1=0, select bank0
  1605  0460  084E               	movf	?___fldiv+3,w
  1606  0461  1683               	bsf	3,5	;RP0=1, select bank1
  1607  0462  1303               	bcf	3,6	;RP1=0, select bank1
  1608  0463  00DA               	movwf	(___fltol@f1+3)^(0+128)
  1609  0464  1283               	bcf	3,5	;RP0=0, select bank0
  1610  0465  1303               	bcf	3,6	;RP1=0, select bank0
  1611  0466  084D               	movf	?___fldiv+2,w
  1612  0467  1683               	bsf	3,5	;RP0=1, select bank1
  1613  0468  1303               	bcf	3,6	;RP1=0, select bank1
  1614  0469  00D9               	movwf	(___fltol@f1+2)^(0+128)
  1615  046A  1283               	bcf	3,5	;RP0=0, select bank0
  1616  046B  1303               	bcf	3,6	;RP1=0, select bank0
  1617  046C  084C               	movf	?___fldiv+1,w
  1618  046D  1683               	bsf	3,5	;RP0=1, select bank1
  1619  046E  1303               	bcf	3,6	;RP1=0, select bank1
  1620  046F  00D8               	movwf	(___fltol@f1+1)^(0+128)
  1621  0470  1283               	bcf	3,5	;RP0=0, select bank0
  1622  0471  1303               	bcf	3,6	;RP1=0, select bank0
  1623  0472  084B               	movf	?___fldiv,w
  1624  0473  1683               	bsf	3,5	;RP0=1, select bank1
  1625  0474  1303               	bcf	3,6	;RP1=0, select bank1
  1626  0475  00D7               	movwf	___fltol@f1^(0+128)
  1627  0476  120A  158A  2277  120A  118A  	fcall	___fltol
  1628  047B  1683               	bsf	3,5	;RP0=1, select bank1
  1629  047C  1303               	bcf	3,6	;RP1=0, select bank1
  1630  047D  0858               	movf	(?___fltol+1)^(0+128),w
  1631  047E  1283               	bcf	3,5	;RP0=0, select bank0
  1632  047F  1303               	bcf	3,6	;RP1=0, select bank0
  1633  0480  00E1               	movwf	_voltage_int1+1
  1634  0481  1683               	bsf	3,5	;RP0=1, select bank1
  1635  0482  1303               	bcf	3,6	;RP1=0, select bank1
  1636  0483  0857               	movf	?___fltol^(0+128),w
  1637  0484  1283               	bcf	3,5	;RP0=0, select bank0
  1638  0485  1303               	bcf	3,6	;RP1=0, select bank0
  1639  0486  00E0               	movwf	_voltage_int1
  1640  0487                     l2851:
  1641                           
  1642                           ;Lab3.c: 97:             for (i = 0; i < 3; i++) {
  1643  0487  01DE               	clrf	_i
  1644  0488  01DF               	clrf	_i+1
  1645  0489                     l2857:
  1646                           
  1647                           ;Lab3.c: 98:                 digitos[i] = (char) (voltage_int1 % 10);
  1648  0489  300A               	movlw	10
  1649  048A  1283               	bcf	3,5	;RP0=0, select bank0
  1650  048B  1303               	bcf	3,6	;RP1=0, select bank0
  1651  048C  00A8               	movwf	___awmod@divisor
  1652  048D  3000               	movlw	0
  1653  048E  00A9               	movwf	___awmod@divisor+1
  1654  048F  0861               	movf	_voltage_int1+1,w
  1655  0490  00AB               	movwf	___awmod@dividend+1
  1656  0491  0860               	movf	_voltage_int1,w
  1657  0492  00AA               	movwf	___awmod@dividend
  1658  0493  120A  158A  2146  120A  118A  	fcall	___awmod
  1659  0498  1283               	bcf	3,5	;RP0=0, select bank0
  1660  0499  1303               	bcf	3,6	;RP1=0, select bank0
  1661  049A  0828               	movf	?___awmod,w
  1662  049B  00FF               	movwf	btemp+1
  1663  049C  085E               	movf	_i,w
  1664  049D  3EAB               	addlw	(low (_digitos| 0))& (0+255)
  1665  049E  0084               	movwf	4
  1666  049F  087F               	movf	btemp+1,w
  1667  04A0  1383               	bcf	3,7	;select IRP bank1
  1668  04A1  0080               	movwf	0
  1669  04A2                     l2859:
  1670                           
  1671                           ;Lab3.c: 99:                 voltage_int1 /= 10;
  1672  04A2  300A               	movlw	10
  1673  04A3  00A8               	movwf	___awdiv@divisor
  1674  04A4  3000               	movlw	0
  1675  04A5  00A9               	movwf	___awdiv@divisor+1
  1676  04A6  0861               	movf	_voltage_int1+1,w
  1677  04A7  00AB               	movwf	___awdiv@dividend+1
  1678  04A8  0860               	movf	_voltage_int1,w
  1679  04A9  00AA               	movwf	___awdiv@dividend
  1680  04AA  120A  158A  21A1  120A  118A  	fcall	___awdiv
  1681  04AF  1283               	bcf	3,5	;RP0=0, select bank0
  1682  04B0  1303               	bcf	3,6	;RP1=0, select bank0
  1683  04B1  0829               	movf	?___awdiv+1,w
  1684  04B2  00E1               	movwf	_voltage_int1+1
  1685  04B3  0828               	movf	?___awdiv,w
  1686  04B4  00E0               	movwf	_voltage_int1
  1687  04B5                     l2861:
  1688                           
  1689                           ;Lab3.c: 100:             }
  1690  04B5  3001               	movlw	1
  1691  04B6  07DE               	addwf	_i,f
  1692  04B7  1803               	skipnc
  1693  04B8  0ADF               	incf	_i+1,f
  1694  04B9  3000               	movlw	0
  1695  04BA  07DF               	addwf	_i+1,f
  1696  04BB                     l2863:
  1697  04BB  085F               	movf	_i+1,w
  1698  04BC  3A80               	xorlw	128
  1699  04BD  00FF               	movwf	btemp+1
  1700  04BE  3080               	movlw	128
  1701  04BF  027F               	subwf	btemp+1,w
  1702  04C0  1D03               	skipz
  1703  04C1  2CC4               	goto	u3955
  1704  04C2  3003               	movlw	3
  1705  04C3  025E               	subwf	_i,w
  1706  04C4                     u3955:
  1707  04C4  1C03               	skipc
  1708  04C5  2CC7               	goto	u3951
  1709  04C6  2CC8               	goto	u3950
  1710  04C7                     u3951:
  1711  04C7  2C89               	goto	l2857
  1712  04C8                     u3950:
  1713  04C8                     l2865:
  1714                           
  1715                           ;Lab3.c: 101:             LCDGoto(0, 1);
  1716  04C8  1283               	bcf	3,5	;RP0=0, select bank0
  1717  04C9  1303               	bcf	3,6	;RP1=0, select bank0
  1718  04CA  01AD               	clrf	LCDGoto@ln
  1719  04CB  0AAD               	incf	LCDGoto@ln,f
  1720  04CC  3000               	movlw	0
  1721  04CD  120A  158A  2093  120A  118A  	fcall	_LCDGoto
  1722  04D2                     l2867:
  1723                           
  1724                           ;Lab3.c: 102:             sprintf(buffer, "%i.%i%iV", digitos[2], digitos[1], digitos[0]
      +                          );
  1725  04D2  30B6               	movlw	(low (_buffer| 0))& (0+255)
  1726  04D3  1283               	bcf	3,5	;RP0=0, select bank0
  1727  04D4  1303               	bcf	3,6	;RP1=0, select bank0
  1728  04D5  00B4               	movwf	sprintf@sp
  1729  04D6  3000               	movlw	0
  1730  04D7  00B5               	movwf	sprintf@sp+1
  1731  04D8  3034               	movlw	(low ((STR_3-__stringbase)| (0+32768)))& (0+255)
  1732  04D9  00FF               	movwf	btemp+1
  1733  04DA  087F               	movf	btemp+1,w
  1734  04DB  00B6               	movwf	sprintf@f
  1735  04DC  1683               	bsf	3,5	;RP0=1, select bank1
  1736  04DD  1303               	bcf	3,6	;RP1=0, select bank1
  1737  04DE  082D               	movf	(_digitos^(0+128)+2),w
  1738  04DF  00DB               	movwf	??_main^(0+128)
  1739  04E0  01DC               	clrf	(??_main^(0+128)+1)
  1740  04E1  085B               	movf	??_main^(0+128),w
  1741  04E2  1283               	bcf	3,5	;RP0=0, select bank0
  1742  04E3  1303               	bcf	3,6	;RP1=0, select bank0
  1743  04E4  00B7               	movwf	?_sprintf+3
  1744  04E5  1683               	bsf	3,5	;RP0=1, select bank1
  1745  04E6  1303               	bcf	3,6	;RP1=0, select bank1
  1746  04E7  085C               	movf	(??_main+1)^(0+128),w
  1747  04E8  1283               	bcf	3,5	;RP0=0, select bank0
  1748  04E9  1303               	bcf	3,6	;RP1=0, select bank0
  1749  04EA  00B8               	movwf	?_sprintf+4
  1750  04EB  1683               	bsf	3,5	;RP0=1, select bank1
  1751  04EC  1303               	bcf	3,6	;RP1=0, select bank1
  1752  04ED  082C               	movf	(_digitos^(0+128)+1),w
  1753  04EE  00DD               	movwf	(??_main+2)^(0+128)
  1754  04EF  01DE               	clrf	((??_main+2)^(0+128)+1)
  1755  04F0  085D               	movf	(??_main+2)^(0+128),w
  1756  04F1  1283               	bcf	3,5	;RP0=0, select bank0
  1757  04F2  1303               	bcf	3,6	;RP1=0, select bank0
  1758  04F3  00B9               	movwf	?_sprintf+5
  1759  04F4  1683               	bsf	3,5	;RP0=1, select bank1
  1760  04F5  1303               	bcf	3,6	;RP1=0, select bank1
  1761  04F6  085E               	movf	(??_main+3)^(0+128),w
  1762  04F7  1283               	bcf	3,5	;RP0=0, select bank0
  1763  04F8  1303               	bcf	3,6	;RP1=0, select bank0
  1764  04F9  00BA               	movwf	?_sprintf+6
  1765  04FA  1683               	bsf	3,5	;RP0=1, select bank1
  1766  04FB  1303               	bcf	3,6	;RP1=0, select bank1
  1767  04FC  082B               	movf	_digitos^(0+128),w
  1768  04FD  00DF               	movwf	(??_main+4)^(0+128)
  1769  04FE  01E0               	clrf	((??_main+4)^(0+128)+1)
  1770  04FF  085F               	movf	(??_main+4)^(0+128),w
  1771  0500  1283               	bcf	3,5	;RP0=0, select bank0
  1772  0501  1303               	bcf	3,6	;RP1=0, select bank0
  1773  0502  00BB               	movwf	?_sprintf+7
  1774  0503  1683               	bsf	3,5	;RP0=1, select bank1
  1775  0504  1303               	bcf	3,6	;RP1=0, select bank1
  1776  0505  0860               	movf	(??_main+5)^(0+128),w
  1777  0506  1283               	bcf	3,5	;RP0=0, select bank0
  1778  0507  1303               	bcf	3,6	;RP1=0, select bank0
  1779  0508  00BC               	movwf	?_sprintf+8
  1780  0509  120A  158A  23CF  120A  118A  	fcall	_sprintf
  1781  050E                     l2869:
  1782                           
  1783                           ;Lab3.c: 103:             LCDStr(buffer);
  1784  050E  30B6               	movlw	(low (_buffer| 0))& (0+255)
  1785  050F  1283               	bcf	3,5	;RP0=0, select bank0
  1786  0510  1303               	bcf	3,6	;RP1=0, select bank0
  1787  0511  00AD               	movwf	LCDStr@str
  1788  0512  3000               	movlw	0
  1789  0513  00AE               	movwf	LCDStr@str+1
  1790  0514  160A  118A  27D3  120A  118A  	fcall	_LCDStr
  1791                           
  1792                           ;Lab3.c: 104:         } else if (cons == 1) {
  1793  0519  2E2B               	goto	l2895
  1794  051A                     l2871:
  1795  051A  0362               	decf	_cons,w
  1796  051B  0463               	iorwf	_cons+1,w
  1797  051C  1D03               	btfss	3,2
  1798  051D  2D1F               	goto	u3961
  1799  051E  2D20               	goto	u3960
  1800  051F                     u3961:
  1801  051F  2E2B               	goto	l2895
  1802  0520                     u3960:
  1803  0520                     l2873:
  1804                           
  1805                           ;Lab3.c: 105:             voltage_int2 = (uint16_t) (((voltage2 * 500) / 255));
  1806  0520  1683               	bsf	3,5	;RP0=1, select bank1
  1807  0521  1303               	bcf	3,6	;RP1=0, select bank1
  1808  0522  0823               	movf	(_voltage2+3)^(0+128),w
  1809  0523  1283               	bcf	3,5	;RP0=0, select bank0
  1810  0524  1303               	bcf	3,6	;RP1=0, select bank0
  1811  0525  00B8               	movwf	___flmul@a+3
  1812  0526  1683               	bsf	3,5	;RP0=1, select bank1
  1813  0527  1303               	bcf	3,6	;RP1=0, select bank1
  1814  0528  0822               	movf	(_voltage2+2)^(0+128),w
  1815  0529  1283               	bcf	3,5	;RP0=0, select bank0
  1816  052A  1303               	bcf	3,6	;RP1=0, select bank0
  1817  052B  00B7               	movwf	___flmul@a+2
  1818  052C  1683               	bsf	3,5	;RP0=1, select bank1
  1819  052D  1303               	bcf	3,6	;RP1=0, select bank1
  1820  052E  0821               	movf	(_voltage2+1)^(0+128),w
  1821  052F  1283               	bcf	3,5	;RP0=0, select bank0
  1822  0530  1303               	bcf	3,6	;RP1=0, select bank0
  1823  0531  00B6               	movwf	___flmul@a+1
  1824  0532  1683               	bsf	3,5	;RP0=1, select bank1
  1825  0533  1303               	bcf	3,6	;RP1=0, select bank1
  1826  0534  0820               	movf	_voltage2^(0+128),w
  1827  0535  1283               	bcf	3,5	;RP0=0, select bank0
  1828  0536  1303               	bcf	3,6	;RP1=0, select bank0
  1829  0537  00B5               	movwf	___flmul@a
  1830  0538  3043               	movlw	67
  1831  0539  00B4               	movwf	___flmul@b+3
  1832  053A  30FA               	movlw	250
  1833  053B  00B3               	movwf	___flmul@b+2
  1834  053C  3000               	movlw	0
  1835  053D  00B2               	movwf	___flmul@b+1
  1836  053E  3000               	movlw	0
  1837  053F  00B1               	movwf	___flmul@b
  1838  0540  120A  118A  2033  120A  118A  	fcall	___flmul
  1839  0545  1283               	bcf	3,5	;RP0=0, select bank0
  1840  0546  1303               	bcf	3,6	;RP1=0, select bank0
  1841  0547  0834               	movf	?___flmul+3,w
  1842  0548  00D2               	movwf	___fldiv@b+3
  1843  0549  0833               	movf	?___flmul+2,w
  1844  054A  00D1               	movwf	___fldiv@b+2
  1845  054B  0832               	movf	?___flmul+1,w
  1846  054C  00D0               	movwf	___fldiv@b+1
  1847  054D  0831               	movf	?___flmul,w
  1848  054E  00CF               	movwf	___fldiv@b
  1849  054F  3043               	movlw	67
  1850  0550  00CE               	movwf	___fldiv@a+3
  1851  0551  307F               	movlw	127
  1852  0552  00CD               	movwf	___fldiv@a+2
  1853  0553  3000               	movlw	0
  1854  0554  00CC               	movwf	___fldiv@a+1
  1855  0555  3000               	movlw	0
  1856  0556  00CB               	movwf	___fldiv@a
  1857  0557  120A  158A  2568  120A  118A  	fcall	___fldiv
  1858  055C  1283               	bcf	3,5	;RP0=0, select bank0
  1859  055D  1303               	bcf	3,6	;RP1=0, select bank0
  1860  055E  084E               	movf	?___fldiv+3,w
  1861  055F  1683               	bsf	3,5	;RP0=1, select bank1
  1862  0560  1303               	bcf	3,6	;RP1=0, select bank1
  1863  0561  00DA               	movwf	(___fltol@f1+3)^(0+128)
  1864  0562  1283               	bcf	3,5	;RP0=0, select bank0
  1865  0563  1303               	bcf	3,6	;RP1=0, select bank0
  1866  0564  084D               	movf	?___fldiv+2,w
  1867  0565  1683               	bsf	3,5	;RP0=1, select bank1
  1868  0566  1303               	bcf	3,6	;RP1=0, select bank1
  1869  0567  00D9               	movwf	(___fltol@f1+2)^(0+128)
  1870  0568  1283               	bcf	3,5	;RP0=0, select bank0
  1871  0569  1303               	bcf	3,6	;RP1=0, select bank0
  1872  056A  084C               	movf	?___fldiv+1,w
  1873  056B  1683               	bsf	3,5	;RP0=1, select bank1
  1874  056C  1303               	bcf	3,6	;RP1=0, select bank1
  1875  056D  00D8               	movwf	(___fltol@f1+1)^(0+128)
  1876  056E  1283               	bcf	3,5	;RP0=0, select bank0
  1877  056F  1303               	bcf	3,6	;RP1=0, select bank0
  1878  0570  084B               	movf	?___fldiv,w
  1879  0571  1683               	bsf	3,5	;RP0=1, select bank1
  1880  0572  1303               	bcf	3,6	;RP1=0, select bank1
  1881  0573  00D7               	movwf	___fltol@f1^(0+128)
  1882  0574  120A  158A  2277  120A  118A  	fcall	___fltol
  1883  0579  1683               	bsf	3,5	;RP0=1, select bank1
  1884  057A  1303               	bcf	3,6	;RP1=0, select bank1
  1885  057B  0858               	movf	(?___fltol+1)^(0+128),w
  1886  057C  00B5               	movwf	(_voltage_int2+1)^(0+128)
  1887  057D  0857               	movf	?___fltol^(0+128),w
  1888  057E  00B4               	movwf	_voltage_int2^(0+128)
  1889  057F                     l2875:
  1890                           
  1891                           ;Lab3.c: 106:             for (i = 0; i < 3; i++) {
  1892  057F  1283               	bcf	3,5	;RP0=0, select bank0
  1893  0580  1303               	bcf	3,6	;RP1=0, select bank0
  1894  0581  01DE               	clrf	_i
  1895  0582  01DF               	clrf	_i+1
  1896  0583                     l2881:
  1897                           
  1898                           ;Lab3.c: 107:                 digitos2[i] = (char) (voltage_int2 % 10);
  1899  0583  300A               	movlw	10
  1900  0584  1283               	bcf	3,5	;RP0=0, select bank0
  1901  0585  1303               	bcf	3,6	;RP1=0, select bank0
  1902  0586  00A8               	movwf	___awmod@divisor
  1903  0587  3000               	movlw	0
  1904  0588  00A9               	movwf	___awmod@divisor+1
  1905  0589  1683               	bsf	3,5	;RP0=1, select bank1
  1906  058A  1303               	bcf	3,6	;RP1=0, select bank1
  1907  058B  0835               	movf	(_voltage_int2+1)^(0+128),w
  1908  058C  1283               	bcf	3,5	;RP0=0, select bank0
  1909  058D  1303               	bcf	3,6	;RP1=0, select bank0
  1910  058E  00AB               	movwf	___awmod@dividend+1
  1911  058F  1683               	bsf	3,5	;RP0=1, select bank1
  1912  0590  1303               	bcf	3,6	;RP1=0, select bank1
  1913  0591  0834               	movf	_voltage_int2^(0+128),w
  1914  0592  1283               	bcf	3,5	;RP0=0, select bank0
  1915  0593  1303               	bcf	3,6	;RP1=0, select bank0
  1916  0594  00AA               	movwf	___awmod@dividend
  1917  0595  120A  158A  2146  120A  118A  	fcall	___awmod
  1918  059A  1283               	bcf	3,5	;RP0=0, select bank0
  1919  059B  1303               	bcf	3,6	;RP1=0, select bank0
  1920  059C  0828               	movf	?___awmod,w
  1921  059D  00FF               	movwf	btemp+1
  1922  059E  085E               	movf	_i,w
  1923  059F  3EA8               	addlw	(low (_digitos2| 0))& (0+255)
  1924  05A0  0084               	movwf	4
  1925  05A1  087F               	movf	btemp+1,w
  1926  05A2  1383               	bcf	3,7	;select IRP bank1
  1927  05A3  0080               	movwf	0
  1928  05A4                     l2883:
  1929                           
  1930                           ;Lab3.c: 108:                 voltage_int2 /= 10;
  1931  05A4  300A               	movlw	10
  1932  05A5  00A8               	movwf	___awdiv@divisor
  1933  05A6  3000               	movlw	0
  1934  05A7  00A9               	movwf	___awdiv@divisor+1
  1935  05A8  1683               	bsf	3,5	;RP0=1, select bank1
  1936  05A9  1303               	bcf	3,6	;RP1=0, select bank1
  1937  05AA  0835               	movf	(_voltage_int2+1)^(0+128),w
  1938  05AB  1283               	bcf	3,5	;RP0=0, select bank0
  1939  05AC  1303               	bcf	3,6	;RP1=0, select bank0
  1940  05AD  00AB               	movwf	___awdiv@dividend+1
  1941  05AE  1683               	bsf	3,5	;RP0=1, select bank1
  1942  05AF  1303               	bcf	3,6	;RP1=0, select bank1
  1943  05B0  0834               	movf	_voltage_int2^(0+128),w
  1944  05B1  1283               	bcf	3,5	;RP0=0, select bank0
  1945  05B2  1303               	bcf	3,6	;RP1=0, select bank0
  1946  05B3  00AA               	movwf	___awdiv@dividend
  1947  05B4  120A  158A  21A1  120A  118A  	fcall	___awdiv
  1948  05B9  1283               	bcf	3,5	;RP0=0, select bank0
  1949  05BA  1303               	bcf	3,6	;RP1=0, select bank0
  1950  05BB  0829               	movf	?___awdiv+1,w
  1951  05BC  1683               	bsf	3,5	;RP0=1, select bank1
  1952  05BD  1303               	bcf	3,6	;RP1=0, select bank1
  1953  05BE  00B5               	movwf	(_voltage_int2+1)^(0+128)
  1954  05BF  1283               	bcf	3,5	;RP0=0, select bank0
  1955  05C0  1303               	bcf	3,6	;RP1=0, select bank0
  1956  05C1  0828               	movf	?___awdiv,w
  1957  05C2  1683               	bsf	3,5	;RP0=1, select bank1
  1958  05C3  1303               	bcf	3,6	;RP1=0, select bank1
  1959  05C4  00B4               	movwf	_voltage_int2^(0+128)
  1960  05C5                     l2885:
  1961                           
  1962                           ;Lab3.c: 109:             }
  1963  05C5  3001               	movlw	1
  1964  05C6  1283               	bcf	3,5	;RP0=0, select bank0
  1965  05C7  1303               	bcf	3,6	;RP1=0, select bank0
  1966  05C8  07DE               	addwf	_i,f
  1967  05C9  1803               	skipnc
  1968  05CA  0ADF               	incf	_i+1,f
  1969  05CB  3000               	movlw	0
  1970  05CC  07DF               	addwf	_i+1,f
  1971  05CD                     l2887:
  1972  05CD  085F               	movf	_i+1,w
  1973  05CE  3A80               	xorlw	128
  1974  05CF  00FF               	movwf	btemp+1
  1975  05D0  3080               	movlw	128
  1976  05D1  027F               	subwf	btemp+1,w
  1977  05D2  1D03               	skipz
  1978  05D3  2DD6               	goto	u3975
  1979  05D4  3003               	movlw	3
  1980  05D5  025E               	subwf	_i,w
  1981  05D6                     u3975:
  1982  05D6  1C03               	skipc
  1983  05D7  2DD9               	goto	u3971
  1984  05D8  2DDA               	goto	u3970
  1985  05D9                     u3971:
  1986  05D9  2D83               	goto	l2881
  1987  05DA                     u3970:
  1988  05DA                     l2889:
  1989                           
  1990                           ;Lab3.c: 110:             LCDGoto(6, 1);
  1991  05DA  1283               	bcf	3,5	;RP0=0, select bank0
  1992  05DB  1303               	bcf	3,6	;RP1=0, select bank0
  1993  05DC  01AD               	clrf	LCDGoto@ln
  1994  05DD  0AAD               	incf	LCDGoto@ln,f
  1995  05DE  3006               	movlw	6
  1996  05DF  120A  158A  2093  120A  118A  	fcall	_LCDGoto
  1997  05E4                     l2891:
  1998                           
  1999                           ;Lab3.c: 111:             sprintf(buffer2, "%i.%i%iV", digitos2[2], digitos2[1], digitos
      +                          2[0]);
  2000  05E4  30B8               	movlw	(low (_buffer2| (0+256)))& (0+255)
  2001  05E5  1283               	bcf	3,5	;RP0=0, select bank0
  2002  05E6  1303               	bcf	3,6	;RP1=0, select bank0
  2003  05E7  00B4               	movwf	sprintf@sp
  2004  05E8  3001               	movlw	1
  2005  05E9  00B5               	movwf	sprintf@sp+1
  2006  05EA  3034               	movlw	(low ((STR_3-__stringbase)| (0+32768)))& (0+255)
  2007  05EB  00FF               	movwf	btemp+1
  2008  05EC  087F               	movf	btemp+1,w
  2009  05ED  00B6               	movwf	sprintf@f
  2010  05EE  1683               	bsf	3,5	;RP0=1, select bank1
  2011  05EF  1303               	bcf	3,6	;RP1=0, select bank1
  2012  05F0  082A               	movf	(_digitos2^(0+128)+2),w
  2013  05F1  00DB               	movwf	??_main^(0+128)
  2014  05F2  01DC               	clrf	(??_main^(0+128)+1)
  2015  05F3  085B               	movf	??_main^(0+128),w
  2016  05F4  1283               	bcf	3,5	;RP0=0, select bank0
  2017  05F5  1303               	bcf	3,6	;RP1=0, select bank0
  2018  05F6  00B7               	movwf	?_sprintf+3
  2019  05F7  1683               	bsf	3,5	;RP0=1, select bank1
  2020  05F8  1303               	bcf	3,6	;RP1=0, select bank1
  2021  05F9  085C               	movf	(??_main+1)^(0+128),w
  2022  05FA  1283               	bcf	3,5	;RP0=0, select bank0
  2023  05FB  1303               	bcf	3,6	;RP1=0, select bank0
  2024  05FC  00B8               	movwf	?_sprintf+4
  2025  05FD  1683               	bsf	3,5	;RP0=1, select bank1
  2026  05FE  1303               	bcf	3,6	;RP1=0, select bank1
  2027  05FF  0829               	movf	(_digitos2^(0+128)+1),w
  2028  0600  00DD               	movwf	(??_main+2)^(0+128)
  2029  0601  01DE               	clrf	((??_main+2)^(0+128)+1)
  2030  0602  085D               	movf	(??_main+2)^(0+128),w
  2031  0603  1283               	bcf	3,5	;RP0=0, select bank0
  2032  0604  1303               	bcf	3,6	;RP1=0, select bank0
  2033  0605  00B9               	movwf	?_sprintf+5
  2034  0606  1683               	bsf	3,5	;RP0=1, select bank1
  2035  0607  1303               	bcf	3,6	;RP1=0, select bank1
  2036  0608  085E               	movf	(??_main+3)^(0+128),w
  2037  0609  1283               	bcf	3,5	;RP0=0, select bank0
  2038  060A  1303               	bcf	3,6	;RP1=0, select bank0
  2039  060B  00BA               	movwf	?_sprintf+6
  2040  060C  1683               	bsf	3,5	;RP0=1, select bank1
  2041  060D  1303               	bcf	3,6	;RP1=0, select bank1
  2042  060E  0828               	movf	_digitos2^(0+128),w
  2043  060F  00DF               	movwf	(??_main+4)^(0+128)
  2044  0610  01E0               	clrf	((??_main+4)^(0+128)+1)
  2045  0611  085F               	movf	(??_main+4)^(0+128),w
  2046  0612  1283               	bcf	3,5	;RP0=0, select bank0
  2047  0613  1303               	bcf	3,6	;RP1=0, select bank0
  2048  0614  00BB               	movwf	?_sprintf+7
  2049  0615  1683               	bsf	3,5	;RP0=1, select bank1
  2050  0616  1303               	bcf	3,6	;RP1=0, select bank1
  2051  0617  0860               	movf	(??_main+5)^(0+128),w
  2052  0618  1283               	bcf	3,5	;RP0=0, select bank0
  2053  0619  1303               	bcf	3,6	;RP1=0, select bank0
  2054  061A  00BC               	movwf	?_sprintf+8
  2055  061B  120A  158A  23CF  120A  118A  	fcall	_sprintf
  2056  0620                     l2893:
  2057                           
  2058                           ;Lab3.c: 112:             LCDStr(buffer2);
  2059  0620  30B8               	movlw	(low (_buffer2| (0+256)))& (0+255)
  2060  0621  1283               	bcf	3,5	;RP0=0, select bank0
  2061  0622  1303               	bcf	3,6	;RP1=0, select bank0
  2062  0623  00AD               	movwf	LCDStr@str
  2063  0624  3001               	movlw	1
  2064  0625  00AE               	movwf	LCDStr@str+1
  2065  0626  160A  118A  27D3  120A  118A  	fcall	_LCDStr
  2066  062B                     l2895:
  2067                           
  2068                           ;Lab3.c: 114:         sprintf(datos, "%i.%i%iV %i.%i%iV %i\r\n", digitos[2], digitos[1],
      +                           digitos[0], digitos2[2], digitos2[1], digitos[0], incre2);
  2069  062B  30A4               	movlw	(low (_datos| (0+256)))& (0+255)
  2070  062C  1283               	bcf	3,5	;RP0=0, select bank0
  2071  062D  1303               	bcf	3,6	;RP1=0, select bank0
  2072  062E  00B4               	movwf	sprintf@sp
  2073  062F  3001               	movlw	1
  2074  0630  00B5               	movwf	sprintf@sp+1
  2075  0631  300B               	movlw	(low ((STR_5-__stringbase)| (0+32768)))& (0+255)
  2076  0632  00FF               	movwf	btemp+1
  2077  0633  087F               	movf	btemp+1,w
  2078  0634  00B6               	movwf	sprintf@f
  2079  0635  1683               	bsf	3,5	;RP0=1, select bank1
  2080  0636  1303               	bcf	3,6	;RP1=0, select bank1
  2081  0637  082D               	movf	(_digitos^(0+128)+2),w
  2082  0638  00DB               	movwf	??_main^(0+128)
  2083  0639  01DC               	clrf	(??_main^(0+128)+1)
  2084  063A  085B               	movf	??_main^(0+128),w
  2085  063B  1283               	bcf	3,5	;RP0=0, select bank0
  2086  063C  1303               	bcf	3,6	;RP1=0, select bank0
  2087  063D  00B7               	movwf	?_sprintf+3
  2088  063E  1683               	bsf	3,5	;RP0=1, select bank1
  2089  063F  1303               	bcf	3,6	;RP1=0, select bank1
  2090  0640  085C               	movf	(??_main+1)^(0+128),w
  2091  0641  1283               	bcf	3,5	;RP0=0, select bank0
  2092  0642  1303               	bcf	3,6	;RP1=0, select bank0
  2093  0643  00B8               	movwf	?_sprintf+4
  2094  0644  1683               	bsf	3,5	;RP0=1, select bank1
  2095  0645  1303               	bcf	3,6	;RP1=0, select bank1
  2096  0646  082C               	movf	(_digitos^(0+128)+1),w
  2097  0647  00DD               	movwf	(??_main+2)^(0+128)
  2098  0648  01DE               	clrf	((??_main+2)^(0+128)+1)
  2099  0649  085D               	movf	(??_main+2)^(0+128),w
  2100  064A  1283               	bcf	3,5	;RP0=0, select bank0
  2101  064B  1303               	bcf	3,6	;RP1=0, select bank0
  2102  064C  00B9               	movwf	?_sprintf+5
  2103  064D  1683               	bsf	3,5	;RP0=1, select bank1
  2104  064E  1303               	bcf	3,6	;RP1=0, select bank1
  2105  064F  085E               	movf	(??_main+3)^(0+128),w
  2106  0650  1283               	bcf	3,5	;RP0=0, select bank0
  2107  0651  1303               	bcf	3,6	;RP1=0, select bank0
  2108  0652  00BA               	movwf	?_sprintf+6
  2109  0653  1683               	bsf	3,5	;RP0=1, select bank1
  2110  0654  1303               	bcf	3,6	;RP1=0, select bank1
  2111  0655  082B               	movf	_digitos^(0+128),w
  2112  0656  00DF               	movwf	(??_main+4)^(0+128)
  2113  0657  01E0               	clrf	((??_main+4)^(0+128)+1)
  2114  0658  085F               	movf	(??_main+4)^(0+128),w
  2115  0659  1283               	bcf	3,5	;RP0=0, select bank0
  2116  065A  1303               	bcf	3,6	;RP1=0, select bank0
  2117  065B  00BB               	movwf	?_sprintf+7
  2118  065C  1683               	bsf	3,5	;RP0=1, select bank1
  2119  065D  1303               	bcf	3,6	;RP1=0, select bank1
  2120  065E  0860               	movf	(??_main+5)^(0+128),w
  2121  065F  1283               	bcf	3,5	;RP0=0, select bank0
  2122  0660  1303               	bcf	3,6	;RP1=0, select bank0
  2123  0661  00BC               	movwf	?_sprintf+8
  2124  0662  1683               	bsf	3,5	;RP0=1, select bank1
  2125  0663  1303               	bcf	3,6	;RP1=0, select bank1
  2126  0664  082A               	movf	(_digitos2^(0+128)+2),w
  2127  0665  00E1               	movwf	(??_main+6)^(0+128)
  2128  0666  01E2               	clrf	((??_main+6)^(0+128)+1)
  2129  0667  0861               	movf	(??_main+6)^(0+128),w
  2130  0668  1283               	bcf	3,5	;RP0=0, select bank0
  2131  0669  1303               	bcf	3,6	;RP1=0, select bank0
  2132  066A  00BD               	movwf	?_sprintf+9
  2133  066B  1683               	bsf	3,5	;RP0=1, select bank1
  2134  066C  1303               	bcf	3,6	;RP1=0, select bank1
  2135  066D  0862               	movf	(??_main+7)^(0+128),w
  2136  066E  1283               	bcf	3,5	;RP0=0, select bank0
  2137  066F  1303               	bcf	3,6	;RP1=0, select bank0
  2138  0670  00BE               	movwf	?_sprintf+10
  2139  0671  1683               	bsf	3,5	;RP0=1, select bank1
  2140  0672  1303               	bcf	3,6	;RP1=0, select bank1
  2141  0673  0829               	movf	(_digitos2^(0+128)+1),w
  2142  0674  00E3               	movwf	(??_main+8)^(0+128)
  2143  0675  01E4               	clrf	((??_main+8)^(0+128)+1)
  2144  0676  0863               	movf	(??_main+8)^(0+128),w
  2145  0677  1283               	bcf	3,5	;RP0=0, select bank0
  2146  0678  1303               	bcf	3,6	;RP1=0, select bank0
  2147  0679  00BF               	movwf	?_sprintf+11
  2148  067A  1683               	bsf	3,5	;RP0=1, select bank1
  2149  067B  1303               	bcf	3,6	;RP1=0, select bank1
  2150  067C  0864               	movf	(??_main+9)^(0+128),w
  2151  067D  1283               	bcf	3,5	;RP0=0, select bank0
  2152  067E  1303               	bcf	3,6	;RP1=0, select bank0
  2153  067F  00C0               	movwf	?_sprintf+12
  2154  0680  1683               	bsf	3,5	;RP0=1, select bank1
  2155  0681  1303               	bcf	3,6	;RP1=0, select bank1
  2156  0682  082B               	movf	_digitos^(0+128),w
  2157  0683  00E5               	movwf	(??_main+10)^(0+128)
  2158  0684  01E6               	clrf	((??_main+10)^(0+128)+1)
  2159  0685  0865               	movf	(??_main+10)^(0+128),w
  2160  0686  1283               	bcf	3,5	;RP0=0, select bank0
  2161  0687  1303               	bcf	3,6	;RP1=0, select bank0
  2162  0688  00C1               	movwf	?_sprintf+13
  2163  0689  1683               	bsf	3,5	;RP0=1, select bank1
  2164  068A  1303               	bcf	3,6	;RP1=0, select bank1
  2165  068B  0866               	movf	(??_main+11)^(0+128),w
  2166  068C  1283               	bcf	3,5	;RP0=0, select bank0
  2167  068D  1303               	bcf	3,6	;RP1=0, select bank0
  2168  068E  00C2               	movwf	?_sprintf+14
  2169  068F  1683               	bsf	3,5	;RP0=1, select bank1
  2170  0690  1303               	bcf	3,6	;RP1=0, select bank1
  2171  0691  082F               	movf	(_incre2+1)^(0+128),w
  2172  0692  1283               	bcf	3,5	;RP0=0, select bank0
  2173  0693  1303               	bcf	3,6	;RP1=0, select bank0
  2174  0694  00C4               	movwf	?_sprintf+16
  2175  0695  1683               	bsf	3,5	;RP0=1, select bank1
  2176  0696  1303               	bcf	3,6	;RP1=0, select bank1
  2177  0697  082E               	movf	_incre2^(0+128),w
  2178  0698  1283               	bcf	3,5	;RP0=0, select bank0
  2179  0699  1303               	bcf	3,6	;RP1=0, select bank0
  2180  069A  00C3               	movwf	?_sprintf+15
  2181  069B  120A  158A  23CF  120A  118A  	fcall	_sprintf
  2182  06A0  2BD7               	goto	l2833
  2183  06A1  120A  118A  2812   	ljmp	start
  2184  06A4                     __end_of_main:
  2185                           
  2186                           	psect	text1
  2187  0BCF                     __ptext1:	
  2188 ;; *************** function _sprintf *****************
  2189 ;; Defined at:
  2190 ;;		line 505 in file "C:\Program Files\Microchip\xc8\v2.20\pic\sources\c90\common\doprnt.c"
  2191 ;; Parameters:    Size  Location     Type
  2192 ;;  sp              2   20[BANK0 ] PTR unsigned char 
  2193 ;;		 -> buffer2(20), buffer(20), datos2(20), datos(20), 
  2194 ;;  f               1   22[BANK0 ] PTR const unsigned char 
  2195 ;;		 -> STR_5(23), STR_4(9), STR_3(9), STR_2(4), 
  2196 ;; Auto vars:     Size  Location     Type
  2197 ;;  tmpval          4    0        struct .
  2198 ;;  width           2   45[BANK0 ] int 
  2199 ;;  val             2   43[BANK0 ] unsigned int 
  2200 ;;  cp              2    0        PTR const unsigned char 
  2201 ;;  len             2    0        unsigned int 
  2202 ;;  c               1   47[BANK0 ] unsigned char 
  2203 ;;  flag            1   42[BANK0 ] unsigned char 
  2204 ;;  prec            1   41[BANK0 ] char 
  2205 ;;  ap              1   40[BANK0 ] PTR void [1]
  2206 ;;		 -> ?_sprintf(2), 
  2207 ;; Return value:  Size  Location     Type
  2208 ;;                  2   20[BANK0 ] int 
  2209 ;; Registers used:
  2210 ;;		wreg, fsr0l, fsr0h, status,2, status,0, btemp+1, pclath, cstack
  2211 ;; Tracked objects:
  2212 ;;		On entry : 0/0
  2213 ;;		On exit  : 0/0
  2214 ;;		Unchanged: 0/0
  2215 ;; Data sizes:     COMMON   BANK0   BANK1   BANK3   BANK2
  2216 ;;      Params:         0      17       0       0       0
  2217 ;;      Locals:         0       8       0       0       0
  2218 ;;      Temps:          0       3       0       0       0
  2219 ;;      Totals:         0      28       0       0       0
  2220 ;;Total ram usage:       28 bytes
  2221 ;; Hardware stack levels used:    1
  2222 ;; Hardware stack levels required when called:    3
  2223 ;; This function calls:
  2224 ;;		___lwdiv
  2225 ;;		___lwmod
  2226 ;;		___wmul
  2227 ;;		_isdigit
  2228 ;; This function is called by:
  2229 ;;		_main
  2230 ;; This function uses a non-reentrant model
  2231 ;;
  2232                           
  2233                           
  2234                           ;psect for function _sprintf
  2235  0BCF                     _sprintf:
  2236  0BCF                     l1935:	
  2237                           ;incstack = 0
  2238                           ; Regs used in _sprintf: [wreg-fsr0h+status,2+status,0+btemp+1+pclath+cstack]
  2239                           
  2240                           
  2241                           ;C:\Program Files\Microchip\xc8\v2.20\pic\sources\c90\common\doprnt.c: 505: sprintf(char
      +                           * sp, const char * f, ...);C:\Program Files\Microchip\xc8\v2.20\pic\sources\c90\common\
      +                          doprnt.c: 506: {;C:\Program Files\Microchip\xc8\v2.20\pic\sources\c90\common\doprnt.c: 5
      +                          07:  va_list ap;;C:\Program Files\Microchip\xc8\v2.20\pic\sources\c90\common\doprnt.c: 5
      +                          12:  char c;;C:\Program Files\Microchip\xc8\v2.20\pic\sources\c90\common\doprnt.c: 514: 
      +                           int width;;C:\Program Files\Microchip\xc8\v2.20\pic\sources\c90\common\doprnt.c: 521:  
      +                          signed char prec;
  2242  0BCF  3037               	movlw	(low ((?_sprintf| 0+3)))& (0+255)
  2243  0BD0  00FF               	movwf	btemp+1
  2244  0BD1  087F               	movf	btemp+1,w
  2245  0BD2  1283               	bcf	3,5	;RP0=0, select bank0
  2246  0BD3  1303               	bcf	3,6	;RP1=0, select bank0
  2247  0BD4  00C8               	movwf	sprintf@ap
  2248                           
  2249                           ;C:\Program Files\Microchip\xc8\v2.20\pic\sources\c90\common\doprnt.c: 553:  while((c = 
      +                          *f++)) {
  2250  0BD5  2D4F               	goto	l2019
  2251  0BD6                     l1937:
  2252                           
  2253                           ;C:\Program Files\Microchip\xc8\v2.20\pic\sources\c90\common\doprnt.c: 555:   if(c != '%
      +                          ')
  2254  0BD6  3025               	movlw	37
  2255  0BD7  064F               	xorwf	sprintf@c,w
  2256  0BD8  1903               	btfsc	3,2
  2257  0BD9  2BDB               	goto	u2161
  2258  0BDA  2BDC               	goto	u2160
  2259  0BDB                     u2161:
  2260  0BDB  2BEC               	goto	l1943
  2261  0BDC                     u2160:
  2262  0BDC                     l1939:
  2263                           
  2264                           ;C:\Program Files\Microchip\xc8\v2.20\pic\sources\c90\common\doprnt.c: 557:   {;C:\Progr
      +                          am Files\Microchip\xc8\v2.20\pic\sources\c90\common\doprnt.c: 558:    ((*sp++ = (c)));
  2265  0BDC  084F               	movf	sprintf@c,w
  2266  0BDD  00FF               	movwf	btemp+1
  2267  0BDE  0834               	movf	sprintf@sp,w
  2268  0BDF  0084               	movwf	4
  2269  0BE0  1783               	bsf	3,7
  2270  0BE1  1C35               	btfss	sprintf@sp+1,0
  2271  0BE2  1383               	bcf	3,7
  2272  0BE3  087F               	movf	btemp+1,w
  2273  0BE4  0080               	movwf	0
  2274  0BE5                     l1941:
  2275  0BE5  3001               	movlw	1
  2276  0BE6  07B4               	addwf	sprintf@sp,f
  2277  0BE7  1803               	skipnc
  2278  0BE8  0AB5               	incf	sprintf@sp+1,f
  2279  0BE9  3000               	movlw	0
  2280  0BEA  07B5               	addwf	sprintf@sp+1,f
  2281                           
  2282                           ;C:\Program Files\Microchip\xc8\v2.20\pic\sources\c90\common\doprnt.c: 559:    continue;
  2283  0BEB  2D4F               	goto	l2019
  2284  0BEC                     l1943:
  2285                           
  2286                           ;C:\Program Files\Microchip\xc8\v2.20\pic\sources\c90\common\doprnt.c: 563:   width = 0;
  2287  0BEC  01CD               	clrf	sprintf@width
  2288  0BED  01CE               	clrf	sprintf@width+1
  2289                           
  2290                           ;C:\Program Files\Microchip\xc8\v2.20\pic\sources\c90\common\doprnt.c: 565:   flag = 0;
  2291  0BEE  01CA               	clrf	sprintf@flag
  2292  0BEF                     l1945:
  2293                           
  2294                           ;C:\Program Files\Microchip\xc8\v2.20\pic\sources\c90\common\doprnt.c: 614:   if(isdigit
      +                          ((unsigned)*f)) {
  2295  0BEF  0836               	movf	sprintf@f,w
  2296  0BF0  0084               	movwf	4
  2297  0BF1  120A  158A  200A  120A  158A  	fcall	stringdir
  2298  0BF6  160A  118A  2740  120A  158A  	fcall	_isdigit
  2299  0BFB  1C03               	btfss	3,0
  2300  0BFC  2BFE               	goto	u2171
  2301  0BFD  2BFF               	goto	u2170
  2302  0BFE                     u2171:
  2303  0BFE  2C3F               	goto	l1959
  2304  0BFF                     u2170:
  2305  0BFF                     l1947:
  2306                           
  2307                           ;C:\Program Files\Microchip\xc8\v2.20\pic\sources\c90\common\doprnt.c: 615:    width = 0
      +                          ;
  2308  0BFF  1283               	bcf	3,5	;RP0=0, select bank0
  2309  0C00  1303               	bcf	3,6	;RP1=0, select bank0
  2310  0C01  01CD               	clrf	sprintf@width
  2311  0C02  01CE               	clrf	sprintf@width+1
  2312  0C03                     l1949:
  2313                           
  2314                           ;C:\Program Files\Microchip\xc8\v2.20\pic\sources\c90\common\doprnt.c: 617:     width *=
      +                           10;
  2315  0C03  300A               	movlw	10
  2316  0C04  1283               	bcf	3,5	;RP0=0, select bank0
  2317  0C05  1303               	bcf	3,6	;RP1=0, select bank0
  2318  0C06  00A8               	movwf	___wmul@multiplier
  2319  0C07  3000               	movlw	0
  2320  0C08  00A9               	movwf	___wmul@multiplier+1
  2321  0C09  084E               	movf	sprintf@width+1,w
  2322  0C0A  00AB               	movwf	___wmul@multiplicand+1
  2323  0C0B  084D               	movf	sprintf@width,w
  2324  0C0C  00AA               	movwf	___wmul@multiplicand
  2325  0C0D  160A  118A  2783  120A  158A  	fcall	___wmul
  2326  0C12  1283               	bcf	3,5	;RP0=0, select bank0
  2327  0C13  1303               	bcf	3,6	;RP1=0, select bank0
  2328  0C14  0829               	movf	?___wmul+1,w
  2329  0C15  00CE               	movwf	sprintf@width+1
  2330  0C16  0828               	movf	?___wmul,w
  2331  0C17  00CD               	movwf	sprintf@width
  2332  0C18                     l1951:
  2333                           
  2334                           ;C:\Program Files\Microchip\xc8\v2.20\pic\sources\c90\common\doprnt.c: 618:        width
      +                           += *f++ - '0';
  2335  0C18  0836               	movf	sprintf@f,w
  2336  0C19  0084               	movwf	4
  2337  0C1A  120A  158A  200A  120A  158A  	fcall	stringdir
  2338  0C1F  3ED0               	addlw	208
  2339  0C20  00C5               	movwf	??_sprintf
  2340  0C21  30FF               	movlw	255
  2341  0C22  1803               	skipnc
  2342  0C23  3000               	movlw	0
  2343  0C24  00C6               	movwf	??_sprintf+1
  2344  0C25  0845               	movf	??_sprintf,w
  2345  0C26  07CD               	addwf	sprintf@width,f
  2346  0C27  1803               	skipnc
  2347  0C28  0ACE               	incf	sprintf@width+1,f
  2348  0C29  0846               	movf	??_sprintf+1,w
  2349  0C2A  07CE               	addwf	sprintf@width+1,f
  2350  0C2B                     l1953:
  2351  0C2B  3001               	movlw	1
  2352  0C2C  00FF               	movwf	btemp+1
  2353  0C2D  087F               	movf	btemp+1,w
  2354  0C2E  07B6               	addwf	sprintf@f,f
  2355  0C2F                     l1955:
  2356                           
  2357                           ;C:\Program Files\Microchip\xc8\v2.20\pic\sources\c90\common\doprnt.c: 619:    } while(i
      +                          sdigit((unsigned)*f));
  2358  0C2F  0836               	movf	sprintf@f,w
  2359  0C30  0084               	movwf	4
  2360  0C31  120A  158A  200A  120A  158A  	fcall	stringdir
  2361  0C36  160A  118A  2740  120A  158A  	fcall	_isdigit
  2362  0C3B  1803               	btfsc	3,0
  2363  0C3C  2C3E               	goto	u2181
  2364  0C3D  2C3F               	goto	u2180
  2365  0C3E                     u2181:
  2366  0C3E  2C03               	goto	l1949
  2367  0C3F                     u2180:
  2368  0C3F                     l1959:
  2369  0C3F  3001               	movlw	1
  2370  0C40  1283               	bcf	3,5	;RP0=0, select bank0
  2371  0C41  1303               	bcf	3,6	;RP1=0, select bank0
  2372  0C42  07B6               	addwf	sprintf@f,f
  2373  0C43  30FF               	movlw	-1
  2374  0C44  0736               	addwf	sprintf@f,w
  2375  0C45  0084               	movwf	4
  2376  0C46  120A  158A  200A  120A  158A  	fcall	stringdir
  2377  0C4B  00CF               	movwf	sprintf@c
  2378  0C4C  00C5               	movwf	??_sprintf
  2379  0C4D  01C6               	clrf	??_sprintf+1
  2380                           
  2381                           ; Switch on 2 bytes has been partitioned into a top level switch of size 1, and 1 sub-sw
      +                          itches
  2382                           ; Switch size 1, requested type "simple"
  2383                           ; Number of cases is 1, Range of values is 0 to 0
  2384                           ; switch strategies available:
  2385                           ; Name         Instructions Cycles
  2386                           ; simple_byte            4     3 (average)
  2387                           ; direct_byte           11     8 (fixed)
  2388                           ; jumptable            260     6 (fixed)
  2389                           ;	Chosen strategy is simple_byte
  2390  0C4E  0846               	movf	??_sprintf+1,w
  2391  0C4F  3A00               	xorlw	0	; case 0
  2392  0C50  1903               	skipnz
  2393  0C51  2C53               	goto	l2917
  2394  0C52  2D4F               	goto	l2019
  2395  0C53                     l2917:
  2396                           
  2397                           ; Switch size 1, requested type "simple"
  2398                           ; Number of cases is 3, Range of values is 0 to 105
  2399                           ; switch strategies available:
  2400                           ; Name         Instructions Cycles
  2401                           ; simple_byte           10     6 (average)
  2402                           ; jumptable            260     6 (fixed)
  2403                           ;	Chosen strategy is simple_byte
  2404  0C53  0845               	movf	??_sprintf,w
  2405  0C54  3A00               	xorlw	0	; case 0
  2406  0C55  1903               	skipnz
  2407  0C56  2D61               	goto	l2021
  2408  0C57  3A64               	xorlw	100	; case 100
  2409  0C58  1903               	skipnz
  2410  0C59  2C5E               	goto	l1961
  2411  0C5A  3A0D               	xorlw	13	; case 105
  2412  0C5B  1903               	skipnz
  2413  0C5C  2C5E               	goto	l1961
  2414  0C5D  2D4F               	goto	l2019
  2415  0C5E                     l1961:
  2416                           
  2417                           ;C:\Program Files\Microchip\xc8\v2.20\pic\sources\c90\common\doprnt.c: 1279:   {;C:\Prog
      +                          ram Files\Microchip\xc8\v2.20\pic\sources\c90\common\doprnt.c: 1285:     val = (unsigned
      +                           int)(*(int *)__va_arg((*(int **)ap), (int)0));
  2418  0C5E  0848               	movf	sprintf@ap,w
  2419  0C5F  0084               	movwf	4
  2420  0C60  1383               	bcf	3,7	;select IRP bank0
  2421  0C61  0800               	movf	0,w
  2422  0C62  00CB               	movwf	sprintf@val
  2423  0C63  0A84               	incf	4,f
  2424  0C64  0800               	movf	0,w
  2425  0C65  00CC               	movwf	sprintf@val+1
  2426  0C66                     l1963:
  2427  0C66  3002               	movlw	2
  2428  0C67  00FF               	movwf	btemp+1
  2429  0C68  087F               	movf	btemp+1,w
  2430  0C69  07C8               	addwf	sprintf@ap,f
  2431  0C6A                     l1965:
  2432                           
  2433                           ;C:\Program Files\Microchip\xc8\v2.20\pic\sources\c90\common\doprnt.c: 1287:    if((int)
      +                          val < 0) {
  2434  0C6A  1FCC               	btfss	sprintf@val+1,7
  2435  0C6B  2C6D               	goto	u2191
  2436  0C6C  2C6E               	goto	u2190
  2437  0C6D                     u2191:
  2438  0C6D  2C77               	goto	l1971
  2439  0C6E                     u2190:
  2440  0C6E                     l1967:
  2441                           
  2442                           ;C:\Program Files\Microchip\xc8\v2.20\pic\sources\c90\common\doprnt.c: 1288:     flag |=
      +                           0x03;
  2443  0C6E  3003               	movlw	3
  2444  0C6F  00FF               	movwf	btemp+1
  2445  0C70  087F               	movf	btemp+1,w
  2446  0C71  04CA               	iorwf	sprintf@flag,f
  2447  0C72                     l1969:
  2448                           
  2449                           ;C:\Program Files\Microchip\xc8\v2.20\pic\sources\c90\common\doprnt.c: 1289:     val = -
      +                          val;
  2450  0C72  09CB               	comf	sprintf@val,f
  2451  0C73  09CC               	comf	sprintf@val+1,f
  2452  0C74  0ACB               	incf	sprintf@val,f
  2453  0C75  1903               	skipnz
  2454  0C76  0ACC               	incf	sprintf@val+1,f
  2455  0C77                     l1971:
  2456                           
  2457                           ;C:\Program Files\Microchip\xc8\v2.20\pic\sources\c90\common\doprnt.c: 1292:   };C:\Prog
      +                          ram Files\Microchip\xc8\v2.20\pic\sources\c90\common\doprnt.c: 1331:    for(c = 1 ; c !=
      +                           sizeof dpowers/sizeof dpowers[0] ; c++)
  2458  0C77  01CF               	clrf	sprintf@c
  2459  0C78  0ACF               	incf	sprintf@c,f
  2460  0C79                     l1977:
  2461                           
  2462                           ;C:\Program Files\Microchip\xc8\v2.20\pic\sources\c90\common\doprnt.c: 1332:     if(val 
      +                          < dpowers[c])
  2463  0C79  084F               	movf	sprintf@c,w
  2464  0C7A  00C5               	movwf	??_sprintf
  2465  0C7B  0745               	addwf	??_sprintf,w
  2466  0C7C  3E01               	addlw	low ((_dpowers-__stringbase)| (0+32768))
  2467  0C7D  0084               	movwf	4
  2468  0C7E  120A  158A  200A  120A  158A  	fcall	stringdir
  2469  0C83  00C6               	movwf	??_sprintf+1
  2470  0C84  120A  158A  200A  120A  158A  	fcall	stringdir
  2471  0C89  00C7               	movwf	??_sprintf+2
  2472  0C8A  0847               	movf	??_sprintf+2,w
  2473  0C8B  024C               	subwf	sprintf@val+1,w
  2474  0C8C  1D03               	skipz
  2475  0C8D  2C90               	goto	u2205
  2476  0C8E  0846               	movf	??_sprintf+1,w
  2477  0C8F  024B               	subwf	sprintf@val,w
  2478  0C90                     u2205:
  2479  0C90  1803               	skipnc
  2480  0C91  2C93               	goto	u2201
  2481  0C92  2C94               	goto	u2200
  2482  0C93                     u2201:
  2483  0C93  2C95               	goto	l1981
  2484  0C94                     u2200:
  2485  0C94  2C9F               	goto	l1985
  2486  0C95                     l1981:
  2487  0C95  3001               	movlw	1
  2488  0C96  00FF               	movwf	btemp+1
  2489  0C97  087F               	movf	btemp+1,w
  2490  0C98  07CF               	addwf	sprintf@c,f
  2491  0C99                     l1983:
  2492  0C99  3005               	movlw	5
  2493  0C9A  064F               	xorwf	sprintf@c,w
  2494  0C9B  1D03               	btfss	3,2
  2495  0C9C  2C9E               	goto	u2211
  2496  0C9D  2C9F               	goto	u2210
  2497  0C9E                     u2211:
  2498  0C9E  2C79               	goto	l1977
  2499  0C9F                     u2210:
  2500  0C9F                     l1985:
  2501                           
  2502                           ;C:\Program Files\Microchip\xc8\v2.20\pic\sources\c90\common\doprnt.c: 1371:   if(width 
      +                          && flag & 0x03)
  2503  0C9F  084D               	movf	sprintf@width,w
  2504  0CA0  044E               	iorwf	sprintf@width+1,w
  2505  0CA1  1903               	btfsc	3,2
  2506  0CA2  2CA4               	goto	u2221
  2507  0CA3  2CA5               	goto	u2220
  2508  0CA4                     u2221:
  2509  0CA4  2CB1               	goto	l293
  2510  0CA5                     u2220:
  2511  0CA5                     l1987:
  2512  0CA5  084A               	movf	sprintf@flag,w
  2513  0CA6  3903               	andlw	3
  2514  0CA7  1903               	btfsc	3,2
  2515  0CA8  2CAA               	goto	u2231
  2516  0CA9  2CAB               	goto	u2230
  2517  0CAA                     u2231:
  2518  0CAA  2CB1               	goto	l293
  2519  0CAB                     u2230:
  2520  0CAB                     l1989:
  2521                           
  2522                           ;C:\Program Files\Microchip\xc8\v2.20\pic\sources\c90\common\doprnt.c: 1372:    width--;
  2523  0CAB  30FF               	movlw	255
  2524  0CAC  07CD               	addwf	sprintf@width,f
  2525  0CAD  1803               	skipnc
  2526  0CAE  0ACE               	incf	sprintf@width+1,f
  2527  0CAF  30FF               	movlw	255
  2528  0CB0  07CE               	addwf	sprintf@width+1,f
  2529  0CB1                     l293:
  2530                           
  2531                           ;C:\Program Files\Microchip\xc8\v2.20\pic\sources\c90\common\doprnt.c: 1407:   if(width 
      +                          > c)
  2532  0CB1  084E               	movf	sprintf@width+1,w
  2533  0CB2  3A80               	xorlw	128
  2534  0CB3  3C80               	sublw	128
  2535  0CB4  1D03               	skipz
  2536  0CB5  2CB8               	goto	u2245
  2537  0CB6  084D               	movf	sprintf@width,w
  2538  0CB7  024F               	subwf	sprintf@c,w
  2539  0CB8                     u2245:
  2540  0CB8  1803               	skipnc
  2541  0CB9  2CBB               	goto	u2241
  2542  0CBA  2CBC               	goto	u2240
  2543  0CBB                     u2241:
  2544  0CBB  2CC8               	goto	l1993
  2545  0CBC                     u2240:
  2546  0CBC                     l1991:
  2547                           
  2548                           ;C:\Program Files\Microchip\xc8\v2.20\pic\sources\c90\common\doprnt.c: 1408:    width -=
      +                           c;
  2549  0CBC  1283               	bcf	3,5	;RP0=0, select bank0
  2550  0CBD  1303               	bcf	3,6	;RP1=0, select bank0
  2551  0CBE  084F               	movf	sprintf@c,w
  2552  0CBF  00C5               	movwf	??_sprintf
  2553  0CC0  01C6               	clrf	??_sprintf+1
  2554  0CC1  0845               	movf	??_sprintf,w
  2555  0CC2  02CD               	subwf	sprintf@width,f
  2556  0CC3  0846               	movf	??_sprintf+1,w
  2557  0CC4  1C03               	skipc
  2558  0CC5  03CE               	decf	sprintf@width+1,f
  2559  0CC6  02CE               	subwf	sprintf@width+1,f
  2560  0CC7  2CCC               	goto	l1995
  2561  0CC8                     l1993:
  2562                           
  2563                           ;C:\Program Files\Microchip\xc8\v2.20\pic\sources\c90\common\doprnt.c: 1410:    width = 
      +                          0;
  2564  0CC8  1283               	bcf	3,5	;RP0=0, select bank0
  2565  0CC9  1303               	bcf	3,6	;RP1=0, select bank0
  2566  0CCA  01CD               	clrf	sprintf@width
  2567  0CCB  01CE               	clrf	sprintf@width+1
  2568  0CCC                     l1995:
  2569                           
  2570                           ;C:\Program Files\Microchip\xc8\v2.20\pic\sources\c90\common\doprnt.c: 1448:   {;C:\Prog
      +                          ram Files\Microchip\xc8\v2.20\pic\sources\c90\common\doprnt.c: 1450:    if(width
  2571  0CCC  084D               	movf	sprintf@width,w
  2572  0CCD  044E               	iorwf	sprintf@width+1,w
  2573  0CCE  1903               	btfsc	3,2
  2574  0CCF  2CD1               	goto	u2251
  2575  0CD0  2CD2               	goto	u2250
  2576  0CD1                     u2251:
  2577  0CD1  2CED               	goto	l2003
  2578  0CD2                     u2250:
  2579  0CD2                     l1997:
  2580                           
  2581                           ;C:\Program Files\Microchip\xc8\v2.20\pic\sources\c90\common\doprnt.c: 1456:      ((*sp+
      +                          + = (' ')));
  2582  0CD2  3020               	movlw	32
  2583  0CD3  00FF               	movwf	btemp+1
  2584  0CD4  0834               	movf	sprintf@sp,w
  2585  0CD5  0084               	movwf	4
  2586  0CD6  1783               	bsf	3,7
  2587  0CD7  1C35               	btfss	sprintf@sp+1,0
  2588  0CD8  1383               	bcf	3,7
  2589  0CD9  087F               	movf	btemp+1,w
  2590  0CDA  0080               	movwf	0
  2591  0CDB                     l1999:
  2592  0CDB  3001               	movlw	1
  2593  0CDC  07B4               	addwf	sprintf@sp,f
  2594  0CDD  1803               	skipnc
  2595  0CDE  0AB5               	incf	sprintf@sp+1,f
  2596  0CDF  3000               	movlw	0
  2597  0CE0  07B5               	addwf	sprintf@sp+1,f
  2598  0CE1                     l2001:
  2599  0CE1  30FF               	movlw	255
  2600  0CE2  07CD               	addwf	sprintf@width,f
  2601  0CE3  1803               	skipnc
  2602  0CE4  0ACE               	incf	sprintf@width+1,f
  2603  0CE5  30FF               	movlw	255
  2604  0CE6  07CE               	addwf	sprintf@width+1,f
  2605  0CE7  084D               	movf	sprintf@width,w
  2606  0CE8  044E               	iorwf	sprintf@width+1,w
  2607  0CE9  1D03               	btfss	3,2
  2608  0CEA  2CEC               	goto	u2261
  2609  0CEB  2CED               	goto	u2260
  2610  0CEC                     u2261:
  2611  0CEC  2CD2               	goto	l1997
  2612  0CED                     u2260:
  2613  0CED                     l2003:
  2614                           
  2615                           ;C:\Program Files\Microchip\xc8\v2.20\pic\sources\c90\common\doprnt.c: 1464:    if(flag 
      +                          & 0x03)
  2616  0CED  084A               	movf	sprintf@flag,w
  2617  0CEE  3903               	andlw	3
  2618  0CEF  1903               	btfsc	3,2
  2619  0CF0  2CF2               	goto	u2271
  2620  0CF1  2CF3               	goto	u2270
  2621  0CF2                     u2271:
  2622  0CF2  2D02               	goto	l2009
  2623  0CF3                     u2270:
  2624  0CF3                     l2005:
  2625                           
  2626                           ;C:\Program Files\Microchip\xc8\v2.20\pic\sources\c90\common\doprnt.c: 1465:     ((*sp++
      +                           = ('-')));
  2627  0CF3  302D               	movlw	45
  2628  0CF4  00FF               	movwf	btemp+1
  2629  0CF5  0834               	movf	sprintf@sp,w
  2630  0CF6  0084               	movwf	4
  2631  0CF7  1783               	bsf	3,7
  2632  0CF8  1C35               	btfss	sprintf@sp+1,0
  2633  0CF9  1383               	bcf	3,7
  2634  0CFA  087F               	movf	btemp+1,w
  2635  0CFB  0080               	movwf	0
  2636  0CFC                     l2007:
  2637  0CFC  3001               	movlw	1
  2638  0CFD  07B4               	addwf	sprintf@sp,f
  2639  0CFE  1803               	skipnc
  2640  0CFF  0AB5               	incf	sprintf@sp+1,f
  2641  0D00  3000               	movlw	0
  2642  0D01  07B5               	addwf	sprintf@sp+1,f
  2643  0D02                     l2009:
  2644                           
  2645                           ;C:\Program Files\Microchip\xc8\v2.20\pic\sources\c90\common\doprnt.c: 1495:   };C:\Prog
      +                          ram Files\Microchip\xc8\v2.20\pic\sources\c90\common\doprnt.c: 1498:   prec = c;
  2646  0D02  084F               	movf	sprintf@c,w
  2647  0D03  00FF               	movwf	btemp+1
  2648  0D04  087F               	movf	btemp+1,w
  2649  0D05  00C9               	movwf	sprintf@prec
  2650                           
  2651                           ;C:\Program Files\Microchip\xc8\v2.20\pic\sources\c90\common\doprnt.c: 1500:   while(pre
      +                          c--) {
  2652  0D06  2D46               	goto	l2017
  2653  0D07                     l2011:
  2654                           
  2655                           ;C:\Program Files\Microchip\xc8\v2.20\pic\sources\c90\common\doprnt.c: 1504:    {;C:\Pro
      +                          gram Files\Microchip\xc8\v2.20\pic\sources\c90\common\doprnt.c: 1515:     c = (val / dpo
      +                          wers[(unsigned char)prec]) % 10 + '0';
  2656  0D07  300A               	movlw	10
  2657  0D08  00AF               	movwf	___lwmod@divisor
  2658  0D09  3000               	movlw	0
  2659  0D0A  00B0               	movwf	___lwmod@divisor+1
  2660  0D0B  0849               	movf	sprintf@prec,w
  2661  0D0C  00C5               	movwf	??_sprintf
  2662  0D0D  0745               	addwf	??_sprintf,w
  2663  0D0E  3E01               	addlw	low ((_dpowers-__stringbase)| (0+32768))
  2664  0D0F  0084               	movwf	4
  2665  0D10  120A  158A  200A  120A  158A  	fcall	stringdir
  2666  0D15  00A8               	movwf	___lwdiv@divisor
  2667  0D16  120A  158A  200A  120A  158A  	fcall	stringdir
  2668  0D1B  00A9               	movwf	___lwdiv@divisor+1
  2669  0D1C  084C               	movf	sprintf@val+1,w
  2670  0D1D  00AB               	movwf	___lwdiv@dividend+1
  2671  0D1E  084B               	movf	sprintf@val,w
  2672  0D1F  00AA               	movwf	___lwdiv@dividend
  2673  0D20  120A  158A  2100  120A  158A  	fcall	___lwdiv
  2674  0D25  1283               	bcf	3,5	;RP0=0, select bank0
  2675  0D26  1303               	bcf	3,6	;RP1=0, select bank0
  2676  0D27  0829               	movf	?___lwdiv+1,w
  2677  0D28  00B2               	movwf	___lwmod@dividend+1
  2678  0D29  0828               	movf	?___lwdiv,w
  2679  0D2A  00B1               	movwf	___lwmod@dividend
  2680  0D2B  120A  158A  20C4  120A  158A  	fcall	___lwmod
  2681  0D30  1283               	bcf	3,5	;RP0=0, select bank0
  2682  0D31  1303               	bcf	3,6	;RP1=0, select bank0
  2683  0D32  082F               	movf	?___lwmod,w
  2684  0D33  3E30               	addlw	48
  2685  0D34  00FF               	movwf	btemp+1
  2686  0D35  087F               	movf	btemp+1,w
  2687  0D36  00CF               	movwf	sprintf@c
  2688  0D37                     l2013:
  2689                           
  2690                           ;C:\Program Files\Microchip\xc8\v2.20\pic\sources\c90\common\doprnt.c: 1549:    };C:\Pro
      +                          gram Files\Microchip\xc8\v2.20\pic\sources\c90\common\doprnt.c: 1550:    ((*sp++ = (c)))
      +                          ;
  2691  0D37  084F               	movf	sprintf@c,w
  2692  0D38  00FF               	movwf	btemp+1
  2693  0D39  0834               	movf	sprintf@sp,w
  2694  0D3A  0084               	movwf	4
  2695  0D3B  1783               	bsf	3,7
  2696  0D3C  1C35               	btfss	sprintf@sp+1,0
  2697  0D3D  1383               	bcf	3,7
  2698  0D3E  087F               	movf	btemp+1,w
  2699  0D3F  0080               	movwf	0
  2700  0D40                     l2015:
  2701  0D40  3001               	movlw	1
  2702  0D41  07B4               	addwf	sprintf@sp,f
  2703  0D42  1803               	skipnc
  2704  0D43  0AB5               	incf	sprintf@sp+1,f
  2705  0D44  3000               	movlw	0
  2706  0D45  07B5               	addwf	sprintf@sp+1,f
  2707  0D46                     l2017:
  2708                           
  2709                           ;C:\Program Files\Microchip\xc8\v2.20\pic\sources\c90\common\doprnt.c: 1500:   while(pre
      +                          c--) {
  2710  0D46  30FF               	movlw	255
  2711  0D47  00FF               	movwf	btemp+1
  2712  0D48  087F               	movf	btemp+1,w
  2713  0D49  07C9               	addwf	sprintf@prec,f
  2714  0D4A  0A49               	incf	sprintf@prec,w
  2715  0D4B  1D03               	btfss	3,2
  2716  0D4C  2D4E               	goto	u2281
  2717  0D4D  2D4F               	goto	u2280
  2718  0D4E                     u2281:
  2719  0D4E  2D07               	goto	l2011
  2720  0D4F                     u2280:
  2721  0D4F                     l2019:
  2722                           
  2723                           ;C:\Program Files\Microchip\xc8\v2.20\pic\sources\c90\common\doprnt.c: 553:  while((c = 
      +                          *f++)) {
  2724  0D4F  3001               	movlw	1
  2725  0D50  07B6               	addwf	sprintf@f,f
  2726  0D51  30FF               	movlw	-1
  2727  0D52  0736               	addwf	sprintf@f,w
  2728  0D53  0084               	movwf	4
  2729  0D54  120A  158A  200A  120A  158A  	fcall	stringdir
  2730  0D59  00FF               	movwf	btemp+1
  2731  0D5A  087F               	movf	btemp+1,w
  2732  0D5B  00CF               	movwf	sprintf@c
  2733  0D5C  084F               	movf	sprintf@c,w
  2734  0D5D  1D03               	btfss	3,2
  2735  0D5E  2D60               	goto	u2291
  2736  0D5F  2D61               	goto	u2290
  2737  0D60                     u2291:
  2738  0D60  2BD6               	goto	l1937
  2739  0D61                     u2290:
  2740  0D61                     l2021:
  2741                           
  2742                           ;C:\Program Files\Microchip\xc8\v2.20\pic\sources\c90\common\doprnt.c: 1564:  *sp = 0;
  2743  0D61  0834               	movf	sprintf@sp,w
  2744  0D62  0084               	movwf	4
  2745  0D63  1783               	bsf	3,7
  2746  0D64  1C35               	btfss	sprintf@sp+1,0
  2747  0D65  1383               	bcf	3,7
  2748  0D66  0180               	clrf	0
  2749  0D67                     l304:
  2750  0D67  0008               	return
  2751  0D68                     __end_of_sprintf:
  2752                           
  2753                           	psect	text2
  2754  1740                     __ptext2:	
  2755 ;; *************** function _isdigit *****************
  2756 ;; Defined at:
  2757 ;;		line 8 in file "C:\Program Files\Microchip\xc8\v2.20\pic\sources\c90\common\isdigit.c"
  2758 ;; Parameters:    Size  Location     Type
  2759 ;;  c               1    wreg     unsigned char 
  2760 ;; Auto vars:     Size  Location     Type
  2761 ;;  c               1    9[BANK0 ] unsigned char 
  2762 ;; Return value:  Size  Location     Type
  2763 ;;		None               void
  2764 ;; Registers used:
  2765 ;;		wreg, status,2, status,0
  2766 ;; Tracked objects:
  2767 ;;		On entry : 0/0
  2768 ;;		On exit  : 0/0
  2769 ;;		Unchanged: 0/0
  2770 ;; Data sizes:     COMMON   BANK0   BANK1   BANK3   BANK2
  2771 ;;      Params:         0       0       0       0       0
  2772 ;;      Locals:         0       2       0       0       0
  2773 ;;      Temps:          0       0       0       0       0
  2774 ;;      Totals:         0       2       0       0       0
  2775 ;;Total ram usage:        2 bytes
  2776 ;; Hardware stack levels used:    1
  2777 ;; Hardware stack levels required when called:    2
  2778 ;; This function calls:
  2779 ;;		Nothing
  2780 ;; This function is called by:
  2781 ;;		_sprintf
  2782 ;; This function uses a non-reentrant model
  2783 ;;
  2784                           
  2785                           
  2786                           ;psect for function _isdigit
  2787  1740                     _isdigit:
  2788                           
  2789                           ;incstack = 0
  2790                           ; Regs used in _isdigit: [wreg+status,2+status,0]
  2791                           ;isdigit@c stored from wreg
  2792  1740  1283               	bcf	3,5	;RP0=0, select bank0
  2793  1741  1303               	bcf	3,6	;RP1=0, select bank0
  2794  1742  00A9               	movwf	isdigit@c
  2795  1743                     l1743:
  2796  1743  01A8               	clrf	_isdigit$787
  2797  1744                     l1745:
  2798  1744  303A               	movlw	58
  2799  1745  0229               	subwf	isdigit@c,w
  2800  1746  1803               	skipnc
  2801  1747  2F49               	goto	u1771
  2802  1748  2F4A               	goto	u1770
  2803  1749                     u1771:
  2804  1749  2F52               	goto	l1751
  2805  174A                     u1770:
  2806  174A                     l1747:
  2807  174A  3030               	movlw	48
  2808  174B  0229               	subwf	isdigit@c,w
  2809  174C  1C03               	skipc
  2810  174D  2F4F               	goto	u1781
  2811  174E  2F50               	goto	u1780
  2812  174F                     u1781:
  2813  174F  2F52               	goto	l1751
  2814  1750                     u1780:
  2815  1750                     l1749:
  2816  1750  01A8               	clrf	_isdigit$787
  2817  1751  0AA8               	incf	_isdigit$787,f
  2818  1752                     l1751:
  2819  1752  0C28               	rrf	_isdigit$787,w
  2820  1753                     l761:
  2821  1753  0008               	return
  2822  1754                     __end_of_isdigit:
  2823                           
  2824                           	psect	text3
  2825  1783                     __ptext3:	
  2826 ;; *************** function ___wmul *****************
  2827 ;; Defined at:
  2828 ;;		line 15 in file "C:\Program Files\Microchip\xc8\v2.20\pic\sources\c90\common\Umul16.c"
  2829 ;; Parameters:    Size  Location     Type
  2830 ;;  multiplier      2    8[BANK0 ] unsigned int 
  2831 ;;  multiplicand    2   10[BANK0 ] unsigned int 
  2832 ;; Auto vars:     Size  Location     Type
  2833 ;;  product         2   12[BANK0 ] unsigned int 
  2834 ;; Return value:  Size  Location     Type
  2835 ;;                  2    8[BANK0 ] unsigned int 
  2836 ;; Registers used:
  2837 ;;		wreg, status,2, status,0
  2838 ;; Tracked objects:
  2839 ;;		On entry : 0/0
  2840 ;;		On exit  : 0/0
  2841 ;;		Unchanged: 0/0
  2842 ;; Data sizes:     COMMON   BANK0   BANK1   BANK3   BANK2
  2843 ;;      Params:         0       4       0       0       0
  2844 ;;      Locals:         0       2       0       0       0
  2845 ;;      Temps:          0       0       0       0       0
  2846 ;;      Totals:         0       6       0       0       0
  2847 ;;Total ram usage:        6 bytes
  2848 ;; Hardware stack levels used:    1
  2849 ;; Hardware stack levels required when called:    2
  2850 ;; This function calls:
  2851 ;;		Nothing
  2852 ;; This function is called by:
  2853 ;;		_sprintf
  2854 ;; This function uses a non-reentrant model
  2855 ;;
  2856                           
  2857                           
  2858                           ;psect for function ___wmul
  2859  1783                     ___wmul:
  2860  1783                     l1755:	
  2861                           ;incstack = 0
  2862                           ; Regs used in ___wmul: [wreg+status,2+status,0]
  2863                           
  2864  1783  1283               	bcf	3,5	;RP0=0, select bank0
  2865  1784  1303               	bcf	3,6	;RP1=0, select bank0
  2866  1785  01AC               	clrf	___wmul@product
  2867  1786  01AD               	clrf	___wmul@product+1
  2868  1787                     l1757:
  2869  1787  1C28               	btfss	___wmul@multiplier,0
  2870  1788  2F8A               	goto	u1791
  2871  1789  2F8B               	goto	u1790
  2872  178A                     u1791:
  2873  178A  2F91               	goto	l308
  2874  178B                     u1790:
  2875  178B                     l1759:
  2876  178B  082A               	movf	___wmul@multiplicand,w
  2877  178C  07AC               	addwf	___wmul@product,f
  2878  178D  1803               	skipnc
  2879  178E  0AAD               	incf	___wmul@product+1,f
  2880  178F  082B               	movf	___wmul@multiplicand+1,w
  2881  1790  07AD               	addwf	___wmul@product+1,f
  2882  1791                     l308:
  2883  1791  3001               	movlw	1
  2884  1792                     u1805:
  2885  1792  1003               	clrc
  2886  1793  0DAA               	rlf	___wmul@multiplicand,f
  2887  1794  0DAB               	rlf	___wmul@multiplicand+1,f
  2888  1795  3EFF               	addlw	-1
  2889  1796  1D03               	skipz
  2890  1797  2F92               	goto	u1805
  2891  1798                     l1761:
  2892  1798  3001               	movlw	1
  2893  1799                     u1815:
  2894  1799  1003               	clrc
  2895  179A  0CA9               	rrf	___wmul@multiplier+1,f
  2896  179B  0CA8               	rrf	___wmul@multiplier,f
  2897  179C  3EFF               	addlw	-1
  2898  179D  1D03               	skipz
  2899  179E  2F99               	goto	u1815
  2900  179F                     l1763:
  2901  179F  0828               	movf	___wmul@multiplier,w
  2902  17A0  0429               	iorwf	___wmul@multiplier+1,w
  2903  17A1  1D03               	btfss	3,2
  2904  17A2  2FA4               	goto	u1821
  2905  17A3  2FA5               	goto	u1820
  2906  17A4                     u1821:
  2907  17A4  2F87               	goto	l1757
  2908  17A5                     u1820:
  2909  17A5                     l1765:
  2910  17A5  082D               	movf	___wmul@product+1,w
  2911  17A6  00A9               	movwf	?___wmul+1
  2912  17A7  082C               	movf	___wmul@product,w
  2913  17A8  00A8               	movwf	?___wmul
  2914  17A9                     l310:
  2915  17A9  0008               	return
  2916  17AA                     __end_of___wmul:
  2917                           
  2918                           	psect	text4
  2919  08C4                     __ptext4:	
  2920 ;; *************** function ___lwmod *****************
  2921 ;; Defined at:
  2922 ;;		line 5 in file "C:\Program Files\Microchip\xc8\v2.20\pic\sources\c90\common\lwmod.c"
  2923 ;; Parameters:    Size  Location     Type
  2924 ;;  divisor         2   15[BANK0 ] unsigned int 
  2925 ;;  dividend        2   17[BANK0 ] unsigned int 
  2926 ;; Auto vars:     Size  Location     Type
  2927 ;;  counter         1   19[BANK0 ] unsigned char 
  2928 ;; Return value:  Size  Location     Type
  2929 ;;                  2   15[BANK0 ] unsigned int 
  2930 ;; Registers used:
  2931 ;;		wreg, status,2, status,0, btemp+1
  2932 ;; Tracked objects:
  2933 ;;		On entry : 0/0
  2934 ;;		On exit  : 0/0
  2935 ;;		Unchanged: 0/0
  2936 ;; Data sizes:     COMMON   BANK0   BANK1   BANK3   BANK2
  2937 ;;      Params:         0       4       0       0       0
  2938 ;;      Locals:         0       1       0       0       0
  2939 ;;      Temps:          0       0       0       0       0
  2940 ;;      Totals:         0       5       0       0       0
  2941 ;;Total ram usage:        5 bytes
  2942 ;; Hardware stack levels used:    1
  2943 ;; Hardware stack levels required when called:    2
  2944 ;; This function calls:
  2945 ;;		Nothing
  2946 ;; This function is called by:
  2947 ;;		_sprintf
  2948 ;; This function uses a non-reentrant model
  2949 ;;
  2950                           
  2951                           
  2952                           ;psect for function ___lwmod
  2953  08C4                     ___lwmod:
  2954  08C4                     l1837:	
  2955                           ;incstack = 0
  2956                           ; Regs used in ___lwmod: [wreg+status,2+status,0+btemp+1]
  2957                           
  2958  08C4  1283               	bcf	3,5	;RP0=0, select bank0
  2959  08C5  1303               	bcf	3,6	;RP1=0, select bank0
  2960  08C6  082F               	movf	___lwmod@divisor,w
  2961  08C7  0430               	iorwf	___lwmod@divisor+1,w
  2962  08C8  1903               	btfsc	3,2
  2963  08C9  28CB               	goto	u2001
  2964  08CA  28CC               	goto	u2000
  2965  08CB                     u2001:
  2966  08CB  28FB               	goto	l1855
  2967  08CC                     u2000:
  2968  08CC                     l1839:
  2969  08CC  01B3               	clrf	___lwmod@counter
  2970  08CD  0AB3               	incf	___lwmod@counter,f
  2971  08CE  28DA               	goto	l1845
  2972  08CF                     l1841:
  2973  08CF  3001               	movlw	1
  2974  08D0                     u2015:
  2975  08D0  1003               	clrc
  2976  08D1  0DAF               	rlf	___lwmod@divisor,f
  2977  08D2  0DB0               	rlf	___lwmod@divisor+1,f
  2978  08D3  3EFF               	addlw	-1
  2979  08D4  1D03               	skipz
  2980  08D5  28D0               	goto	u2015
  2981  08D6                     l1843:
  2982  08D6  3001               	movlw	1
  2983  08D7  00FF               	movwf	btemp+1
  2984  08D8  087F               	movf	btemp+1,w
  2985  08D9  07B3               	addwf	___lwmod@counter,f
  2986  08DA                     l1845:
  2987  08DA  1FB0               	btfss	___lwmod@divisor+1,7
  2988  08DB  28DD               	goto	u2021
  2989  08DC  28DE               	goto	u2020
  2990  08DD                     u2021:
  2991  08DD  28CF               	goto	l1841
  2992  08DE                     u2020:
  2993  08DE                     l1847:
  2994  08DE  0830               	movf	___lwmod@divisor+1,w
  2995  08DF  0232               	subwf	___lwmod@dividend+1,w
  2996  08E0  1D03               	skipz
  2997  08E1  28E4               	goto	u2035
  2998  08E2  082F               	movf	___lwmod@divisor,w
  2999  08E3  0231               	subwf	___lwmod@dividend,w
  3000  08E4                     u2035:
  3001  08E4  1C03               	skipc
  3002  08E5  28E7               	goto	u2031
  3003  08E6  28E8               	goto	u2030
  3004  08E7                     u2031:
  3005  08E7  28EE               	goto	l1851
  3006  08E8                     u2030:
  3007  08E8                     l1849:
  3008  08E8  082F               	movf	___lwmod@divisor,w
  3009  08E9  02B1               	subwf	___lwmod@dividend,f
  3010  08EA  0830               	movf	___lwmod@divisor+1,w
  3011  08EB  1C03               	skipc
  3012  08EC  03B2               	decf	___lwmod@dividend+1,f
  3013  08ED  02B2               	subwf	___lwmod@dividend+1,f
  3014  08EE                     l1851:
  3015  08EE  3001               	movlw	1
  3016  08EF                     u2045:
  3017  08EF  1003               	clrc
  3018  08F0  0CB0               	rrf	___lwmod@divisor+1,f
  3019  08F1  0CAF               	rrf	___lwmod@divisor,f
  3020  08F2  3EFF               	addlw	-1
  3021  08F3  1D03               	skipz
  3022  08F4  28EF               	goto	u2045
  3023  08F5                     l1853:
  3024  08F5  3001               	movlw	1
  3025  08F6  02B3               	subwf	___lwmod@counter,f
  3026  08F7  1D03               	btfss	3,2
  3027  08F8  28FA               	goto	u2051
  3028  08F9  28FB               	goto	u2050
  3029  08FA                     u2051:
  3030  08FA  28DE               	goto	l1847
  3031  08FB                     u2050:
  3032  08FB                     l1855:
  3033  08FB  0832               	movf	___lwmod@dividend+1,w
  3034  08FC  00B0               	movwf	?___lwmod+1
  3035  08FD  0831               	movf	___lwmod@dividend,w
  3036  08FE  00AF               	movwf	?___lwmod
  3037  08FF                     l590:
  3038  08FF  0008               	return
  3039  0900                     __end_of___lwmod:
  3040                           
  3041                           	psect	text5
  3042  0900                     __ptext5:	
  3043 ;; *************** function ___lwdiv *****************
  3044 ;; Defined at:
  3045 ;;		line 5 in file "C:\Program Files\Microchip\xc8\v2.20\pic\sources\c90\common\lwdiv.c"
  3046 ;; Parameters:    Size  Location     Type
  3047 ;;  divisor         2    8[BANK0 ] unsigned int 
  3048 ;;  dividend        2   10[BANK0 ] unsigned int 
  3049 ;; Auto vars:     Size  Location     Type
  3050 ;;  quotient        2   12[BANK0 ] unsigned int 
  3051 ;;  counter         1   14[BANK0 ] unsigned char 
  3052 ;; Return value:  Size  Location     Type
  3053 ;;                  2    8[BANK0 ] unsigned int 
  3054 ;; Registers used:
  3055 ;;		wreg, status,2, status,0, btemp+1
  3056 ;; Tracked objects:
  3057 ;;		On entry : 0/0
  3058 ;;		On exit  : 0/0
  3059 ;;		Unchanged: 0/0
  3060 ;; Data sizes:     COMMON   BANK0   BANK1   BANK3   BANK2
  3061 ;;      Params:         0       4       0       0       0
  3062 ;;      Locals:         0       3       0       0       0
  3063 ;;      Temps:          0       0       0       0       0
  3064 ;;      Totals:         0       7       0       0       0
  3065 ;;Total ram usage:        7 bytes
  3066 ;; Hardware stack levels used:    1
  3067 ;; Hardware stack levels required when called:    2
  3068 ;; This function calls:
  3069 ;;		Nothing
  3070 ;; This function is called by:
  3071 ;;		_sprintf
  3072 ;; This function uses a non-reentrant model
  3073 ;;
  3074                           
  3075                           
  3076                           ;psect for function ___lwdiv
  3077  0900                     ___lwdiv:
  3078  0900                     l1811:	
  3079                           ;incstack = 0
  3080                           ; Regs used in ___lwdiv: [wreg+status,2+status,0+btemp+1]
  3081                           
  3082  0900  1283               	bcf	3,5	;RP0=0, select bank0
  3083  0901  1303               	bcf	3,6	;RP1=0, select bank0
  3084  0902  01AC               	clrf	___lwdiv@quotient
  3085  0903  01AD               	clrf	___lwdiv@quotient+1
  3086  0904                     l1813:
  3087  0904  0828               	movf	___lwdiv@divisor,w
  3088  0905  0429               	iorwf	___lwdiv@divisor+1,w
  3089  0906  1903               	btfsc	3,2
  3090  0907  2909               	goto	u1931
  3091  0908  290A               	goto	u1930
  3092  0909                     u1931:
  3093  0909  2941               	goto	l1833
  3094  090A                     u1930:
  3095  090A                     l1815:
  3096  090A  01AE               	clrf	___lwdiv@counter
  3097  090B  0AAE               	incf	___lwdiv@counter,f
  3098  090C  2918               	goto	l1821
  3099  090D                     l1817:
  3100  090D  3001               	movlw	1
  3101  090E                     u1945:
  3102  090E  1003               	clrc
  3103  090F  0DA8               	rlf	___lwdiv@divisor,f
  3104  0910  0DA9               	rlf	___lwdiv@divisor+1,f
  3105  0911  3EFF               	addlw	-1
  3106  0912  1D03               	skipz
  3107  0913  290E               	goto	u1945
  3108  0914                     l1819:
  3109  0914  3001               	movlw	1
  3110  0915  00FF               	movwf	btemp+1
  3111  0916  087F               	movf	btemp+1,w
  3112  0917  07AE               	addwf	___lwdiv@counter,f
  3113  0918                     l1821:
  3114  0918  1FA9               	btfss	___lwdiv@divisor+1,7
  3115  0919  291B               	goto	u1951
  3116  091A  291C               	goto	u1950
  3117  091B                     u1951:
  3118  091B  290D               	goto	l1817
  3119  091C                     u1950:
  3120  091C                     l1823:
  3121  091C  3001               	movlw	1
  3122  091D                     u1965:
  3123  091D  1003               	clrc
  3124  091E  0DAC               	rlf	___lwdiv@quotient,f
  3125  091F  0DAD               	rlf	___lwdiv@quotient+1,f
  3126  0920  3EFF               	addlw	-1
  3127  0921  1D03               	skipz
  3128  0922  291D               	goto	u1965
  3129  0923  0829               	movf	___lwdiv@divisor+1,w
  3130  0924  022B               	subwf	___lwdiv@dividend+1,w
  3131  0925  1D03               	skipz
  3132  0926  2929               	goto	u1975
  3133  0927  0828               	movf	___lwdiv@divisor,w
  3134  0928  022A               	subwf	___lwdiv@dividend,w
  3135  0929                     u1975:
  3136  0929  1C03               	skipc
  3137  092A  292C               	goto	u1971
  3138  092B  292D               	goto	u1970
  3139  092C                     u1971:
  3140  092C  2934               	goto	l1829
  3141  092D                     u1970:
  3142  092D                     l1825:
  3143  092D  0828               	movf	___lwdiv@divisor,w
  3144  092E  02AA               	subwf	___lwdiv@dividend,f
  3145  092F  0829               	movf	___lwdiv@divisor+1,w
  3146  0930  1C03               	skipc
  3147  0931  03AB               	decf	___lwdiv@dividend+1,f
  3148  0932  02AB               	subwf	___lwdiv@dividend+1,f
  3149  0933                     l1827:
  3150  0933  142C               	bsf	___lwdiv@quotient,0
  3151  0934                     l1829:
  3152  0934  3001               	movlw	1
  3153  0935                     u1985:
  3154  0935  1003               	clrc
  3155  0936  0CA9               	rrf	___lwdiv@divisor+1,f
  3156  0937  0CA8               	rrf	___lwdiv@divisor,f
  3157  0938  3EFF               	addlw	-1
  3158  0939  1D03               	skipz
  3159  093A  2935               	goto	u1985
  3160  093B                     l1831:
  3161  093B  3001               	movlw	1
  3162  093C  02AE               	subwf	___lwdiv@counter,f
  3163  093D  1D03               	btfss	3,2
  3164  093E  2940               	goto	u1991
  3165  093F  2941               	goto	u1990
  3166  0940                     u1991:
  3167  0940  291C               	goto	l1823
  3168  0941                     u1990:
  3169  0941                     l1833:
  3170  0941  082D               	movf	___lwdiv@quotient+1,w
  3171  0942  00A9               	movwf	?___lwdiv+1
  3172  0943  082C               	movf	___lwdiv@quotient,w
  3173  0944  00A8               	movwf	?___lwdiv
  3174  0945                     l580:
  3175  0945  0008               	return
  3176  0946                     __end_of___lwdiv:
  3177                           
  3178                           	psect	text6
  3179  0850                     __ptext6:	
  3180 ;; *************** function _setup *****************
  3181 ;; Defined at:
  3182 ;;		line 11 in file "CONFIG.c"
  3183 ;; Parameters:    Size  Location     Type
  3184 ;;		None
  3185 ;; Auto vars:     Size  Location     Type
  3186 ;;		None
  3187 ;; Return value:  Size  Location     Type
  3188 ;;                  1    wreg      void 
  3189 ;; Registers used:
  3190 ;;		wreg, status,2
  3191 ;; Tracked objects:
  3192 ;;		On entry : 0/0
  3193 ;;		On exit  : 0/0
  3194 ;;		Unchanged: 0/0
  3195 ;; Data sizes:     COMMON   BANK0   BANK1   BANK3   BANK2
  3196 ;;      Params:         0       0       0       0       0
  3197 ;;      Locals:         0       0       0       0       0
  3198 ;;      Temps:          0       0       0       0       0
  3199 ;;      Totals:         0       0       0       0       0
  3200 ;;Total ram usage:        0 bytes
  3201 ;; Hardware stack levels used:    1
  3202 ;; Hardware stack levels required when called:    2
  3203 ;; This function calls:
  3204 ;;		Nothing
  3205 ;; This function is called by:
  3206 ;;		_main
  3207 ;; This function uses a non-reentrant model
  3208 ;;
  3209                           
  3210                           
  3211                           ;psect for function _setup
  3212  0850                     _setup:
  3213  0850                     l1919:	
  3214                           ;incstack = 0
  3215                           ; Regs used in _setup: [wreg+status,2]
  3216                           
  3217                           
  3218                           ;CONFIG.c: 12:     ANSEL = 0b00000011;
  3219  0850  3003               	movlw	3
  3220  0851  1683               	bsf	3,5	;RP0=1, select bank3
  3221  0852  1703               	bsf	3,6	;RP1=1, select bank3
  3222  0853  0088               	movwf	8	;volatile
  3223  0854                     l1921:
  3224                           
  3225                           ;CONFIG.c: 13:     ANSELH = 0;
  3226  0854  0189               	clrf	9	;volatile
  3227  0855                     l1923:
  3228                           
  3229                           ;CONFIG.c: 14:     TRISA = 0b000000011;
  3230  0855  3003               	movlw	3
  3231  0856  1683               	bsf	3,5	;RP0=1, select bank1
  3232  0857  1303               	bcf	3,6	;RP1=0, select bank1
  3233  0858  0085               	movwf	5	;volatile
  3234                           
  3235                           ;CONFIG.c: 15:     TRISE =0;
  3236  0859  0189               	clrf	9	;volatile
  3237                           
  3238                           ;CONFIG.c: 16:     TRISB = 0;
  3239  085A  0186               	clrf	6	;volatile
  3240                           
  3241                           ;CONFIG.c: 17:     TRISD = 0;
  3242  085B  0188               	clrf	8	;volatile
  3243                           
  3244                           ;CONFIG.c: 18:     PORTA = 0;
  3245  085C  1283               	bcf	3,5	;RP0=0, select bank0
  3246  085D  1303               	bcf	3,6	;RP1=0, select bank0
  3247  085E  0185               	clrf	5	;volatile
  3248                           
  3249                           ;CONFIG.c: 19:     PORTB = 0;
  3250  085F  0186               	clrf	6	;volatile
  3251                           
  3252                           ;CONFIG.c: 20:     PORTD = 0;
  3253  0860  0188               	clrf	8	;volatile
  3254                           
  3255                           ;CONFIG.c: 21:     PORTE = 0;
  3256  0861  0189               	clrf	9	;volatile
  3257  0862                     l77:
  3258  0862  0008               	return
  3259  0863                     __end_of_setup:
  3260                           
  3261                           	psect	text7
  3262  1716                     __ptext7:	
  3263 ;; *************** function _intr *****************
  3264 ;; Defined at:
  3265 ;;		line 12 in file "INT.c"
  3266 ;; Parameters:    Size  Location     Type
  3267 ;;		None
  3268 ;; Auto vars:     Size  Location     Type
  3269 ;;		None
  3270 ;; Return value:  Size  Location     Type
  3271 ;;                  1    wreg      void 
  3272 ;; Registers used:
  3273 ;;		None
  3274 ;; Tracked objects:
  3275 ;;		On entry : 0/0
  3276 ;;		On exit  : 0/0
  3277 ;;		Unchanged: 0/0
  3278 ;; Data sizes:     COMMON   BANK0   BANK1   BANK3   BANK2
  3279 ;;      Params:         0       0       0       0       0
  3280 ;;      Locals:         0       0       0       0       0
  3281 ;;      Temps:          0       0       0       0       0
  3282 ;;      Totals:         0       0       0       0       0
  3283 ;;Total ram usage:        0 bytes
  3284 ;; Hardware stack levels used:    1
  3285 ;; Hardware stack levels required when called:    2
  3286 ;; This function calls:
  3287 ;;		Nothing
  3288 ;; This function is called by:
  3289 ;;		_main
  3290 ;; This function uses a non-reentrant model
  3291 ;;
  3292                           
  3293                           
  3294                           ;psect for function _intr
  3295  1716                     _intr:
  3296  1716                     l1917:	
  3297                           ;incstack = 0
  3298                           ; Regs used in _intr: []
  3299                           
  3300                           
  3301                           ;INT.c: 13:     INTCONbits.GIE = 1;
  3302  1716  178B               	bsf	11,7	;volatile
  3303                           
  3304                           ;INT.c: 14:     INTCONbits.PEIE = 1;
  3305  1717  170B               	bsf	11,6	;volatile
  3306                           
  3307                           ;INT.c: 15:     PIE1bits.RCIE = 1;
  3308  1718  1683               	bsf	3,5	;RP0=1, select bank1
  3309  1719  1303               	bcf	3,6	;RP1=0, select bank1
  3310  171A  168C               	bsf	12,5	;volatile
  3311                           
  3312                           ;INT.c: 16:     PIE1bits.TXIE = 1;
  3313  171B  160C               	bsf	12,4	;volatile
  3314  171C                     l54:	
  3315                           ;INT.c: 19:     return;
  3316                           
  3317  171C  0008               	return
  3318  171D                     __end_of_intr:
  3319                           
  3320                           	psect	text8
  3321  0A77                     __ptext8:	
  3322 ;; *************** function ___fltol *****************
  3323 ;; Defined at:
  3324 ;;		line 43 in file "C:\Program Files\Microchip\xc8\v2.20\pic\sources\c90\common\fltol.c"
  3325 ;; Parameters:    Size  Location     Type
  3326 ;;  f1              4   13[BANK1 ] void 
  3327 ;; Auto vars:     Size  Location     Type
  3328 ;;  exp1            1   61[BANK0 ] unsigned char 
  3329 ;;  sign1           1   60[BANK0 ] unsigned char 
  3330 ;; Return value:  Size  Location     Type
  3331 ;;                  4   13[BANK1 ] long 
  3332 ;; Registers used:
  3333 ;;		wreg, status,2, status,0, btemp+1
  3334 ;; Tracked objects:
  3335 ;;		On entry : 0/0
  3336 ;;		On exit  : 0/0
  3337 ;;		Unchanged: 0/0
  3338 ;; Data sizes:     COMMON   BANK0   BANK1   BANK3   BANK2
  3339 ;;      Params:         0       0       4       0       0
  3340 ;;      Locals:         0       2       0       0       0
  3341 ;;      Temps:          0       4       0       0       0
  3342 ;;      Totals:         0       6       4       0       0
  3343 ;;Total ram usage:       10 bytes
  3344 ;; Hardware stack levels used:    1
  3345 ;; Hardware stack levels required when called:    2
  3346 ;; This function calls:
  3347 ;;		Nothing
  3348 ;; This function is called by:
  3349 ;;		_main
  3350 ;; This function uses a non-reentrant model
  3351 ;;
  3352                           
  3353                           
  3354                           ;psect for function ___fltol
  3355  0A77                     ___fltol:
  3356  0A77                     l2631:	
  3357                           ;incstack = 0
  3358                           ; Regs used in ___fltol: [wreg+status,2+status,0+btemp+1]
  3359                           
  3360  0A77  1003               	clrc
  3361  0A78  1683               	bsf	3,5	;RP0=1, select bank1
  3362  0A79  1303               	bcf	3,6	;RP1=0, select bank1
  3363  0A7A  0D59               	rlf	(___fltol@f1+2)^(0+128),w
  3364  0A7B  0D5A               	rlf	(___fltol@f1+3)^(0+128),w
  3365  0A7C  00FF               	movwf	btemp+1
  3366  0A7D  087F               	movf	btemp+1,w
  3367  0A7E  1283               	bcf	3,5	;RP0=0, select bank0
  3368  0A7F  1303               	bcf	3,6	;RP1=0, select bank0
  3369  0A80  00DD               	movwf	___fltol@exp1
  3370  0A81  085D               	movf	___fltol@exp1,w
  3371  0A82  1D03               	btfss	3,2
  3372  0A83  2A85               	goto	u3531
  3373  0A84  2A86               	goto	u3530
  3374  0A85                     u3531:
  3375  0A85  2A91               	goto	l2637
  3376  0A86                     u3530:
  3377  0A86                     l2633:
  3378  0A86  3000               	movlw	0
  3379  0A87  1683               	bsf	3,5	;RP0=1, select bank1
  3380  0A88  1303               	bcf	3,6	;RP1=0, select bank1
  3381  0A89  00DA               	movwf	(?___fltol+3)^(0+128)
  3382  0A8A  3000               	movlw	0
  3383  0A8B  00D9               	movwf	(?___fltol+2)^(0+128)
  3384  0A8C  3000               	movlw	0
  3385  0A8D  00D8               	movwf	(?___fltol+1)^(0+128)
  3386  0A8E  3000               	movlw	0
  3387  0A8F  00D7               	movwf	?___fltol^(0+128)
  3388  0A90  2B14               	goto	l494
  3389  0A91                     l2637:
  3390  0A91  1683               	bsf	3,5	;RP0=1, select bank1
  3391  0A92  1303               	bcf	3,6	;RP1=0, select bank1
  3392  0A93  0857               	movf	___fltol@f1^(0+128),w
  3393  0A94  1283               	bcf	3,5	;RP0=0, select bank0
  3394  0A95  1303               	bcf	3,6	;RP1=0, select bank0
  3395  0A96  00D8               	movwf	??___fltol
  3396  0A97  1683               	bsf	3,5	;RP0=1, select bank1
  3397  0A98  1303               	bcf	3,6	;RP1=0, select bank1
  3398  0A99  0858               	movf	(___fltol@f1+1)^(0+128),w
  3399  0A9A  1283               	bcf	3,5	;RP0=0, select bank0
  3400  0A9B  1303               	bcf	3,6	;RP1=0, select bank0
  3401  0A9C  00D9               	movwf	??___fltol+1
  3402  0A9D  1683               	bsf	3,5	;RP0=1, select bank1
  3403  0A9E  1303               	bcf	3,6	;RP1=0, select bank1
  3404  0A9F  0859               	movf	(___fltol@f1+2)^(0+128),w
  3405  0AA0  1283               	bcf	3,5	;RP0=0, select bank0
  3406  0AA1  1303               	bcf	3,6	;RP1=0, select bank0
  3407  0AA2  00DA               	movwf	??___fltol+2
  3408  0AA3  1683               	bsf	3,5	;RP0=1, select bank1
  3409  0AA4  1303               	bcf	3,6	;RP1=0, select bank1
  3410  0AA5  085A               	movf	(___fltol@f1+3)^(0+128),w
  3411  0AA6  1283               	bcf	3,5	;RP0=0, select bank0
  3412  0AA7  1303               	bcf	3,6	;RP1=0, select bank0
  3413  0AA8  00DB               	movwf	??___fltol+3
  3414  0AA9  301F               	movlw	31
  3415  0AAA                     u3545:
  3416  0AAA  1003               	clrc
  3417  0AAB  0CDB               	rrf	??___fltol+3,f
  3418  0AAC  0CDA               	rrf	??___fltol+2,f
  3419  0AAD  0CD9               	rrf	??___fltol+1,f
  3420  0AAE  0CD8               	rrf	??___fltol,f
  3421  0AAF                     u3540:
  3422  0AAF  3EFF               	addlw	-1
  3423  0AB0  1D03               	skipz
  3424  0AB1  2AAA               	goto	u3545
  3425  0AB2  0858               	movf	??___fltol,w
  3426  0AB3  00FF               	movwf	btemp+1
  3427  0AB4  087F               	movf	btemp+1,w
  3428  0AB5  00DC               	movwf	___fltol@sign1
  3429  0AB6                     l2639:
  3430  0AB6  1683               	bsf	3,5	;RP0=1, select bank1
  3431  0AB7  1303               	bcf	3,6	;RP1=0, select bank1
  3432  0AB8  17D9               	bsf	(___fltol@f1^(0+128)+2),7
  3433  0AB9                     l2641:
  3434  0AB9  30FF               	movlw	255
  3435  0ABA  05D7               	andwf	___fltol@f1^(0+128),f
  3436  0ABB  30FF               	movlw	255
  3437  0ABC  05D8               	andwf	(___fltol@f1+1)^(0+128),f
  3438  0ABD  30FF               	movlw	255
  3439  0ABE  05D9               	andwf	(___fltol@f1+2)^(0+128),f
  3440  0ABF  3000               	movlw	0
  3441  0AC0  05DA               	andwf	(___fltol@f1+3)^(0+128),f
  3442  0AC1                     l2643:
  3443  0AC1  3096               	movlw	150
  3444  0AC2  1283               	bcf	3,5	;RP0=0, select bank0
  3445  0AC3  1303               	bcf	3,6	;RP1=0, select bank0
  3446  0AC4  02DD               	subwf	___fltol@exp1,f
  3447  0AC5                     l2645:
  3448  0AC5  1FDD               	btfss	___fltol@exp1,7
  3449  0AC6  2AC8               	goto	u3551
  3450  0AC7  2AC9               	goto	u3550
  3451  0AC8                     u3551:
  3452  0AC8  2AE7               	goto	l2657
  3453  0AC9                     u3550:
  3454  0AC9                     l2647:
  3455  0AC9  085D               	movf	___fltol@exp1,w
  3456  0ACA  3A80               	xorlw	128
  3457  0ACB  3E97               	addlw	151
  3458  0ACC  1803               	skipnc
  3459  0ACD  2ACF               	goto	u3561
  3460  0ACE  2AD0               	goto	u3560
  3461  0ACF                     u3561:
  3462  0ACF  2AD1               	goto	l2653
  3463  0AD0                     u3560:
  3464  0AD0  2A86               	goto	l2633
  3465  0AD1                     l2653:
  3466  0AD1  3001               	movlw	1
  3467  0AD2                     u3575:
  3468  0AD2  1003               	clrc
  3469  0AD3  1683               	bsf	3,5	;RP0=1, select bank1
  3470  0AD4  1303               	bcf	3,6	;RP1=0, select bank1
  3471  0AD5  0CDA               	rrf	(___fltol@f1+3)^(0+128),f
  3472  0AD6  0CD9               	rrf	(___fltol@f1+2)^(0+128),f
  3473  0AD7  0CD8               	rrf	(___fltol@f1+1)^(0+128),f
  3474  0AD8  0CD7               	rrf	___fltol@f1^(0+128),f
  3475  0AD9  3EFF               	addlw	-1
  3476  0ADA  1D03               	skipz
  3477  0ADB  2AD2               	goto	u3575
  3478  0ADC                     l2655:
  3479  0ADC  3001               	movlw	1
  3480  0ADD  00FF               	movwf	btemp+1
  3481  0ADE  087F               	movf	btemp+1,w
  3482  0ADF  1283               	bcf	3,5	;RP0=0, select bank0
  3483  0AE0  1303               	bcf	3,6	;RP1=0, select bank0
  3484  0AE1  07DD               	addwf	___fltol@exp1,f
  3485  0AE2  1D03               	btfss	3,2
  3486  0AE3  2AE5               	goto	u3581
  3487  0AE4  2AE6               	goto	u3580
  3488  0AE5                     u3581:
  3489  0AE5  2AD1               	goto	l2653
  3490  0AE6                     u3580:
  3491  0AE6  2B02               	goto	l2665
  3492  0AE7                     l2657:
  3493  0AE7  3020               	movlw	32
  3494  0AE8  025D               	subwf	___fltol@exp1,w
  3495  0AE9  1C03               	skipc
  3496  0AEA  2AEC               	goto	u3591
  3497  0AEB  2AED               	goto	u3590
  3498  0AEC                     u3591:
  3499  0AEC  2AFD               	goto	l501
  3500  0AED                     u3590:
  3501  0AED  2A86               	goto	l2633
  3502  0AEE                     l2663:
  3503  0AEE  3001               	movlw	1
  3504  0AEF  00D8               	movwf	??___fltol
  3505  0AF0                     u3605:
  3506  0AF0  1003               	clrc
  3507  0AF1  1683               	bsf	3,5	;RP0=1, select bank1
  3508  0AF2  1303               	bcf	3,6	;RP1=0, select bank1
  3509  0AF3  0DD7               	rlf	___fltol@f1^(0+128),f
  3510  0AF4  0DD8               	rlf	(___fltol@f1+1)^(0+128),f
  3511  0AF5  0DD9               	rlf	(___fltol@f1+2)^(0+128),f
  3512  0AF6  0DDA               	rlf	(___fltol@f1+3)^(0+128),f
  3513  0AF7  1283               	bcf	3,5	;RP0=0, select bank0
  3514  0AF8  1303               	bcf	3,6	;RP1=0, select bank0
  3515  0AF9  0BD8               	decfsz	??___fltol,f
  3516  0AFA  2AF0               	goto	u3605
  3517  0AFB  3001               	movlw	1
  3518  0AFC  02DD               	subwf	___fltol@exp1,f
  3519  0AFD                     l501:
  3520  0AFD  085D               	movf	___fltol@exp1,w
  3521  0AFE  1D03               	btfss	3,2
  3522  0AFF  2B01               	goto	u3611
  3523  0B00  2B02               	goto	u3610
  3524  0B01                     u3611:
  3525  0B01  2AEE               	goto	l2663
  3526  0B02                     u3610:
  3527  0B02                     l2665:
  3528  0B02  085C               	movf	___fltol@sign1,w
  3529  0B03  1903               	btfsc	3,2
  3530  0B04  2B06               	goto	u3621
  3531  0B05  2B07               	goto	u3620
  3532  0B06                     u3621:
  3533  0B06  2B14               	goto	l504
  3534  0B07                     u3620:
  3535  0B07                     l2667:
  3536  0B07  1683               	bsf	3,5	;RP0=1, select bank1
  3537  0B08  1303               	bcf	3,6	;RP1=0, select bank1
  3538  0B09  09D7               	comf	___fltol@f1^(0+128),f
  3539  0B0A  09D8               	comf	(___fltol@f1+1)^(0+128),f
  3540  0B0B  09D9               	comf	(___fltol@f1+2)^(0+128),f
  3541  0B0C  09DA               	comf	(___fltol@f1+3)^(0+128),f
  3542  0B0D  0AD7               	incf	___fltol@f1^(0+128),f
  3543  0B0E  1903               	skipnz
  3544  0B0F  0AD8               	incf	(___fltol@f1+1)^(0+128),f
  3545  0B10  1903               	skipnz
  3546  0B11  0AD9               	incf	(___fltol@f1+2)^(0+128),f
  3547  0B12  1903               	skipnz
  3548  0B13  0ADA               	incf	(___fltol@f1+3)^(0+128),f
  3549  0B14                     l504:
  3550  0B14                     l494:
  3551  0B14  0008               	return
  3552  0B15                     __end_of___fltol:
  3553                           
  3554                           	psect	text9
  3555  0033                     __ptext9:	
  3556 ;; *************** function ___flmul *****************
  3557 ;; Defined at:
  3558 ;;		line 8 in file "C:\Program Files\Microchip\xc8\v2.20\pic\sources\c90\common\sprcmul.c"
  3559 ;; Parameters:    Size  Location     Type
  3560 ;;  b               4   17[BANK0 ] long 
  3561 ;;  a               4   21[BANK0 ] long 
  3562 ;; Auto vars:     Size  Location     Type
  3563 ;;  prod            4   37[BANK0 ] struct .
  3564 ;;  grs             4   31[BANK0 ] unsigned long 
  3565 ;;  temp            2   41[BANK0 ] struct .
  3566 ;;  bexp            1   36[BANK0 ] unsigned char 
  3567 ;;  aexp            1   35[BANK0 ] unsigned char 
  3568 ;;  sign            1   30[BANK0 ] unsigned char 
  3569 ;; Return value:  Size  Location     Type
  3570 ;;                  4   17[BANK0 ] unsigned char 
  3571 ;; Registers used:
  3572 ;;		wreg, status,2, status,0, btemp+1, pclath, cstack
  3573 ;; Tracked objects:
  3574 ;;		On entry : 0/0
  3575 ;;		On exit  : 0/0
  3576 ;;		Unchanged: 0/0
  3577 ;; Data sizes:     COMMON   BANK0   BANK1   BANK3   BANK2
  3578 ;;      Params:         0       8       0       0       0
  3579 ;;      Locals:         0      13       0       0       0
  3580 ;;      Temps:          0       5       0       0       0
  3581 ;;      Totals:         0      26       0       0       0
  3582 ;;Total ram usage:       26 bytes
  3583 ;; Hardware stack levels used:    1
  3584 ;; Hardware stack levels required when called:    3
  3585 ;; This function calls:
  3586 ;;		__Umul8_16
  3587 ;; This function is called by:
  3588 ;;		_main
  3589 ;; This function uses a non-reentrant model
  3590 ;;
  3591                           
  3592                           
  3593                           ;psect for function ___flmul
  3594  0033                     ___flmul:
  3595  0033                     l2293:	
  3596                           ;incstack = 0
  3597                           ; Regs used in ___flmul: [wreg+status,2+status,0+btemp+1+pclath+cstack]
  3598                           
  3599  0033  1283               	bcf	3,5	;RP0=0, select bank0
  3600  0034  1303               	bcf	3,6	;RP1=0, select bank0
  3601  0035  0834               	movf	___flmul@b+3,w
  3602  0036  3980               	andlw	128
  3603  0037  00FF               	movwf	btemp+1
  3604  0038  087F               	movf	btemp+1,w
  3605  0039  00BE               	movwf	___flmul@sign
  3606  003A                     l2295:
  3607  003A  0834               	movf	___flmul@b+3,w
  3608  003B  00B9               	movwf	??___flmul
  3609  003C  0739               	addwf	??___flmul,w
  3610  003D  00FF               	movwf	btemp+1
  3611  003E  087F               	movf	btemp+1,w
  3612  003F  00C4               	movwf	___flmul@bexp
  3613  0040                     l2297:
  3614  0040  1FB3               	btfss	___flmul@b+2,7
  3615  0041  2843               	goto	u2881
  3616  0042  2844               	goto	u2880
  3617  0043                     u2881:
  3618  0043  2845               	goto	l2301
  3619  0044                     u2880:
  3620  0044                     l2299:
  3621  0044  1444               	bsf	___flmul@bexp,0
  3622  0045                     l2301:
  3623  0045  0844               	movf	___flmul@bexp,w
  3624  0046  1903               	btfsc	3,2
  3625  0047  2849               	goto	u2891
  3626  0048  284A               	goto	u2890
  3627  0049                     u2891:
  3628  0049  2859               	goto	l2309
  3629  004A                     u2890:
  3630  004A                     l2303:
  3631  004A  0A44               	incf	___flmul@bexp,w
  3632  004B  1D03               	btfss	3,2
  3633  004C  284E               	goto	u2901
  3634  004D  284F               	goto	u2900
  3635  004E                     u2901:
  3636  004E  2857               	goto	l2307
  3637  004F                     u2900:
  3638  004F                     l2305:
  3639  004F  3000               	movlw	0
  3640  0050  00B4               	movwf	___flmul@b+3
  3641  0051  3000               	movlw	0
  3642  0052  00B3               	movwf	___flmul@b+2
  3643  0053  3000               	movlw	0
  3644  0054  00B2               	movwf	___flmul@b+1
  3645  0055  3000               	movlw	0
  3646  0056  00B1               	movwf	___flmul@b
  3647  0057                     l2307:
  3648  0057  17B3               	bsf	___flmul@b+2,7
  3649  0058  2861               	goto	l2311
  3650  0059                     l2309:
  3651  0059  3000               	movlw	0
  3652  005A  00B4               	movwf	___flmul@b+3
  3653  005B  3000               	movlw	0
  3654  005C  00B3               	movwf	___flmul@b+2
  3655  005D  3000               	movlw	0
  3656  005E  00B2               	movwf	___flmul@b+1
  3657  005F  3000               	movlw	0
  3658  0060  00B1               	movwf	___flmul@b
  3659  0061                     l2311:
  3660  0061  0838               	movf	___flmul@a+3,w
  3661  0062  3980               	andlw	128
  3662  0063  00FF               	movwf	btemp+1
  3663  0064  087F               	movf	btemp+1,w
  3664  0065  06BE               	xorwf	___flmul@sign,f
  3665  0066                     l2313:
  3666  0066  0838               	movf	___flmul@a+3,w
  3667  0067  00B9               	movwf	??___flmul
  3668  0068  0739               	addwf	??___flmul,w
  3669  0069  00FF               	movwf	btemp+1
  3670  006A  087F               	movf	btemp+1,w
  3671  006B  00C3               	movwf	___flmul@aexp
  3672  006C                     l2315:
  3673  006C  1FB7               	btfss	___flmul@a+2,7
  3674  006D  286F               	goto	u2911
  3675  006E  2870               	goto	u2910
  3676  006F                     u2911:
  3677  006F  2871               	goto	l2319
  3678  0070                     u2910:
  3679  0070                     l2317:
  3680  0070  1443               	bsf	___flmul@aexp,0
  3681  0071                     l2319:
  3682  0071  0843               	movf	___flmul@aexp,w
  3683  0072  1903               	btfsc	3,2
  3684  0073  2875               	goto	u2921
  3685  0074  2876               	goto	u2920
  3686  0075                     u2921:
  3687  0075  2885               	goto	l2327
  3688  0076                     u2920:
  3689  0076                     l2321:
  3690  0076  0A43               	incf	___flmul@aexp,w
  3691  0077  1D03               	btfss	3,2
  3692  0078  287A               	goto	u2931
  3693  0079  287B               	goto	u2930
  3694  007A                     u2931:
  3695  007A  2883               	goto	l2325
  3696  007B                     u2930:
  3697  007B                     l2323:
  3698  007B  3000               	movlw	0
  3699  007C  00B8               	movwf	___flmul@a+3
  3700  007D  3000               	movlw	0
  3701  007E  00B7               	movwf	___flmul@a+2
  3702  007F  3000               	movlw	0
  3703  0080  00B6               	movwf	___flmul@a+1
  3704  0081  3000               	movlw	0
  3705  0082  00B5               	movwf	___flmul@a
  3706  0083                     l2325:
  3707  0083  17B7               	bsf	___flmul@a+2,7
  3708  0084  288D               	goto	l2329
  3709  0085                     l2327:
  3710  0085  3000               	movlw	0
  3711  0086  00B8               	movwf	___flmul@a+3
  3712  0087  3000               	movlw	0
  3713  0088  00B7               	movwf	___flmul@a+2
  3714  0089  3000               	movlw	0
  3715  008A  00B6               	movwf	___flmul@a+1
  3716  008B  3000               	movlw	0
  3717  008C  00B5               	movwf	___flmul@a
  3718  008D                     l2329:
  3719  008D  0843               	movf	___flmul@aexp,w
  3720  008E  1903               	btfsc	3,2
  3721  008F  2891               	goto	u2941
  3722  0090  2892               	goto	u2940
  3723  0091                     u2941:
  3724  0091  2897               	goto	l2333
  3725  0092                     u2940:
  3726  0092                     l2331:
  3727  0092  0844               	movf	___flmul@bexp,w
  3728  0093  1D03               	btfss	3,2
  3729  0094  2896               	goto	u2951
  3730  0095  2897               	goto	u2950
  3731  0096                     u2951:
  3732  0096  28A0               	goto	l2337
  3733  0097                     u2950:
  3734  0097                     l2333:
  3735  0097  3000               	movlw	0
  3736  0098  00B4               	movwf	?___flmul+3
  3737  0099  3000               	movlw	0
  3738  009A  00B3               	movwf	?___flmul+2
  3739  009B  3000               	movlw	0
  3740  009C  00B2               	movwf	?___flmul+1
  3741  009D  3000               	movlw	0
  3742  009E  00B1               	movwf	?___flmul
  3743  009F  2B93               	goto	l697
  3744  00A0                     l2337:
  3745  00A0  0831               	movf	___flmul@b,w
  3746  00A1  00FF               	movwf	btemp+1
  3747  00A2  087F               	movf	btemp+1,w
  3748  00A3  00A8               	movwf	__Umul8_16@multiplicand
  3749  00A4  0837               	movf	___flmul@a+2,w
  3750  00A5  160A  118A  27AA  120A  118A  	fcall	__Umul8_16
  3751  00AA  1283               	bcf	3,5	;RP0=0, select bank0
  3752  00AB  1303               	bcf	3,6	;RP1=0, select bank0
  3753  00AC  0829               	movf	?__Umul8_16+1,w
  3754  00AD  00CA               	movwf	___flmul@temp+1
  3755  00AE  0828               	movf	?__Umul8_16,w
  3756  00AF  00C9               	movwf	___flmul@temp
  3757  00B0                     l2339:
  3758  00B0  0849               	movf	___flmul@temp,w
  3759  00B1  00B9               	movwf	??___flmul
  3760  00B2  01BA               	clrf	??___flmul+1
  3761  00B3  01BB               	clrf	??___flmul+2
  3762  00B4  01BC               	clrf	??___flmul+3
  3763  00B5  083C               	movf	??___flmul+3,w
  3764  00B6  00C2               	movwf	___flmul@grs+3
  3765  00B7  083B               	movf	??___flmul+2,w
  3766  00B8  00C1               	movwf	___flmul@grs+2
  3767  00B9  083A               	movf	??___flmul+1,w
  3768  00BA  00C0               	movwf	___flmul@grs+1
  3769  00BB  0839               	movf	??___flmul,w
  3770  00BC  00BF               	movwf	___flmul@grs
  3771  00BD                     l2341:
  3772  00BD  084A               	movf	___flmul@temp+1,w
  3773  00BE  00B9               	movwf	??___flmul
  3774  00BF  01BA               	clrf	??___flmul+1
  3775  00C0  01BB               	clrf	??___flmul+2
  3776  00C1  01BC               	clrf	??___flmul+3
  3777  00C2  083C               	movf	??___flmul+3,w
  3778  00C3  00C8               	movwf	___flmul@prod+3
  3779  00C4  083B               	movf	??___flmul+2,w
  3780  00C5  00C7               	movwf	___flmul@prod+2
  3781  00C6  083A               	movf	??___flmul+1,w
  3782  00C7  00C6               	movwf	___flmul@prod+1
  3783  00C8  0839               	movf	??___flmul,w
  3784  00C9  00C5               	movwf	___flmul@prod
  3785  00CA  0832               	movf	___flmul@b+1,w
  3786  00CB  00FF               	movwf	btemp+1
  3787  00CC  087F               	movf	btemp+1,w
  3788  00CD  00A8               	movwf	__Umul8_16@multiplicand
  3789  00CE  0836               	movf	___flmul@a+1,w
  3790  00CF  160A  118A  27AA  120A  118A  	fcall	__Umul8_16
  3791  00D4  1283               	bcf	3,5	;RP0=0, select bank0
  3792  00D5  1303               	bcf	3,6	;RP1=0, select bank0
  3793  00D6  0829               	movf	?__Umul8_16+1,w
  3794  00D7  00CA               	movwf	___flmul@temp+1
  3795  00D8  0828               	movf	?__Umul8_16,w
  3796  00D9  00C9               	movwf	___flmul@temp
  3797  00DA                     l2343:
  3798  00DA  0849               	movf	___flmul@temp,w
  3799  00DB  00B9               	movwf	??___flmul
  3800  00DC  01BA               	clrf	??___flmul+1
  3801  00DD  01BB               	clrf	??___flmul+2
  3802  00DE  01BC               	clrf	??___flmul+3
  3803  00DF  0839               	movf	??___flmul,w
  3804  00E0  07BF               	addwf	___flmul@grs,f
  3805  00E1  083A               	movf	??___flmul+1,w
  3806  00E2  1103               	clrz
  3807  00E3  1803               	skipnc
  3808  00E4  3E01               	addlw	1
  3809  00E5  1903               	skipnz
  3810  00E6  28E8               	goto	u2961
  3811  00E7  07C0               	addwf	___flmul@grs+1,f
  3812  00E8                     u2961:
  3813  00E8  083B               	movf	??___flmul+2,w
  3814  00E9  1103               	clrz
  3815  00EA  1803               	skipnc
  3816  00EB  3E01               	addlw	1
  3817  00EC  1903               	skipnz
  3818  00ED  28EF               	goto	u2962
  3819  00EE  07C1               	addwf	___flmul@grs+2,f
  3820  00EF                     u2962:
  3821  00EF  083C               	movf	??___flmul+3,w
  3822  00F0  1103               	clrz
  3823  00F1  1803               	skipnc
  3824  00F2  3E01               	addlw	1
  3825  00F3  1903               	skipnz
  3826  00F4  28F6               	goto	u2963
  3827  00F5  07C2               	addwf	___flmul@grs+3,f
  3828  00F6                     u2963:
  3829  00F6                     l2345:
  3830  00F6  084A               	movf	___flmul@temp+1,w
  3831  00F7  00B9               	movwf	??___flmul
  3832  00F8  01BA               	clrf	??___flmul+1
  3833  00F9  01BB               	clrf	??___flmul+2
  3834  00FA  01BC               	clrf	??___flmul+3
  3835  00FB  0839               	movf	??___flmul,w
  3836  00FC  07C5               	addwf	___flmul@prod,f
  3837  00FD  083A               	movf	??___flmul+1,w
  3838  00FE  1103               	clrz
  3839  00FF  1803               	skipnc
  3840  0100  3E01               	addlw	1
  3841  0101  1903               	skipnz
  3842  0102  2904               	goto	u2971
  3843  0103  07C6               	addwf	___flmul@prod+1,f
  3844  0104                     u2971:
  3845  0104  083B               	movf	??___flmul+2,w
  3846  0105  1103               	clrz
  3847  0106  1803               	skipnc
  3848  0107  3E01               	addlw	1
  3849  0108  1903               	skipnz
  3850  0109  290B               	goto	u2972
  3851  010A  07C7               	addwf	___flmul@prod+2,f
  3852  010B                     u2972:
  3853  010B  083C               	movf	??___flmul+3,w
  3854  010C  1103               	clrz
  3855  010D  1803               	skipnc
  3856  010E  3E01               	addlw	1
  3857  010F  1903               	skipnz
  3858  0110  2912               	goto	u2973
  3859  0111  07C8               	addwf	___flmul@prod+3,f
  3860  0112                     u2973:
  3861  0112  0833               	movf	___flmul@b+2,w
  3862  0113  00FF               	movwf	btemp+1
  3863  0114  087F               	movf	btemp+1,w
  3864  0115  00A8               	movwf	__Umul8_16@multiplicand
  3865  0116  0835               	movf	___flmul@a,w
  3866  0117  160A  118A  27AA  120A  118A  	fcall	__Umul8_16
  3867  011C  1283               	bcf	3,5	;RP0=0, select bank0
  3868  011D  1303               	bcf	3,6	;RP1=0, select bank0
  3869  011E  0829               	movf	?__Umul8_16+1,w
  3870  011F  00CA               	movwf	___flmul@temp+1
  3871  0120  0828               	movf	?__Umul8_16,w
  3872  0121  00C9               	movwf	___flmul@temp
  3873  0122                     l2347:
  3874  0122  0849               	movf	___flmul@temp,w
  3875  0123  00B9               	movwf	??___flmul
  3876  0124  01BA               	clrf	??___flmul+1
  3877  0125  01BB               	clrf	??___flmul+2
  3878  0126  01BC               	clrf	??___flmul+3
  3879  0127  0839               	movf	??___flmul,w
  3880  0128  07BF               	addwf	___flmul@grs,f
  3881  0129  083A               	movf	??___flmul+1,w
  3882  012A  1103               	clrz
  3883  012B  1803               	skipnc
  3884  012C  3E01               	addlw	1
  3885  012D  1903               	skipnz
  3886  012E  2930               	goto	u2981
  3887  012F  07C0               	addwf	___flmul@grs+1,f
  3888  0130                     u2981:
  3889  0130  083B               	movf	??___flmul+2,w
  3890  0131  1103               	clrz
  3891  0132  1803               	skipnc
  3892  0133  3E01               	addlw	1
  3893  0134  1903               	skipnz
  3894  0135  2937               	goto	u2982
  3895  0136  07C1               	addwf	___flmul@grs+2,f
  3896  0137                     u2982:
  3897  0137  083C               	movf	??___flmul+3,w
  3898  0138  1103               	clrz
  3899  0139  1803               	skipnc
  3900  013A  3E01               	addlw	1
  3901  013B  1903               	skipnz
  3902  013C  293E               	goto	u2983
  3903  013D  07C2               	addwf	___flmul@grs+3,f
  3904  013E                     u2983:
  3905  013E                     l2349:
  3906  013E  084A               	movf	___flmul@temp+1,w
  3907  013F  00B9               	movwf	??___flmul
  3908  0140  01BA               	clrf	??___flmul+1
  3909  0141  01BB               	clrf	??___flmul+2
  3910  0142  01BC               	clrf	??___flmul+3
  3911  0143  0839               	movf	??___flmul,w
  3912  0144  07C5               	addwf	___flmul@prod,f
  3913  0145  083A               	movf	??___flmul+1,w
  3914  0146  1103               	clrz
  3915  0147  1803               	skipnc
  3916  0148  3E01               	addlw	1
  3917  0149  1903               	skipnz
  3918  014A  294C               	goto	u2991
  3919  014B  07C6               	addwf	___flmul@prod+1,f
  3920  014C                     u2991:
  3921  014C  083B               	movf	??___flmul+2,w
  3922  014D  1103               	clrz
  3923  014E  1803               	skipnc
  3924  014F  3E01               	addlw	1
  3925  0150  1903               	skipnz
  3926  0151  2953               	goto	u2992
  3927  0152  07C7               	addwf	___flmul@prod+2,f
  3928  0153                     u2992:
  3929  0153  083C               	movf	??___flmul+3,w
  3930  0154  1103               	clrz
  3931  0155  1803               	skipnc
  3932  0156  3E01               	addlw	1
  3933  0157  1903               	skipnz
  3934  0158  295A               	goto	u2993
  3935  0159  07C8               	addwf	___flmul@prod+3,f
  3936  015A                     u2993:
  3937  015A                     l2351:
  3938  015A  3008               	movlw	8
  3939  015B  00B9               	movwf	??___flmul
  3940  015C                     u3005:
  3941  015C  1003               	clrc
  3942  015D  0DBF               	rlf	___flmul@grs,f
  3943  015E  0DC0               	rlf	___flmul@grs+1,f
  3944  015F  0DC1               	rlf	___flmul@grs+2,f
  3945  0160  0DC2               	rlf	___flmul@grs+3,f
  3946  0161  0BB9               	decfsz	??___flmul,f
  3947  0162  295C               	goto	u3005
  3948  0163                     l2353:
  3949  0163  0832               	movf	___flmul@b+1,w
  3950  0164  00FF               	movwf	btemp+1
  3951  0165  087F               	movf	btemp+1,w
  3952  0166  00A8               	movwf	__Umul8_16@multiplicand
  3953  0167  0835               	movf	___flmul@a,w
  3954  0168  160A  118A  27AA  120A  118A  	fcall	__Umul8_16
  3955  016D  1283               	bcf	3,5	;RP0=0, select bank0
  3956  016E  1303               	bcf	3,6	;RP1=0, select bank0
  3957  016F  0829               	movf	?__Umul8_16+1,w
  3958  0170  00CA               	movwf	___flmul@temp+1
  3959  0171  0828               	movf	?__Umul8_16,w
  3960  0172  00C9               	movwf	___flmul@temp
  3961  0173                     l2355:
  3962  0173  0849               	movf	___flmul@temp,w
  3963  0174  00B9               	movwf	??___flmul
  3964  0175  084A               	movf	___flmul@temp+1,w
  3965  0176  00BA               	movwf	??___flmul+1
  3966  0177  01BB               	clrf	??___flmul+2
  3967  0178  01BC               	clrf	??___flmul+3
  3968  0179  0839               	movf	??___flmul,w
  3969  017A  07BF               	addwf	___flmul@grs,f
  3970  017B  083A               	movf	??___flmul+1,w
  3971  017C  1103               	clrz
  3972  017D  1803               	skipnc
  3973  017E  3E01               	addlw	1
  3974  017F  1903               	skipnz
  3975  0180  2982               	goto	u3011
  3976  0181  07C0               	addwf	___flmul@grs+1,f
  3977  0182                     u3011:
  3978  0182  083B               	movf	??___flmul+2,w
  3979  0183  1103               	clrz
  3980  0184  1803               	skipnc
  3981  0185  3E01               	addlw	1
  3982  0186  1903               	skipnz
  3983  0187  2989               	goto	u3012
  3984  0188  07C1               	addwf	___flmul@grs+2,f
  3985  0189                     u3012:
  3986  0189  083C               	movf	??___flmul+3,w
  3987  018A  1103               	clrz
  3988  018B  1803               	skipnc
  3989  018C  3E01               	addlw	1
  3990  018D  1903               	skipnz
  3991  018E  2990               	goto	u3013
  3992  018F  07C2               	addwf	___flmul@grs+3,f
  3993  0190                     u3013:
  3994  0190                     l2357:
  3995  0190  0831               	movf	___flmul@b,w
  3996  0191  00FF               	movwf	btemp+1
  3997  0192  087F               	movf	btemp+1,w
  3998  0193  00A8               	movwf	__Umul8_16@multiplicand
  3999  0194  0836               	movf	___flmul@a+1,w
  4000  0195  160A  118A  27AA  120A  118A  	fcall	__Umul8_16
  4001  019A  1283               	bcf	3,5	;RP0=0, select bank0
  4002  019B  1303               	bcf	3,6	;RP1=0, select bank0
  4003  019C  0829               	movf	?__Umul8_16+1,w
  4004  019D  00CA               	movwf	___flmul@temp+1
  4005  019E  0828               	movf	?__Umul8_16,w
  4006  019F  00C9               	movwf	___flmul@temp
  4007  01A0                     l2359:
  4008  01A0  0849               	movf	___flmul@temp,w
  4009  01A1  00B9               	movwf	??___flmul
  4010  01A2  084A               	movf	___flmul@temp+1,w
  4011  01A3  00BA               	movwf	??___flmul+1
  4012  01A4  01BB               	clrf	??___flmul+2
  4013  01A5  01BC               	clrf	??___flmul+3
  4014  01A6  0839               	movf	??___flmul,w
  4015  01A7  07BF               	addwf	___flmul@grs,f
  4016  01A8  083A               	movf	??___flmul+1,w
  4017  01A9  1103               	clrz
  4018  01AA  1803               	skipnc
  4019  01AB  3E01               	addlw	1
  4020  01AC  1903               	skipnz
  4021  01AD  29AF               	goto	u3021
  4022  01AE  07C0               	addwf	___flmul@grs+1,f
  4023  01AF                     u3021:
  4024  01AF  083B               	movf	??___flmul+2,w
  4025  01B0  1103               	clrz
  4026  01B1  1803               	skipnc
  4027  01B2  3E01               	addlw	1
  4028  01B3  1903               	skipnz
  4029  01B4  29B6               	goto	u3022
  4030  01B5  07C1               	addwf	___flmul@grs+2,f
  4031  01B6                     u3022:
  4032  01B6  083C               	movf	??___flmul+3,w
  4033  01B7  1103               	clrz
  4034  01B8  1803               	skipnc
  4035  01B9  3E01               	addlw	1
  4036  01BA  1903               	skipnz
  4037  01BB  29BD               	goto	u3023
  4038  01BC  07C2               	addwf	___flmul@grs+3,f
  4039  01BD                     u3023:
  4040  01BD                     l2361:
  4041  01BD  3008               	movlw	8
  4042  01BE  00B9               	movwf	??___flmul
  4043  01BF                     u3035:
  4044  01BF  1003               	clrc
  4045  01C0  0DBF               	rlf	___flmul@grs,f
  4046  01C1  0DC0               	rlf	___flmul@grs+1,f
  4047  01C2  0DC1               	rlf	___flmul@grs+2,f
  4048  01C3  0DC2               	rlf	___flmul@grs+3,f
  4049  01C4  0BB9               	decfsz	??___flmul,f
  4050  01C5  29BF               	goto	u3035
  4051  01C6  0831               	movf	___flmul@b,w
  4052  01C7  00FF               	movwf	btemp+1
  4053  01C8  087F               	movf	btemp+1,w
  4054  01C9  00A8               	movwf	__Umul8_16@multiplicand
  4055  01CA  0835               	movf	___flmul@a,w
  4056  01CB  160A  118A  27AA  120A  118A  	fcall	__Umul8_16
  4057  01D0  1283               	bcf	3,5	;RP0=0, select bank0
  4058  01D1  1303               	bcf	3,6	;RP1=0, select bank0
  4059  01D2  0829               	movf	?__Umul8_16+1,w
  4060  01D3  00CA               	movwf	___flmul@temp+1
  4061  01D4  0828               	movf	?__Umul8_16,w
  4062  01D5  00C9               	movwf	___flmul@temp
  4063  01D6                     l2363:
  4064  01D6  0849               	movf	___flmul@temp,w
  4065  01D7  00B9               	movwf	??___flmul
  4066  01D8  084A               	movf	___flmul@temp+1,w
  4067  01D9  00BA               	movwf	??___flmul+1
  4068  01DA  01BB               	clrf	??___flmul+2
  4069  01DB  01BC               	clrf	??___flmul+3
  4070  01DC  0839               	movf	??___flmul,w
  4071  01DD  07BF               	addwf	___flmul@grs,f
  4072  01DE  083A               	movf	??___flmul+1,w
  4073  01DF  1103               	clrz
  4074  01E0  1803               	skipnc
  4075  01E1  3E01               	addlw	1
  4076  01E2  1903               	skipnz
  4077  01E3  29E5               	goto	u3041
  4078  01E4  07C0               	addwf	___flmul@grs+1,f
  4079  01E5                     u3041:
  4080  01E5  083B               	movf	??___flmul+2,w
  4081  01E6  1103               	clrz
  4082  01E7  1803               	skipnc
  4083  01E8  3E01               	addlw	1
  4084  01E9  1903               	skipnz
  4085  01EA  29EC               	goto	u3042
  4086  01EB  07C1               	addwf	___flmul@grs+2,f
  4087  01EC                     u3042:
  4088  01EC  083C               	movf	??___flmul+3,w
  4089  01ED  1103               	clrz
  4090  01EE  1803               	skipnc
  4091  01EF  3E01               	addlw	1
  4092  01F0  1903               	skipnz
  4093  01F1  29F3               	goto	u3043
  4094  01F2  07C2               	addwf	___flmul@grs+3,f
  4095  01F3                     u3043:
  4096  01F3                     l2365:
  4097  01F3  0832               	movf	___flmul@b+1,w
  4098  01F4  00FF               	movwf	btemp+1
  4099  01F5  087F               	movf	btemp+1,w
  4100  01F6  00A8               	movwf	__Umul8_16@multiplicand
  4101  01F7  0837               	movf	___flmul@a+2,w
  4102  01F8  160A  118A  27AA  120A  118A  	fcall	__Umul8_16
  4103  01FD  1283               	bcf	3,5	;RP0=0, select bank0
  4104  01FE  1303               	bcf	3,6	;RP1=0, select bank0
  4105  01FF  0829               	movf	?__Umul8_16+1,w
  4106  0200  00CA               	movwf	___flmul@temp+1
  4107  0201  0828               	movf	?__Umul8_16,w
  4108  0202  00C9               	movwf	___flmul@temp
  4109  0203  0849               	movf	___flmul@temp,w
  4110  0204  00B9               	movwf	??___flmul
  4111  0205  084A               	movf	___flmul@temp+1,w
  4112  0206  00BA               	movwf	??___flmul+1
  4113  0207  01BB               	clrf	??___flmul+2
  4114  0208  01BC               	clrf	??___flmul+3
  4115  0209  0839               	movf	??___flmul,w
  4116  020A  07C5               	addwf	___flmul@prod,f
  4117  020B  083A               	movf	??___flmul+1,w
  4118  020C  1103               	clrz
  4119  020D  1803               	skipnc
  4120  020E  3E01               	addlw	1
  4121  020F  1903               	skipnz
  4122  0210  2A12               	goto	u3051
  4123  0211  07C6               	addwf	___flmul@prod+1,f
  4124  0212                     u3051:
  4125  0212  083B               	movf	??___flmul+2,w
  4126  0213  1103               	clrz
  4127  0214  1803               	skipnc
  4128  0215  3E01               	addlw	1
  4129  0216  1903               	skipnz
  4130  0217  2A19               	goto	u3052
  4131  0218  07C7               	addwf	___flmul@prod+2,f
  4132  0219                     u3052:
  4133  0219  083C               	movf	??___flmul+3,w
  4134  021A  1103               	clrz
  4135  021B  1803               	skipnc
  4136  021C  3E01               	addlw	1
  4137  021D  1903               	skipnz
  4138  021E  2A20               	goto	u3053
  4139  021F  07C8               	addwf	___flmul@prod+3,f
  4140  0220                     u3053:
  4141  0220                     l2367:
  4142  0220  0833               	movf	___flmul@b+2,w
  4143  0221  00FF               	movwf	btemp+1
  4144  0222  087F               	movf	btemp+1,w
  4145  0223  00A8               	movwf	__Umul8_16@multiplicand
  4146  0224  0836               	movf	___flmul@a+1,w
  4147  0225  160A  118A  27AA  120A  118A  	fcall	__Umul8_16
  4148  022A  1283               	bcf	3,5	;RP0=0, select bank0
  4149  022B  1303               	bcf	3,6	;RP1=0, select bank0
  4150  022C  0829               	movf	?__Umul8_16+1,w
  4151  022D  00CA               	movwf	___flmul@temp+1
  4152  022E  0828               	movf	?__Umul8_16,w
  4153  022F  00C9               	movwf	___flmul@temp
  4154  0230                     l2369:
  4155  0230  0849               	movf	___flmul@temp,w
  4156  0231  00B9               	movwf	??___flmul
  4157  0232  084A               	movf	___flmul@temp+1,w
  4158  0233  00BA               	movwf	??___flmul+1
  4159  0234  01BB               	clrf	??___flmul+2
  4160  0235  01BC               	clrf	??___flmul+3
  4161  0236  0839               	movf	??___flmul,w
  4162  0237  07C5               	addwf	___flmul@prod,f
  4163  0238  083A               	movf	??___flmul+1,w
  4164  0239  1103               	clrz
  4165  023A  1803               	skipnc
  4166  023B  3E01               	addlw	1
  4167  023C  1903               	skipnz
  4168  023D  2A3F               	goto	u3061
  4169  023E  07C6               	addwf	___flmul@prod+1,f
  4170  023F                     u3061:
  4171  023F  083B               	movf	??___flmul+2,w
  4172  0240  1103               	clrz
  4173  0241  1803               	skipnc
  4174  0242  3E01               	addlw	1
  4175  0243  1903               	skipnz
  4176  0244  2A46               	goto	u3062
  4177  0245  07C7               	addwf	___flmul@prod+2,f
  4178  0246                     u3062:
  4179  0246  083C               	movf	??___flmul+3,w
  4180  0247  1103               	clrz
  4181  0248  1803               	skipnc
  4182  0249  3E01               	addlw	1
  4183  024A  1903               	skipnz
  4184  024B  2A4D               	goto	u3063
  4185  024C  07C8               	addwf	___flmul@prod+3,f
  4186  024D                     u3063:
  4187  024D  0833               	movf	___flmul@b+2,w
  4188  024E  00FF               	movwf	btemp+1
  4189  024F  087F               	movf	btemp+1,w
  4190  0250  00A8               	movwf	__Umul8_16@multiplicand
  4191  0251  0837               	movf	___flmul@a+2,w
  4192  0252  160A  118A  27AA  120A  118A  	fcall	__Umul8_16
  4193  0257  1283               	bcf	3,5	;RP0=0, select bank0
  4194  0258  1303               	bcf	3,6	;RP1=0, select bank0
  4195  0259  0829               	movf	?__Umul8_16+1,w
  4196  025A  00CA               	movwf	___flmul@temp+1
  4197  025B  0828               	movf	?__Umul8_16,w
  4198  025C  00C9               	movwf	___flmul@temp
  4199  025D                     l2371:
  4200  025D  0849               	movf	___flmul@temp,w
  4201  025E  00B9               	movwf	??___flmul
  4202  025F  084A               	movf	___flmul@temp+1,w
  4203  0260  00BA               	movwf	??___flmul+1
  4204  0261  01BB               	clrf	??___flmul+2
  4205  0262  01BC               	clrf	??___flmul+3
  4206  0263  3008               	movlw	8
  4207  0264                     u3075:
  4208  0264  1003               	clrc
  4209  0265  0DB9               	rlf	??___flmul,f
  4210  0266  0DBA               	rlf	??___flmul+1,f
  4211  0267  0DBB               	rlf	??___flmul+2,f
  4212  0268  0DBC               	rlf	??___flmul+3,f
  4213  0269                     u3070:
  4214  0269  3EFF               	addlw	-1
  4215  026A  1D03               	skipz
  4216  026B  2A64               	goto	u3075
  4217  026C  0839               	movf	??___flmul,w
  4218  026D  07C5               	addwf	___flmul@prod,f
  4219  026E  083A               	movf	??___flmul+1,w
  4220  026F  1103               	clrz
  4221  0270  1803               	skipnc
  4222  0271  3E01               	addlw	1
  4223  0272  1903               	skipnz
  4224  0273  2A75               	goto	u3081
  4225  0274  07C6               	addwf	___flmul@prod+1,f
  4226  0275                     u3081:
  4227  0275  083B               	movf	??___flmul+2,w
  4228  0276  1103               	clrz
  4229  0277  1803               	skipnc
  4230  0278  3E01               	addlw	1
  4231  0279  1903               	skipnz
  4232  027A  2A7C               	goto	u3082
  4233  027B  07C7               	addwf	___flmul@prod+2,f
  4234  027C                     u3082:
  4235  027C  083C               	movf	??___flmul+3,w
  4236  027D  1103               	clrz
  4237  027E  1803               	skipnc
  4238  027F  3E01               	addlw	1
  4239  0280  1903               	skipnz
  4240  0281  2A83               	goto	u3083
  4241  0282  07C8               	addwf	___flmul@prod+3,f
  4242  0283                     u3083:
  4243  0283                     l2373:
  4244  0283  083F               	movf	___flmul@grs,w
  4245  0284  00B9               	movwf	??___flmul
  4246  0285  0840               	movf	___flmul@grs+1,w
  4247  0286  00BA               	movwf	??___flmul+1
  4248  0287  0841               	movf	___flmul@grs+2,w
  4249  0288  00BB               	movwf	??___flmul+2
  4250  0289  0842               	movf	___flmul@grs+3,w
  4251  028A  00BC               	movwf	??___flmul+3
  4252  028B  3018               	movlw	24
  4253  028C                     u3095:
  4254  028C  1003               	clrc
  4255  028D  0CBC               	rrf	??___flmul+3,f
  4256  028E  0CBB               	rrf	??___flmul+2,f
  4257  028F  0CBA               	rrf	??___flmul+1,f
  4258  0290  0CB9               	rrf	??___flmul,f
  4259  0291                     u3090:
  4260  0291  3EFF               	addlw	-1
  4261  0292  1D03               	skipz
  4262  0293  2A8C               	goto	u3095
  4263  0294  0839               	movf	??___flmul,w
  4264  0295  07C5               	addwf	___flmul@prod,f
  4265  0296  083A               	movf	??___flmul+1,w
  4266  0297  1103               	clrz
  4267  0298  1803               	skipnc
  4268  0299  3E01               	addlw	1
  4269  029A  1903               	skipnz
  4270  029B  2A9D               	goto	u3101
  4271  029C  07C6               	addwf	___flmul@prod+1,f
  4272  029D                     u3101:
  4273  029D  083B               	movf	??___flmul+2,w
  4274  029E  1103               	clrz
  4275  029F  1803               	skipnc
  4276  02A0  3E01               	addlw	1
  4277  02A1  1903               	skipnz
  4278  02A2  2AA4               	goto	u3102
  4279  02A3  07C7               	addwf	___flmul@prod+2,f
  4280  02A4                     u3102:
  4281  02A4  083C               	movf	??___flmul+3,w
  4282  02A5  1103               	clrz
  4283  02A6  1803               	skipnc
  4284  02A7  3E01               	addlw	1
  4285  02A8  1903               	skipnz
  4286  02A9  2AAB               	goto	u3103
  4287  02AA  07C8               	addwf	___flmul@prod+3,f
  4288  02AB                     u3103:
  4289  02AB                     l2375:
  4290  02AB  3008               	movlw	8
  4291  02AC  00B9               	movwf	??___flmul
  4292  02AD                     u3115:
  4293  02AD  1003               	clrc
  4294  02AE  0DBF               	rlf	___flmul@grs,f
  4295  02AF  0DC0               	rlf	___flmul@grs+1,f
  4296  02B0  0DC1               	rlf	___flmul@grs+2,f
  4297  02B1  0DC2               	rlf	___flmul@grs+3,f
  4298  02B2  0BB9               	decfsz	??___flmul,f
  4299  02B3  2AAD               	goto	u3115
  4300  02B4                     l2377:
  4301  02B4  0844               	movf	___flmul@bexp,w
  4302  02B5  0743               	addwf	___flmul@aexp,w
  4303  02B6  00B9               	movwf	??___flmul
  4304  02B7  01BA               	clrf	??___flmul+1
  4305  02B8  0DBA               	rlf	??___flmul+1,f
  4306  02B9  0839               	movf	??___flmul,w
  4307  02BA  3E82               	addlw	130
  4308  02BB  00C9               	movwf	___flmul@temp
  4309  02BC  083A               	movf	??___flmul+1,w
  4310  02BD  1803               	skipnc
  4311  02BE  3E01               	addlw	1
  4312  02BF  3EFF               	addlw	255
  4313  02C0  00CA               	movwf	___flmul@temp+1
  4314  02C1  2ADF               	goto	l2389
  4315  02C2                     l2379:
  4316  02C2  3001               	movlw	1
  4317  02C3  00B9               	movwf	??___flmul
  4318  02C4                     u3125:
  4319  02C4  1003               	clrc
  4320  02C5  0DC5               	rlf	___flmul@prod,f
  4321  02C6  0DC6               	rlf	___flmul@prod+1,f
  4322  02C7  0DC7               	rlf	___flmul@prod+2,f
  4323  02C8  0DC8               	rlf	___flmul@prod+3,f
  4324  02C9  0BB9               	decfsz	??___flmul,f
  4325  02CA  2AC4               	goto	u3125
  4326  02CB                     l2381:
  4327  02CB  1FC2               	btfss	___flmul@grs+3,7
  4328  02CC  2ACE               	goto	u3131
  4329  02CD  2ACF               	goto	u3130
  4330  02CE                     u3131:
  4331  02CE  2AD0               	goto	l2385
  4332  02CF                     u3130:
  4333  02CF                     l2383:
  4334  02CF  1445               	bsf	___flmul@prod,0
  4335  02D0                     l2385:
  4336  02D0  3001               	movlw	1
  4337  02D1  00B9               	movwf	??___flmul
  4338  02D2                     u3145:
  4339  02D2  1003               	clrc
  4340  02D3  0DBF               	rlf	___flmul@grs,f
  4341  02D4  0DC0               	rlf	___flmul@grs+1,f
  4342  02D5  0DC1               	rlf	___flmul@grs+2,f
  4343  02D6  0DC2               	rlf	___flmul@grs+3,f
  4344  02D7  0BB9               	decfsz	??___flmul,f
  4345  02D8  2AD2               	goto	u3145
  4346  02D9                     l2387:
  4347  02D9  30FF               	movlw	255
  4348  02DA  07C9               	addwf	___flmul@temp,f
  4349  02DB  1803               	skipnc
  4350  02DC  0ACA               	incf	___flmul@temp+1,f
  4351  02DD  30FF               	movlw	255
  4352  02DE  07CA               	addwf	___flmul@temp+1,f
  4353  02DF                     l2389:
  4354  02DF  1FC7               	btfss	___flmul@prod+2,7
  4355  02E0  2AE2               	goto	u3151
  4356  02E1  2AE3               	goto	u3150
  4357  02E2                     u3151:
  4358  02E2  2AC2               	goto	l2379
  4359  02E3                     u3150:
  4360  02E3                     l2391:
  4361  02E3  01C3               	clrf	___flmul@aexp
  4362  02E4                     l2393:
  4363  02E4  1FC2               	btfss	___flmul@grs+3,7
  4364  02E5  2AE7               	goto	u3161
  4365  02E6  2AE8               	goto	u3160
  4366  02E7                     u3161:
  4367  02E7  2B04               	goto	l2401
  4368  02E8                     u3160:
  4369  02E8                     l2395:
  4370  02E8  30FF               	movlw	255
  4371  02E9  053F               	andwf	___flmul@grs,w
  4372  02EA  00B9               	movwf	??___flmul
  4373  02EB  30FF               	movlw	255
  4374  02EC  0540               	andwf	___flmul@grs+1,w
  4375  02ED  00BA               	movwf	??___flmul+1
  4376  02EE  30FF               	movlw	255
  4377  02EF  0541               	andwf	___flmul@grs+2,w
  4378  02F0  00BB               	movwf	??___flmul+2
  4379  02F1  307F               	movlw	127
  4380  02F2  0542               	andwf	___flmul@grs+3,w
  4381  02F3  00BC               	movwf	??___flmul+3
  4382  02F4  083C               	movf	??___flmul+3,w
  4383  02F5  043B               	iorwf	??___flmul+2,w
  4384  02F6  043A               	iorwf	??___flmul+1,w
  4385  02F7  0439               	iorwf	??___flmul,w
  4386  02F8  1903               	skipnz
  4387  02F9  2AFB               	goto	u3171
  4388  02FA  2AFC               	goto	u3170
  4389  02FB                     u3171:
  4390  02FB  2AFF               	goto	l703
  4391  02FC                     u3170:
  4392  02FC                     l2397:
  4393  02FC  01C3               	clrf	___flmul@aexp
  4394  02FD  0AC3               	incf	___flmul@aexp,f
  4395  02FE  2B04               	goto	l2401
  4396  02FF                     l703:
  4397  02FF  1C45               	btfss	___flmul@prod,0
  4398  0300  2B02               	goto	u3181
  4399  0301  2B03               	goto	u3180
  4400  0302                     u3181:
  4401  0302  2B04               	goto	l2401
  4402  0303                     u3180:
  4403  0303  2AFC               	goto	l2397
  4404  0304                     l2401:
  4405  0304  0843               	movf	___flmul@aexp,w
  4406  0305  1903               	btfsc	3,2
  4407  0306  2B08               	goto	u3191
  4408  0307  2B09               	goto	u3190
  4409  0308                     u3191:
  4410  0308  2B3A               	goto	l2411
  4411  0309                     u3190:
  4412  0309                     l2403:
  4413  0309  3001               	movlw	1
  4414  030A  07C5               	addwf	___flmul@prod,f
  4415  030B  3000               	movlw	0
  4416  030C  1803               	skipnc
  4417  030D  3001               	movlw	1
  4418  030E  07C6               	addwf	___flmul@prod+1,f
  4419  030F  3000               	movlw	0
  4420  0310  1803               	skipnc
  4421  0311  3001               	movlw	1
  4422  0312  07C7               	addwf	___flmul@prod+2,f
  4423  0313  3000               	movlw	0
  4424  0314  1803               	skipnc
  4425  0315  3001               	movlw	1
  4426  0316  07C8               	addwf	___flmul@prod+3,f
  4427  0317                     l2405:
  4428  0317  1C48               	btfss	___flmul@prod+3,0
  4429  0318  2B1A               	goto	u3201
  4430  0319  2B1B               	goto	u3200
  4431  031A                     u3201:
  4432  031A  2B3A               	goto	l2411
  4433  031B                     u3200:
  4434  031B                     l2407:
  4435  031B  0845               	movf	___flmul@prod,w
  4436  031C  00B9               	movwf	??___flmul
  4437  031D  0846               	movf	___flmul@prod+1,w
  4438  031E  00BA               	movwf	??___flmul+1
  4439  031F  0847               	movf	___flmul@prod+2,w
  4440  0320  00BB               	movwf	??___flmul+2
  4441  0321  0848               	movf	___flmul@prod+3,w
  4442  0322  00BC               	movwf	??___flmul+3
  4443  0323  3001               	movlw	1
  4444  0324  00BD               	movwf	??___flmul+4
  4445  0325                     u3215:
  4446  0325  0D3C               	rlf	??___flmul+3,w
  4447  0326  0CBC               	rrf	??___flmul+3,f
  4448  0327  0CBB               	rrf	??___flmul+2,f
  4449  0328  0CBA               	rrf	??___flmul+1,f
  4450  0329  0CB9               	rrf	??___flmul,f
  4451  032A                     u3210:
  4452  032A  0BBD               	decfsz	??___flmul+4,f
  4453  032B  2B25               	goto	u3215
  4454  032C  083C               	movf	??___flmul+3,w
  4455  032D  00C8               	movwf	___flmul@prod+3
  4456  032E  083B               	movf	??___flmul+2,w
  4457  032F  00C7               	movwf	___flmul@prod+2
  4458  0330  083A               	movf	??___flmul+1,w
  4459  0331  00C6               	movwf	___flmul@prod+1
  4460  0332  0839               	movf	??___flmul,w
  4461  0333  00C5               	movwf	___flmul@prod
  4462  0334                     l2409:
  4463  0334  3001               	movlw	1
  4464  0335  07C9               	addwf	___flmul@temp,f
  4465  0336  1803               	skipnc
  4466  0337  0ACA               	incf	___flmul@temp+1,f
  4467  0338  3000               	movlw	0
  4468  0339  07CA               	addwf	___flmul@temp+1,f
  4469  033A                     l2411:
  4470  033A  084A               	movf	___flmul@temp+1,w
  4471  033B  3A80               	xorlw	128
  4472  033C  00FF               	movwf	btemp+1
  4473  033D  3080               	movlw	128
  4474  033E  027F               	subwf	btemp+1,w
  4475  033F  1D03               	skipz
  4476  0340  2B43               	goto	u3225
  4477  0341  30FF               	movlw	255
  4478  0342  0249               	subwf	___flmul@temp,w
  4479  0343                     u3225:
  4480  0343  1C03               	skipc
  4481  0344  2B46               	goto	u3221
  4482  0345  2B47               	goto	u3220
  4483  0346                     u3221:
  4484  0346  2B52               	goto	l2415
  4485  0347                     u3220:
  4486  0347                     l2413:
  4487  0347  307F               	movlw	127
  4488  0348  1283               	bcf	3,5	;RP0=0, select bank0
  4489  0349  1303               	bcf	3,6	;RP1=0, select bank0
  4490  034A  00C8               	movwf	___flmul@prod+3
  4491  034B  3080               	movlw	128
  4492  034C  00C7               	movwf	___flmul@prod+2
  4493  034D  3000               	movlw	0
  4494  034E  00C6               	movwf	___flmul@prod+1
  4495  034F  3000               	movlw	0
  4496  0350  00C5               	movwf	___flmul@prod
  4497  0351  2B87               	goto	l709
  4498  0352                     l2415:
  4499  0352  1283               	bcf	3,5	;RP0=0, select bank0
  4500  0353  1303               	bcf	3,6	;RP1=0, select bank0
  4501  0354  084A               	movf	___flmul@temp+1,w
  4502  0355  3A80               	xorlw	128
  4503  0356  00FF               	movwf	btemp+1
  4504  0357  3080               	movlw	128
  4505  0358  027F               	subwf	btemp+1,w
  4506  0359  1D03               	skipz
  4507  035A  2B5D               	goto	u3235
  4508  035B  3001               	movlw	1
  4509  035C  0249               	subwf	___flmul@temp,w
  4510  035D                     u3235:
  4511  035D  1803               	skipnc
  4512  035E  2B60               	goto	u3231
  4513  035F  2B61               	goto	u3230
  4514  0360                     u3231:
  4515  0360  2B6D               	goto	l2421
  4516  0361                     u3230:
  4517  0361                     l2417:
  4518  0361  3000               	movlw	0
  4519  0362  1283               	bcf	3,5	;RP0=0, select bank0
  4520  0363  1303               	bcf	3,6	;RP1=0, select bank0
  4521  0364  00C8               	movwf	___flmul@prod+3
  4522  0365  3000               	movlw	0
  4523  0366  00C7               	movwf	___flmul@prod+2
  4524  0367  3000               	movlw	0
  4525  0368  00C6               	movwf	___flmul@prod+1
  4526  0369  3000               	movlw	0
  4527  036A  00C5               	movwf	___flmul@prod
  4528  036B                     l2419:
  4529  036B  01BE               	clrf	___flmul@sign
  4530  036C  2B87               	goto	l709
  4531  036D                     l2421:
  4532  036D  1283               	bcf	3,5	;RP0=0, select bank0
  4533  036E  1303               	bcf	3,6	;RP1=0, select bank0
  4534  036F  0849               	movf	___flmul@temp,w
  4535  0370  00FF               	movwf	btemp+1
  4536  0371  087F               	movf	btemp+1,w
  4537  0372  00C4               	movwf	___flmul@bexp
  4538  0373                     l2423:
  4539  0373  30FF               	movlw	255
  4540  0374  05C5               	andwf	___flmul@prod,f
  4541  0375  30FF               	movlw	255
  4542  0376  05C6               	andwf	___flmul@prod+1,f
  4543  0377  307F               	movlw	127
  4544  0378  05C7               	andwf	___flmul@prod+2,f
  4545  0379  3000               	movlw	0
  4546  037A  05C8               	andwf	___flmul@prod+3,f
  4547  037B                     l2425:
  4548  037B  1C44               	btfss	___flmul@bexp,0
  4549  037C  2B7E               	goto	u3241
  4550  037D  2B7F               	goto	u3240
  4551  037E                     u3241:
  4552  037E  2B80               	goto	l2429
  4553  037F                     u3240:
  4554  037F                     l2427:
  4555  037F  17C7               	bsf	___flmul@prod+2,7
  4556  0380                     l2429:
  4557  0380  0844               	movf	___flmul@bexp,w
  4558  0381  00B9               	movwf	??___flmul
  4559  0382  1003               	clrc
  4560  0383  0C39               	rrf	??___flmul,w
  4561  0384  00FF               	movwf	btemp+1
  4562  0385  087F               	movf	btemp+1,w
  4563  0386  00C8               	movwf	___flmul@prod+3
  4564  0387                     l709:
  4565  0387  083E               	movf	___flmul@sign,w
  4566  0388  00FF               	movwf	btemp+1
  4567  0389  087F               	movf	btemp+1,w
  4568  038A  04C8               	iorwf	___flmul@prod+3,f
  4569  038B                     l2431:
  4570  038B  0848               	movf	___flmul@prod+3,w
  4571  038C  00B4               	movwf	?___flmul+3
  4572  038D  0847               	movf	___flmul@prod+2,w
  4573  038E  00B3               	movwf	?___flmul+2
  4574  038F  0846               	movf	___flmul@prod+1,w
  4575  0390  00B2               	movwf	?___flmul+1
  4576  0391  0845               	movf	___flmul@prod,w
  4577  0392  00B1               	movwf	?___flmul
  4578  0393                     l697:
  4579  0393  0008               	return
  4580  0394                     __end_of___flmul:
  4581                           
  4582                           	psect	text10
  4583  17AA                     __ptext10:	
  4584 ;; *************** function __Umul8_16 *****************
  4585 ;; Defined at:
  4586 ;;		line 4 in file "C:\Program Files\Microchip\xc8\v2.20\pic\sources\c90\common\Umul8_16.c"
  4587 ;; Parameters:    Size  Location     Type
  4588 ;;  multiplier      1    wreg     unsigned char 
  4589 ;;  multiplicand    1    8[BANK0 ] unsigned char 
  4590 ;; Auto vars:     Size  Location     Type
  4591 ;;  multiplier      1   16[BANK0 ] unsigned char 
  4592 ;;  word_mpld       2   14[BANK0 ] unsigned int 
  4593 ;;  product         2   12[BANK0 ] unsigned int 
  4594 ;; Return value:  Size  Location     Type
  4595 ;;                  2    8[BANK0 ] unsigned int 
  4596 ;; Registers used:
  4597 ;;		wreg, status,2, status,0
  4598 ;; Tracked objects:
  4599 ;;		On entry : 0/0
  4600 ;;		On exit  : 0/0
  4601 ;;		Unchanged: 0/0
  4602 ;; Data sizes:     COMMON   BANK0   BANK1   BANK3   BANK2
  4603 ;;      Params:         0       2       0       0       0
  4604 ;;      Locals:         0       5       0       0       0
  4605 ;;      Temps:          0       2       0       0       0
  4606 ;;      Totals:         0       9       0       0       0
  4607 ;;Total ram usage:        9 bytes
  4608 ;; Hardware stack levels used:    1
  4609 ;; Hardware stack levels required when called:    2
  4610 ;; This function calls:
  4611 ;;		Nothing
  4612 ;; This function is called by:
  4613 ;;		___flmul
  4614 ;; This function uses a non-reentrant model
  4615 ;;
  4616                           
  4617                           
  4618                           ;psect for function __Umul8_16
  4619  17AA                     __Umul8_16:
  4620                           
  4621                           ;incstack = 0
  4622                           ; Regs used in __Umul8_16: [wreg+status,2+status,0]
  4623                           ;__Umul8_16@multiplier stored from wreg
  4624  17AA  1283               	bcf	3,5	;RP0=0, select bank0
  4625  17AB  1303               	bcf	3,6	;RP1=0, select bank0
  4626  17AC  00B0               	movwf	__Umul8_16@multiplier
  4627  17AD                     l1859:
  4628  17AD  01AC               	clrf	__Umul8_16@product
  4629  17AE  01AD               	clrf	__Umul8_16@product+1
  4630  17AF                     l1861:
  4631  17AF  0828               	movf	__Umul8_16@multiplicand,w
  4632  17B0  00AA               	movwf	??__Umul8_16
  4633  17B1  01AB               	clrf	??__Umul8_16+1
  4634  17B2  082A               	movf	??__Umul8_16,w
  4635  17B3  00AE               	movwf	__Umul8_16@word_mpld
  4636  17B4  082B               	movf	??__Umul8_16+1,w
  4637  17B5  00AF               	movwf	__Umul8_16@word_mpld+1
  4638  17B6                     l1863:
  4639  17B6  1C30               	btfss	__Umul8_16@multiplier,0
  4640  17B7  2FB9               	goto	u2061
  4641  17B8  2FBA               	goto	u2060
  4642  17B9                     u2061:
  4643  17B9  2FC0               	goto	l716
  4644  17BA                     u2060:
  4645  17BA                     l1865:
  4646  17BA  082E               	movf	__Umul8_16@word_mpld,w
  4647  17BB  07AC               	addwf	__Umul8_16@product,f
  4648  17BC  1803               	skipnc
  4649  17BD  0AAD               	incf	__Umul8_16@product+1,f
  4650  17BE  082F               	movf	__Umul8_16@word_mpld+1,w
  4651  17BF  07AD               	addwf	__Umul8_16@product+1,f
  4652  17C0                     l716:
  4653  17C0  3001               	movlw	1
  4654  17C1                     u2075:
  4655  17C1  1003               	clrc
  4656  17C2  0DAE               	rlf	__Umul8_16@word_mpld,f
  4657  17C3  0DAF               	rlf	__Umul8_16@word_mpld+1,f
  4658  17C4  3EFF               	addlw	-1
  4659  17C5  1D03               	skipz
  4660  17C6  2FC1               	goto	u2075
  4661  17C7  1003               	clrc
  4662  17C8  0CB0               	rrf	__Umul8_16@multiplier,f
  4663  17C9                     l1867:
  4664  17C9  0830               	movf	__Umul8_16@multiplier,w
  4665  17CA  1D03               	btfss	3,2
  4666  17CB  2FCD               	goto	u2081
  4667  17CC  2FCE               	goto	u2080
  4668  17CD                     u2081:
  4669  17CD  2FB6               	goto	l1863
  4670  17CE                     u2080:
  4671  17CE                     l1869:
  4672  17CE  082D               	movf	__Umul8_16@product+1,w
  4673  17CF  00A9               	movwf	?__Umul8_16+1
  4674  17D0  082C               	movf	__Umul8_16@product,w
  4675  17D1  00A8               	movwf	?__Umul8_16
  4676  17D2                     l718:
  4677  17D2  0008               	return
  4678  17D3                     __end_of__Umul8_16:
  4679                           
  4680                           	psect	text11
  4681  0D68                     __ptext11:	
  4682 ;; *************** function ___fldiv *****************
  4683 ;; Defined at:
  4684 ;;		line 8 in file "C:\Program Files\Microchip\xc8\v2.20\pic\sources\c90\common\sprcdiv.c"
  4685 ;; Parameters:    Size  Location     Type
  4686 ;;  a               4   43[BANK0 ] unsigned int 
  4687 ;;  b               4   47[BANK0 ] unsigned int 
  4688 ;; Auto vars:     Size  Location     Type
  4689 ;;  grs             4    7[BANK1 ] unsigned long 
  4690 ;;  rem             4    0[BANK1 ] unsigned long 
  4691 ;;  new_exp         2    5[BANK1 ] int 
  4692 ;;  aexp            1   12[BANK1 ] unsigned char 
  4693 ;;  bexp            1   11[BANK1 ] unsigned char 
  4694 ;;  sign            1    4[BANK1 ] unsigned char 
  4695 ;; Return value:  Size  Location     Type
  4696 ;;                  4   43[BANK0 ] unsigned char 
  4697 ;; Registers used:
  4698 ;;		wreg, status,2, status,0, btemp+1
  4699 ;; Tracked objects:
  4700 ;;		On entry : 0/0
  4701 ;;		On exit  : 0/0
  4702 ;;		Unchanged: 0/0
  4703 ;; Data sizes:     COMMON   BANK0   BANK1   BANK3   BANK2
  4704 ;;      Params:         0       8       0       0       0
  4705 ;;      Locals:         0       0      13       0       0
  4706 ;;      Temps:          0       5       0       0       0
  4707 ;;      Totals:         0      13      13       0       0
  4708 ;;Total ram usage:       26 bytes
  4709 ;; Hardware stack levels used:    1
  4710 ;; Hardware stack levels required when called:    2
  4711 ;; This function calls:
  4712 ;;		Nothing
  4713 ;; This function is called by:
  4714 ;;		_main
  4715 ;; This function uses a non-reentrant model
  4716 ;;
  4717                           
  4718                           
  4719                           ;psect for function ___fldiv
  4720  0D68                     ___fldiv:
  4721  0D68                     l2669:	
  4722                           ;incstack = 0
  4723                           ; Regs used in ___fldiv: [wreg+status,2+status,0+btemp+1]
  4724                           
  4725  0D68  1283               	bcf	3,5	;RP0=0, select bank0
  4726  0D69  1303               	bcf	3,6	;RP1=0, select bank0
  4727  0D6A  0852               	movf	___fldiv@b+3,w
  4728  0D6B  3980               	andlw	128
  4729  0D6C  00FF               	movwf	btemp+1
  4730  0D6D  087F               	movf	btemp+1,w
  4731  0D6E  1683               	bsf	3,5	;RP0=1, select bank1
  4732  0D6F  1303               	bcf	3,6	;RP1=0, select bank1
  4733  0D70  00CE               	movwf	___fldiv@sign^(0+128)
  4734  0D71                     l2671:
  4735  0D71  1283               	bcf	3,5	;RP0=0, select bank0
  4736  0D72  1303               	bcf	3,6	;RP1=0, select bank0
  4737  0D73  0852               	movf	___fldiv@b+3,w
  4738  0D74  00D3               	movwf	??___fldiv
  4739  0D75  0753               	addwf	??___fldiv,w
  4740  0D76  00FF               	movwf	btemp+1
  4741  0D77  087F               	movf	btemp+1,w
  4742  0D78  1683               	bsf	3,5	;RP0=1, select bank1
  4743  0D79  1303               	bcf	3,6	;RP1=0, select bank1
  4744  0D7A  00D5               	movwf	___fldiv@bexp^(0+128)
  4745  0D7B                     l2673:
  4746  0D7B  1283               	bcf	3,5	;RP0=0, select bank0
  4747  0D7C  1303               	bcf	3,6	;RP1=0, select bank0
  4748  0D7D  1FD1               	btfss	___fldiv@b+2,7
  4749  0D7E  2D80               	goto	u3631
  4750  0D7F  2D81               	goto	u3630
  4751  0D80                     u3631:
  4752  0D80  2D84               	goto	l2677
  4753  0D81                     u3630:
  4754  0D81                     l2675:
  4755  0D81  1683               	bsf	3,5	;RP0=1, select bank1
  4756  0D82  1303               	bcf	3,6	;RP1=0, select bank1
  4757  0D83  1455               	bsf	___fldiv@bexp^(0+128),0
  4758  0D84                     l2677:
  4759  0D84  1683               	bsf	3,5	;RP0=1, select bank1
  4760  0D85  1303               	bcf	3,6	;RP1=0, select bank1
  4761  0D86  0855               	movf	___fldiv@bexp^(0+128),w
  4762  0D87  1903               	btfsc	3,2
  4763  0D88  2D8A               	goto	u3641
  4764  0D89  2D8B               	goto	u3640
  4765  0D8A                     u3641:
  4766  0D8A  2D9E               	goto	l2687
  4767  0D8B                     u3640:
  4768  0D8B                     l2679:
  4769  0D8B  0A55               	incf	___fldiv@bexp^(0+128),w
  4770  0D8C  1D03               	btfss	3,2
  4771  0D8D  2D8F               	goto	u3651
  4772  0D8E  2D90               	goto	u3650
  4773  0D8F                     u3651:
  4774  0D8F  2D9A               	goto	l2683
  4775  0D90                     u3650:
  4776  0D90                     l2681:
  4777  0D90  3000               	movlw	0
  4778  0D91  1283               	bcf	3,5	;RP0=0, select bank0
  4779  0D92  1303               	bcf	3,6	;RP1=0, select bank0
  4780  0D93  00D2               	movwf	___fldiv@b+3
  4781  0D94  3000               	movlw	0
  4782  0D95  00D1               	movwf	___fldiv@b+2
  4783  0D96  3000               	movlw	0
  4784  0D97  00D0               	movwf	___fldiv@b+1
  4785  0D98  3000               	movlw	0
  4786  0D99  00CF               	movwf	___fldiv@b
  4787  0D9A                     l2683:
  4788  0D9A  1283               	bcf	3,5	;RP0=0, select bank0
  4789  0D9B  17D1               	bsf	___fldiv@b+2,7
  4790  0D9C                     l2685:
  4791  0D9C  01D2               	clrf	___fldiv@b+3
  4792  0D9D  2DA8               	goto	l2689
  4793  0D9E                     l2687:
  4794  0D9E  3000               	movlw	0
  4795  0D9F  1283               	bcf	3,5	;RP0=0, select bank0
  4796  0DA0  1303               	bcf	3,6	;RP1=0, select bank0
  4797  0DA1  00D2               	movwf	___fldiv@b+3
  4798  0DA2  3000               	movlw	0
  4799  0DA3  00D1               	movwf	___fldiv@b+2
  4800  0DA4  3000               	movlw	0
  4801  0DA5  00D0               	movwf	___fldiv@b+1
  4802  0DA6  3000               	movlw	0
  4803  0DA7  00CF               	movwf	___fldiv@b
  4804  0DA8                     l2689:
  4805  0DA8  084E               	movf	___fldiv@a+3,w
  4806  0DA9  3980               	andlw	128
  4807  0DAA  00FF               	movwf	btemp+1
  4808  0DAB  087F               	movf	btemp+1,w
  4809  0DAC  1683               	bsf	3,5	;RP0=1, select bank1
  4810  0DAD  1303               	bcf	3,6	;RP1=0, select bank1
  4811  0DAE  06CE               	xorwf	___fldiv@sign^(0+128),f
  4812  0DAF                     l2691:
  4813  0DAF  1283               	bcf	3,5	;RP0=0, select bank0
  4814  0DB0  1303               	bcf	3,6	;RP1=0, select bank0
  4815  0DB1  084E               	movf	___fldiv@a+3,w
  4816  0DB2  00D3               	movwf	??___fldiv
  4817  0DB3  0753               	addwf	??___fldiv,w
  4818  0DB4  00FF               	movwf	btemp+1
  4819  0DB5  087F               	movf	btemp+1,w
  4820  0DB6  1683               	bsf	3,5	;RP0=1, select bank1
  4821  0DB7  1303               	bcf	3,6	;RP1=0, select bank1
  4822  0DB8  00D6               	movwf	___fldiv@aexp^(0+128)
  4823  0DB9                     l2693:
  4824  0DB9  1283               	bcf	3,5	;RP0=0, select bank0
  4825  0DBA  1303               	bcf	3,6	;RP1=0, select bank0
  4826  0DBB  1FCD               	btfss	___fldiv@a+2,7
  4827  0DBC  2DBE               	goto	u3661
  4828  0DBD  2DBF               	goto	u3660
  4829  0DBE                     u3661:
  4830  0DBE  2DC2               	goto	l2697
  4831  0DBF                     u3660:
  4832  0DBF                     l2695:
  4833  0DBF  1683               	bsf	3,5	;RP0=1, select bank1
  4834  0DC0  1303               	bcf	3,6	;RP1=0, select bank1
  4835  0DC1  1456               	bsf	___fldiv@aexp^(0+128),0
  4836  0DC2                     l2697:
  4837  0DC2  1683               	bsf	3,5	;RP0=1, select bank1
  4838  0DC3  1303               	bcf	3,6	;RP1=0, select bank1
  4839  0DC4  0856               	movf	___fldiv@aexp^(0+128),w
  4840  0DC5  1903               	btfsc	3,2
  4841  0DC6  2DC8               	goto	u3671
  4842  0DC7  2DC9               	goto	u3670
  4843  0DC8                     u3671:
  4844  0DC8  2DDC               	goto	l2707
  4845  0DC9                     u3670:
  4846  0DC9                     l2699:
  4847  0DC9  0A56               	incf	___fldiv@aexp^(0+128),w
  4848  0DCA  1D03               	btfss	3,2
  4849  0DCB  2DCD               	goto	u3681
  4850  0DCC  2DCE               	goto	u3680
  4851  0DCD                     u3681:
  4852  0DCD  2DD8               	goto	l2703
  4853  0DCE                     u3680:
  4854  0DCE                     l2701:
  4855  0DCE  3000               	movlw	0
  4856  0DCF  1283               	bcf	3,5	;RP0=0, select bank0
  4857  0DD0  1303               	bcf	3,6	;RP1=0, select bank0
  4858  0DD1  00CE               	movwf	___fldiv@a+3
  4859  0DD2  3000               	movlw	0
  4860  0DD3  00CD               	movwf	___fldiv@a+2
  4861  0DD4  3000               	movlw	0
  4862  0DD5  00CC               	movwf	___fldiv@a+1
  4863  0DD6  3000               	movlw	0
  4864  0DD7  00CB               	movwf	___fldiv@a
  4865  0DD8                     l2703:
  4866  0DD8  1283               	bcf	3,5	;RP0=0, select bank0
  4867  0DD9  17CD               	bsf	___fldiv@a+2,7
  4868  0DDA                     l2705:
  4869  0DDA  01CE               	clrf	___fldiv@a+3
  4870  0DDB  2DE6               	goto	l657
  4871  0DDC                     l2707:
  4872  0DDC  3000               	movlw	0
  4873  0DDD  1283               	bcf	3,5	;RP0=0, select bank0
  4874  0DDE  1303               	bcf	3,6	;RP1=0, select bank0
  4875  0DDF  00CE               	movwf	___fldiv@a+3
  4876  0DE0  3000               	movlw	0
  4877  0DE1  00CD               	movwf	___fldiv@a+2
  4878  0DE2  3000               	movlw	0
  4879  0DE3  00CC               	movwf	___fldiv@a+1
  4880  0DE4  3000               	movlw	0
  4881  0DE5  00CB               	movwf	___fldiv@a
  4882  0DE6                     l657:
  4883  0DE6  084E               	movf	___fldiv@a+3,w
  4884  0DE7  044D               	iorwf	___fldiv@a+2,w
  4885  0DE8  044C               	iorwf	___fldiv@a+1,w
  4886  0DE9  044B               	iorwf	___fldiv@a,w
  4887  0DEA  1D03               	skipz
  4888  0DEB  2DED               	goto	u3691
  4889  0DEC  2DEE               	goto	u3690
  4890  0DED                     u3691:
  4891  0DED  2E0B               	goto	l2717
  4892  0DEE                     u3690:
  4893  0DEE                     l2709:
  4894  0DEE  3000               	movlw	0
  4895  0DEF  00D2               	movwf	___fldiv@b+3
  4896  0DF0  3000               	movlw	0
  4897  0DF1  00D1               	movwf	___fldiv@b+2
  4898  0DF2  3000               	movlw	0
  4899  0DF3  00D0               	movwf	___fldiv@b+1
  4900  0DF4  3000               	movlw	0
  4901  0DF5  00CF               	movwf	___fldiv@b
  4902  0DF6  3080               	movlw	128
  4903  0DF7  04D1               	iorwf	___fldiv@b+2,f
  4904  0DF8  307F               	movlw	127
  4905  0DF9  04D2               	iorwf	___fldiv@b+3,f
  4906  0DFA                     l2711:
  4907  0DFA  1683               	bsf	3,5	;RP0=1, select bank1
  4908  0DFB  1303               	bcf	3,6	;RP1=0, select bank1
  4909  0DFC  084E               	movf	___fldiv@sign^(0+128),w
  4910  0DFD  00FF               	movwf	btemp+1
  4911  0DFE  087F               	movf	btemp+1,w
  4912  0DFF  1283               	bcf	3,5	;RP0=0, select bank0
  4913  0E00  1303               	bcf	3,6	;RP1=0, select bank0
  4914  0E01  04D2               	iorwf	___fldiv@b+3,f
  4915  0E02                     l2713:
  4916  0E02  0852               	movf	___fldiv@b+3,w
  4917  0E03  00CE               	movwf	?___fldiv+3
  4918  0E04  0851               	movf	___fldiv@b+2,w
  4919  0E05  00CD               	movwf	?___fldiv+2
  4920  0E06  0850               	movf	___fldiv@b+1,w
  4921  0E07  00CC               	movwf	?___fldiv+1
  4922  0E08  084F               	movf	___fldiv@b,w
  4923  0E09  00CB               	movwf	?___fldiv
  4924  0E0A  2FFF               	goto	l659
  4925  0E0B                     l2717:
  4926  0E0B  1683               	bsf	3,5	;RP0=1, select bank1
  4927  0E0C  1303               	bcf	3,6	;RP1=0, select bank1
  4928  0E0D  0855               	movf	___fldiv@bexp^(0+128),w
  4929  0E0E  1D03               	btfss	3,2
  4930  0E0F  2E11               	goto	u3701
  4931  0E10  2E12               	goto	u3700
  4932  0E11                     u3701:
  4933  0E11  2E1D               	goto	l2723
  4934  0E12                     u3700:
  4935  0E12                     l2719:
  4936  0E12  3000               	movlw	0
  4937  0E13  1283               	bcf	3,5	;RP0=0, select bank0
  4938  0E14  1303               	bcf	3,6	;RP1=0, select bank0
  4939  0E15  00CE               	movwf	?___fldiv+3
  4940  0E16  3000               	movlw	0
  4941  0E17  00CD               	movwf	?___fldiv+2
  4942  0E18  3000               	movlw	0
  4943  0E19  00CC               	movwf	?___fldiv+1
  4944  0E1A  3000               	movlw	0
  4945  0E1B  00CB               	movwf	?___fldiv
  4946  0E1C  2FFF               	goto	l659
  4947  0E1D                     l2723:
  4948  0E1D  0855               	movf	___fldiv@bexp^(0+128),w
  4949  0E1E  1283               	bcf	3,5	;RP0=0, select bank0
  4950  0E1F  1303               	bcf	3,6	;RP1=0, select bank0
  4951  0E20  00D3               	movwf	??___fldiv
  4952  0E21  01D4               	clrf	??___fldiv+1
  4953  0E22  0854               	movf	??___fldiv+1,w
  4954  0E23  00D6               	movwf	??___fldiv+3
  4955  0E24  1683               	bsf	3,5	;RP0=1, select bank1
  4956  0E25  1303               	bcf	3,6	;RP1=0, select bank1
  4957  0E26  0856               	movf	___fldiv@aexp^(0+128),w
  4958  0E27  1283               	bcf	3,5	;RP0=0, select bank0
  4959  0E28  1303               	bcf	3,6	;RP1=0, select bank0
  4960  0E29  0253               	subwf	??___fldiv,w
  4961  0E2A  00D5               	movwf	??___fldiv+2
  4962  0E2B  1C03               	skipc
  4963  0E2C  03D6               	decf	??___fldiv+3,f
  4964  0E2D  0855               	movf	??___fldiv+2,w
  4965  0E2E  3E7F               	addlw	127
  4966  0E2F  1683               	bsf	3,5	;RP0=1, select bank1
  4967  0E30  1303               	bcf	3,6	;RP1=0, select bank1
  4968  0E31  00CF               	movwf	___fldiv@new_exp^(0+128)
  4969  0E32  1283               	bcf	3,5	;RP0=0, select bank0
  4970  0E33  1303               	bcf	3,6	;RP1=0, select bank0
  4971  0E34  0856               	movf	??___fldiv+3,w
  4972  0E35  1803               	skipnc
  4973  0E36  3E01               	addlw	1
  4974  0E37  3E00               	addlw	0
  4975  0E38  1683               	bsf	3,5	;RP0=1, select bank1
  4976  0E39  1303               	bcf	3,6	;RP1=0, select bank1
  4977  0E3A  00D0               	movwf	(___fldiv@new_exp+1)^(0+128)
  4978  0E3B                     l2725:
  4979  0E3B  1283               	bcf	3,5	;RP0=0, select bank0
  4980  0E3C  1303               	bcf	3,6	;RP1=0, select bank0
  4981  0E3D  0852               	movf	___fldiv@b+3,w
  4982  0E3E  1683               	bsf	3,5	;RP0=1, select bank1
  4983  0E3F  1303               	bcf	3,6	;RP1=0, select bank1
  4984  0E40  00CD               	movwf	(___fldiv@rem+3)^(0+128)
  4985  0E41  1283               	bcf	3,5	;RP0=0, select bank0
  4986  0E42  1303               	bcf	3,6	;RP1=0, select bank0
  4987  0E43  0851               	movf	___fldiv@b+2,w
  4988  0E44  1683               	bsf	3,5	;RP0=1, select bank1
  4989  0E45  1303               	bcf	3,6	;RP1=0, select bank1
  4990  0E46  00CC               	movwf	(___fldiv@rem+2)^(0+128)
  4991  0E47  1283               	bcf	3,5	;RP0=0, select bank0
  4992  0E48  1303               	bcf	3,6	;RP1=0, select bank0
  4993  0E49  0850               	movf	___fldiv@b+1,w
  4994  0E4A  1683               	bsf	3,5	;RP0=1, select bank1
  4995  0E4B  1303               	bcf	3,6	;RP1=0, select bank1
  4996  0E4C  00CB               	movwf	(___fldiv@rem+1)^(0+128)
  4997  0E4D  1283               	bcf	3,5	;RP0=0, select bank0
  4998  0E4E  1303               	bcf	3,6	;RP1=0, select bank0
  4999  0E4F  084F               	movf	___fldiv@b,w
  5000  0E50  1683               	bsf	3,5	;RP0=1, select bank1
  5001  0E51  1303               	bcf	3,6	;RP1=0, select bank1
  5002  0E52  00CA               	movwf	___fldiv@rem^(0+128)
  5003  0E53                     l2727:
  5004  0E53  3000               	movlw	0
  5005  0E54  1283               	bcf	3,5	;RP0=0, select bank0
  5006  0E55  1303               	bcf	3,6	;RP1=0, select bank0
  5007  0E56  00D2               	movwf	___fldiv@b+3
  5008  0E57  3000               	movlw	0
  5009  0E58  00D1               	movwf	___fldiv@b+2
  5010  0E59  3000               	movlw	0
  5011  0E5A  00D0               	movwf	___fldiv@b+1
  5012  0E5B  3000               	movlw	0
  5013  0E5C  00CF               	movwf	___fldiv@b
  5014  0E5D                     l2729:
  5015  0E5D  3000               	movlw	0
  5016  0E5E  1683               	bsf	3,5	;RP0=1, select bank1
  5017  0E5F  1303               	bcf	3,6	;RP1=0, select bank1
  5018  0E60  00D4               	movwf	(___fldiv@grs+3)^(0+128)
  5019  0E61  3000               	movlw	0
  5020  0E62  00D3               	movwf	(___fldiv@grs+2)^(0+128)
  5021  0E63  3000               	movlw	0
  5022  0E64  00D2               	movwf	(___fldiv@grs+1)^(0+128)
  5023  0E65  3000               	movlw	0
  5024  0E66  00D1               	movwf	___fldiv@grs^(0+128)
  5025  0E67                     l2731:
  5026  0E67  01D6               	clrf	___fldiv@aexp^(0+128)
  5027  0E68  2EEB               	goto	l2751
  5028  0E69                     l2733:
  5029  0E69  0856               	movf	___fldiv@aexp^(0+128),w
  5030  0E6A  1903               	btfsc	3,2
  5031  0E6B  2E6D               	goto	u3711
  5032  0E6C  2E6E               	goto	u3710
  5033  0E6D                     u3711:
  5034  0E6D  2E9D               	goto	l2743
  5035  0E6E                     u3710:
  5036  0E6E                     l2735:
  5037  0E6E  3001               	movlw	1
  5038  0E6F  1283               	bcf	3,5	;RP0=0, select bank0
  5039  0E70  1303               	bcf	3,6	;RP1=0, select bank0
  5040  0E71  00D3               	movwf	??___fldiv
  5041  0E72                     u3725:
  5042  0E72  1003               	clrc
  5043  0E73  1683               	bsf	3,5	;RP0=1, select bank1
  5044  0E74  1303               	bcf	3,6	;RP1=0, select bank1
  5045  0E75  0DCA               	rlf	___fldiv@rem^(0+128),f
  5046  0E76  0DCB               	rlf	(___fldiv@rem+1)^(0+128),f
  5047  0E77  0DCC               	rlf	(___fldiv@rem+2)^(0+128),f
  5048  0E78  0DCD               	rlf	(___fldiv@rem+3)^(0+128),f
  5049  0E79  1283               	bcf	3,5	;RP0=0, select bank0
  5050  0E7A  1303               	bcf	3,6	;RP1=0, select bank0
  5051  0E7B  0BD3               	decfsz	??___fldiv,f
  5052  0E7C  2E72               	goto	u3725
  5053  0E7D  3001               	movlw	1
  5054  0E7E  00D3               	movwf	??___fldiv
  5055  0E7F                     u3735:
  5056  0E7F  1003               	clrc
  5057  0E80  0DCF               	rlf	___fldiv@b,f
  5058  0E81  0DD0               	rlf	___fldiv@b+1,f
  5059  0E82  0DD1               	rlf	___fldiv@b+2,f
  5060  0E83  0DD2               	rlf	___fldiv@b+3,f
  5061  0E84  0BD3               	decfsz	??___fldiv,f
  5062  0E85  2E7F               	goto	u3735
  5063  0E86                     l2737:
  5064  0E86  1683               	bsf	3,5	;RP0=1, select bank1
  5065  0E87  1303               	bcf	3,6	;RP1=0, select bank1
  5066  0E88  1FD4               	btfss	(___fldiv@grs+3)^(0+128),7
  5067  0E89  2E8B               	goto	u3741
  5068  0E8A  2E8C               	goto	u3740
  5069  0E8B                     u3741:
  5070  0E8B  2E8F               	goto	l2741
  5071  0E8C                     u3740:
  5072  0E8C                     l2739:
  5073  0E8C  1283               	bcf	3,5	;RP0=0, select bank0
  5074  0E8D  1303               	bcf	3,6	;RP1=0, select bank0
  5075  0E8E  144F               	bsf	___fldiv@b,0
  5076  0E8F                     l2741:
  5077  0E8F  3001               	movlw	1
  5078  0E90  1283               	bcf	3,5	;RP0=0, select bank0
  5079  0E91  00D3               	movwf	??___fldiv
  5080  0E92                     u3755:
  5081  0E92  1003               	clrc
  5082  0E93  1683               	bsf	3,5	;RP0=1, select bank1
  5083  0E94  1303               	bcf	3,6	;RP1=0, select bank1
  5084  0E95  0DD1               	rlf	___fldiv@grs^(0+128),f
  5085  0E96  0DD2               	rlf	(___fldiv@grs+1)^(0+128),f
  5086  0E97  0DD3               	rlf	(___fldiv@grs+2)^(0+128),f
  5087  0E98  0DD4               	rlf	(___fldiv@grs+3)^(0+128),f
  5088  0E99  1283               	bcf	3,5	;RP0=0, select bank0
  5089  0E9A  1303               	bcf	3,6	;RP1=0, select bank0
  5090  0E9B  0BD3               	decfsz	??___fldiv,f
  5091  0E9C  2E92               	goto	u3755
  5092  0E9D                     l2743:
  5093  0E9D  1283               	bcf	3,5	;RP0=0, select bank0
  5094  0E9E  084E               	movf	___fldiv@a+3,w
  5095  0E9F  1683               	bsf	3,5	;RP0=1, select bank1
  5096  0EA0  1303               	bcf	3,6	;RP1=0, select bank1
  5097  0EA1  024D               	subwf	(___fldiv@rem+3)^(0+128),w
  5098  0EA2  1D03               	skipz
  5099  0EA3  2EBA               	goto	u3765
  5100  0EA4  1283               	bcf	3,5	;RP0=0, select bank0
  5101  0EA5  1303               	bcf	3,6	;RP1=0, select bank0
  5102  0EA6  084D               	movf	___fldiv@a+2,w
  5103  0EA7  1683               	bsf	3,5	;RP0=1, select bank1
  5104  0EA8  1303               	bcf	3,6	;RP1=0, select bank1
  5105  0EA9  024C               	subwf	(___fldiv@rem+2)^(0+128),w
  5106  0EAA  1D03               	skipz
  5107  0EAB  2EBA               	goto	u3765
  5108  0EAC  1283               	bcf	3,5	;RP0=0, select bank0
  5109  0EAD  1303               	bcf	3,6	;RP1=0, select bank0
  5110  0EAE  084C               	movf	___fldiv@a+1,w
  5111  0EAF  1683               	bsf	3,5	;RP0=1, select bank1
  5112  0EB0  1303               	bcf	3,6	;RP1=0, select bank1
  5113  0EB1  024B               	subwf	(___fldiv@rem+1)^(0+128),w
  5114  0EB2  1D03               	skipz
  5115  0EB3  2EBA               	goto	u3765
  5116  0EB4  1283               	bcf	3,5	;RP0=0, select bank0
  5117  0EB5  1303               	bcf	3,6	;RP1=0, select bank0
  5118  0EB6  084B               	movf	___fldiv@a,w
  5119  0EB7  1683               	bsf	3,5	;RP0=1, select bank1
  5120  0EB8  1303               	bcf	3,6	;RP1=0, select bank1
  5121  0EB9  024A               	subwf	___fldiv@rem^(0+128),w
  5122  0EBA                     u3765:
  5123  0EBA  1C03               	skipc
  5124  0EBB  2EBD               	goto	u3761
  5125  0EBC  2EBE               	goto	u3760
  5126  0EBD                     u3761:
  5127  0EBD  2EE7               	goto	l2749
  5128  0EBE                     u3760:
  5129  0EBE                     l2745:
  5130  0EBE  1754               	bsf	(___fldiv@grs^(0+128)+3),6
  5131  0EBF                     l2747:
  5132  0EBF  1283               	bcf	3,5	;RP0=0, select bank0
  5133  0EC0  1303               	bcf	3,6	;RP1=0, select bank0
  5134  0EC1  084B               	movf	___fldiv@a,w
  5135  0EC2  1683               	bsf	3,5	;RP0=1, select bank1
  5136  0EC3  1303               	bcf	3,6	;RP1=0, select bank1
  5137  0EC4  02CA               	subwf	___fldiv@rem^(0+128),f
  5138  0EC5  1283               	bcf	3,5	;RP0=0, select bank0
  5139  0EC6  1303               	bcf	3,6	;RP1=0, select bank0
  5140  0EC7  084C               	movf	___fldiv@a+1,w
  5141  0EC8  1C03               	skipc
  5142  0EC9  0F4C               	incfsz	___fldiv@a+1,w
  5143  0ECA  2ECC               	goto	u3775
  5144  0ECB  2ECF               	goto	u3776
  5145  0ECC                     u3775:
  5146  0ECC  1683               	bsf	3,5	;RP0=1, select bank1
  5147  0ECD  1303               	bcf	3,6	;RP1=0, select bank1
  5148  0ECE  02CB               	subwf	(___fldiv@rem+1)^(0+128),f
  5149  0ECF                     u3776:
  5150  0ECF  1283               	bcf	3,5	;RP0=0, select bank0
  5151  0ED0  1303               	bcf	3,6	;RP1=0, select bank0
  5152  0ED1  084D               	movf	___fldiv@a+2,w
  5153  0ED2  1C03               	skipc
  5154  0ED3  0F4D               	incfsz	___fldiv@a+2,w
  5155  0ED4  2ED6               	goto	u3777
  5156  0ED5  2ED9               	goto	u3778
  5157  0ED6                     u3777:
  5158  0ED6  1683               	bsf	3,5	;RP0=1, select bank1
  5159  0ED7  1303               	bcf	3,6	;RP1=0, select bank1
  5160  0ED8  02CC               	subwf	(___fldiv@rem+2)^(0+128),f
  5161  0ED9                     u3778:
  5162  0ED9  1283               	bcf	3,5	;RP0=0, select bank0
  5163  0EDA  1303               	bcf	3,6	;RP1=0, select bank0
  5164  0EDB  084E               	movf	___fldiv@a+3,w
  5165  0EDC  1C03               	skipc
  5166  0EDD  0F4E               	incfsz	___fldiv@a+3,w
  5167  0EDE  2EE0               	goto	u3779
  5168  0EDF  2EE3               	goto	u3770
  5169  0EE0                     u3779:
  5170  0EE0  1683               	bsf	3,5	;RP0=1, select bank1
  5171  0EE1  1303               	bcf	3,6	;RP1=0, select bank1
  5172  0EE2  02CD               	subwf	(___fldiv@rem+3)^(0+128),f
  5173  0EE3                     u3770:
  5174  0EE3  1283               	bcf	3,5	;RP0=0, select bank0
  5175  0EE4  1303               	bcf	3,6	;RP1=0, select bank0
  5176  0EE5  1683               	bsf	3,5	;RP0=1, select bank1
  5177  0EE6  1303               	bcf	3,6	;RP1=0, select bank1
  5178  0EE7                     l2749:
  5179  0EE7  3001               	movlw	1
  5180  0EE8  00FF               	movwf	btemp+1
  5181  0EE9  087F               	movf	btemp+1,w
  5182  0EEA  07D6               	addwf	___fldiv@aexp^(0+128),f
  5183  0EEB                     l2751:
  5184  0EEB  301A               	movlw	26
  5185  0EEC  0256               	subwf	___fldiv@aexp^(0+128),w
  5186  0EED  1C03               	skipc
  5187  0EEE  2EF0               	goto	u3781
  5188  0EEF  2EF1               	goto	u3780
  5189  0EF0                     u3781:
  5190  0EF0  2E69               	goto	l2733
  5191  0EF1                     u3780:
  5192  0EF1                     l2753:
  5193  0EF1  084D               	movf	(___fldiv@rem+3)^(0+128),w
  5194  0EF2  044C               	iorwf	(___fldiv@rem+2)^(0+128),w
  5195  0EF3  044B               	iorwf	(___fldiv@rem+1)^(0+128),w
  5196  0EF4  044A               	iorwf	___fldiv@rem^(0+128),w
  5197  0EF5  1903               	skipnz
  5198  0EF6  2EF8               	goto	u3791
  5199  0EF7  2EF9               	goto	u3790
  5200  0EF8                     u3791:
  5201  0EF8  2F23               	goto	l2767
  5202  0EF9                     u3790:
  5203  0EF9                     l2755:
  5204  0EF9  1451               	bsf	___fldiv@grs^(0+128),0
  5205  0EFA  2F23               	goto	l2767
  5206  0EFB                     l2757:
  5207  0EFB  3001               	movlw	1
  5208  0EFC  00D3               	movwf	??___fldiv
  5209  0EFD                     u3805:
  5210  0EFD  1003               	clrc
  5211  0EFE  0DCF               	rlf	___fldiv@b,f
  5212  0EFF  0DD0               	rlf	___fldiv@b+1,f
  5213  0F00  0DD1               	rlf	___fldiv@b+2,f
  5214  0F01  0DD2               	rlf	___fldiv@b+3,f
  5215  0F02  0BD3               	decfsz	??___fldiv,f
  5216  0F03  2EFD               	goto	u3805
  5217  0F04                     l2759:
  5218  0F04  1683               	bsf	3,5	;RP0=1, select bank1
  5219  0F05  1303               	bcf	3,6	;RP1=0, select bank1
  5220  0F06  1FD4               	btfss	(___fldiv@grs+3)^(0+128),7
  5221  0F07  2F09               	goto	u3811
  5222  0F08  2F0A               	goto	u3810
  5223  0F09                     u3811:
  5224  0F09  2F0D               	goto	l2763
  5225  0F0A                     u3810:
  5226  0F0A                     l2761:
  5227  0F0A  1283               	bcf	3,5	;RP0=0, select bank0
  5228  0F0B  1303               	bcf	3,6	;RP1=0, select bank0
  5229  0F0C  144F               	bsf	___fldiv@b,0
  5230  0F0D                     l2763:
  5231  0F0D  3001               	movlw	1
  5232  0F0E  1283               	bcf	3,5	;RP0=0, select bank0
  5233  0F0F  00D3               	movwf	??___fldiv
  5234  0F10                     u3825:
  5235  0F10  1003               	clrc
  5236  0F11  1683               	bsf	3,5	;RP0=1, select bank1
  5237  0F12  1303               	bcf	3,6	;RP1=0, select bank1
  5238  0F13  0DD1               	rlf	___fldiv@grs^(0+128),f
  5239  0F14  0DD2               	rlf	(___fldiv@grs+1)^(0+128),f
  5240  0F15  0DD3               	rlf	(___fldiv@grs+2)^(0+128),f
  5241  0F16  0DD4               	rlf	(___fldiv@grs+3)^(0+128),f
  5242  0F17  1283               	bcf	3,5	;RP0=0, select bank0
  5243  0F18  1303               	bcf	3,6	;RP1=0, select bank0
  5244  0F19  0BD3               	decfsz	??___fldiv,f
  5245  0F1A  2F10               	goto	u3825
  5246  0F1B                     l2765:
  5247  0F1B  30FF               	movlw	255
  5248  0F1C  1683               	bsf	3,5	;RP0=1, select bank1
  5249  0F1D  1303               	bcf	3,6	;RP1=0, select bank1
  5250  0F1E  07CF               	addwf	___fldiv@new_exp^(0+128),f
  5251  0F1F  1803               	skipnc
  5252  0F20  0AD0               	incf	(___fldiv@new_exp+1)^(0+128),f
  5253  0F21  30FF               	movlw	255
  5254  0F22  07D0               	addwf	(___fldiv@new_exp+1)^(0+128),f
  5255  0F23                     l2767:
  5256  0F23  1283               	bcf	3,5	;RP0=0, select bank0
  5257  0F24  1303               	bcf	3,6	;RP1=0, select bank0
  5258  0F25  1FD1               	btfss	___fldiv@b+2,7
  5259  0F26  2F28               	goto	u3831
  5260  0F27  2F29               	goto	u3830
  5261  0F28                     u3831:
  5262  0F28  2EFB               	goto	l2757
  5263  0F29                     u3830:
  5264  0F29                     l2769:
  5265  0F29  1683               	bsf	3,5	;RP0=1, select bank1
  5266  0F2A  1303               	bcf	3,6	;RP1=0, select bank1
  5267  0F2B  01D6               	clrf	___fldiv@aexp^(0+128)
  5268  0F2C                     l2771:
  5269  0F2C  1FD4               	btfss	(___fldiv@grs+3)^(0+128),7
  5270  0F2D  2F2F               	goto	u3841
  5271  0F2E  2F30               	goto	u3840
  5272  0F2F                     u3841:
  5273  0F2F  2F5C               	goto	l2779
  5274  0F30                     u3840:
  5275  0F30                     l2773:
  5276  0F30  30FF               	movlw	255
  5277  0F31  0551               	andwf	___fldiv@grs^(0+128),w
  5278  0F32  1283               	bcf	3,5	;RP0=0, select bank0
  5279  0F33  1303               	bcf	3,6	;RP1=0, select bank0
  5280  0F34  00D3               	movwf	??___fldiv
  5281  0F35  30FF               	movlw	255
  5282  0F36  1683               	bsf	3,5	;RP0=1, select bank1
  5283  0F37  1303               	bcf	3,6	;RP1=0, select bank1
  5284  0F38  0552               	andwf	(___fldiv@grs+1)^(0+128),w
  5285  0F39  1283               	bcf	3,5	;RP0=0, select bank0
  5286  0F3A  1303               	bcf	3,6	;RP1=0, select bank0
  5287  0F3B  00D4               	movwf	??___fldiv+1
  5288  0F3C  30FF               	movlw	255
  5289  0F3D  1683               	bsf	3,5	;RP0=1, select bank1
  5290  0F3E  1303               	bcf	3,6	;RP1=0, select bank1
  5291  0F3F  0553               	andwf	(___fldiv@grs+2)^(0+128),w
  5292  0F40  1283               	bcf	3,5	;RP0=0, select bank0
  5293  0F41  1303               	bcf	3,6	;RP1=0, select bank0
  5294  0F42  00D5               	movwf	??___fldiv+2
  5295  0F43  307F               	movlw	127
  5296  0F44  1683               	bsf	3,5	;RP0=1, select bank1
  5297  0F45  1303               	bcf	3,6	;RP1=0, select bank1
  5298  0F46  0554               	andwf	(___fldiv@grs+3)^(0+128),w
  5299  0F47  1283               	bcf	3,5	;RP0=0, select bank0
  5300  0F48  1303               	bcf	3,6	;RP1=0, select bank0
  5301  0F49  00D6               	movwf	??___fldiv+3
  5302  0F4A  0856               	movf	??___fldiv+3,w
  5303  0F4B  0455               	iorwf	??___fldiv+2,w
  5304  0F4C  0454               	iorwf	??___fldiv+1,w
  5305  0F4D  0453               	iorwf	??___fldiv,w
  5306  0F4E  1903               	skipnz
  5307  0F4F  2F51               	goto	u3851
  5308  0F50  2F52               	goto	u3850
  5309  0F51                     u3851:
  5310  0F51  2F57               	goto	l673
  5311  0F52                     u3850:
  5312  0F52                     l2775:
  5313  0F52  1683               	bsf	3,5	;RP0=1, select bank1
  5314  0F53  1303               	bcf	3,6	;RP1=0, select bank1
  5315  0F54  01D6               	clrf	___fldiv@aexp^(0+128)
  5316  0F55  0AD6               	incf	___fldiv@aexp^(0+128),f
  5317  0F56  2F5C               	goto	l2779
  5318  0F57                     l673:
  5319  0F57  1C4F               	btfss	___fldiv@b,0
  5320  0F58  2F5A               	goto	u3861
  5321  0F59  2F5B               	goto	u3860
  5322  0F5A                     u3861:
  5323  0F5A  2F5C               	goto	l2779
  5324  0F5B                     u3860:
  5325  0F5B  2F52               	goto	l2775
  5326  0F5C                     l2779:
  5327  0F5C  1683               	bsf	3,5	;RP0=1, select bank1
  5328  0F5D  1303               	bcf	3,6	;RP1=0, select bank1
  5329  0F5E  0856               	movf	___fldiv@aexp^(0+128),w
  5330  0F5F  1903               	btfsc	3,2
  5331  0F60  2F62               	goto	u3871
  5332  0F61  2F63               	goto	u3870
  5333  0F62                     u3871:
  5334  0F62  2F98               	goto	l2789
  5335  0F63                     u3870:
  5336  0F63                     l2781:
  5337  0F63  3001               	movlw	1
  5338  0F64  1283               	bcf	3,5	;RP0=0, select bank0
  5339  0F65  1303               	bcf	3,6	;RP1=0, select bank0
  5340  0F66  07CF               	addwf	___fldiv@b,f
  5341  0F67  3000               	movlw	0
  5342  0F68  1803               	skipnc
  5343  0F69  3001               	movlw	1
  5344  0F6A  07D0               	addwf	___fldiv@b+1,f
  5345  0F6B  3000               	movlw	0
  5346  0F6C  1803               	skipnc
  5347  0F6D  3001               	movlw	1
  5348  0F6E  07D1               	addwf	___fldiv@b+2,f
  5349  0F6F  3000               	movlw	0
  5350  0F70  1803               	skipnc
  5351  0F71  3001               	movlw	1
  5352  0F72  07D2               	addwf	___fldiv@b+3,f
  5353  0F73                     l2783:
  5354  0F73  1C52               	btfss	___fldiv@b+3,0
  5355  0F74  2F76               	goto	u3881
  5356  0F75  2F77               	goto	u3880
  5357  0F76                     u3881:
  5358  0F76  2F98               	goto	l2789
  5359  0F77                     u3880:
  5360  0F77                     l2785:
  5361  0F77  084F               	movf	___fldiv@b,w
  5362  0F78  00D3               	movwf	??___fldiv
  5363  0F79  0850               	movf	___fldiv@b+1,w
  5364  0F7A  00D4               	movwf	??___fldiv+1
  5365  0F7B  0851               	movf	___fldiv@b+2,w
  5366  0F7C  00D5               	movwf	??___fldiv+2
  5367  0F7D  0852               	movf	___fldiv@b+3,w
  5368  0F7E  00D6               	movwf	??___fldiv+3
  5369  0F7F  3001               	movlw	1
  5370  0F80  00D7               	movwf	??___fldiv+4
  5371  0F81                     u3895:
  5372  0F81  0D56               	rlf	??___fldiv+3,w
  5373  0F82  0CD6               	rrf	??___fldiv+3,f
  5374  0F83  0CD5               	rrf	??___fldiv+2,f
  5375  0F84  0CD4               	rrf	??___fldiv+1,f
  5376  0F85  0CD3               	rrf	??___fldiv,f
  5377  0F86                     u3890:
  5378  0F86  0BD7               	decfsz	??___fldiv+4,f
  5379  0F87  2F81               	goto	u3895
  5380  0F88  0856               	movf	??___fldiv+3,w
  5381  0F89  00D2               	movwf	___fldiv@b+3
  5382  0F8A  0855               	movf	??___fldiv+2,w
  5383  0F8B  00D1               	movwf	___fldiv@b+2
  5384  0F8C  0854               	movf	??___fldiv+1,w
  5385  0F8D  00D0               	movwf	___fldiv@b+1
  5386  0F8E  0853               	movf	??___fldiv,w
  5387  0F8F  00CF               	movwf	___fldiv@b
  5388  0F90                     l2787:
  5389  0F90  3001               	movlw	1
  5390  0F91  1683               	bsf	3,5	;RP0=1, select bank1
  5391  0F92  1303               	bcf	3,6	;RP1=0, select bank1
  5392  0F93  07CF               	addwf	___fldiv@new_exp^(0+128),f
  5393  0F94  1803               	skipnc
  5394  0F95  0AD0               	incf	(___fldiv@new_exp+1)^(0+128),f
  5395  0F96  3000               	movlw	0
  5396  0F97  07D0               	addwf	(___fldiv@new_exp+1)^(0+128),f
  5397  0F98                     l2789:
  5398  0F98  1683               	bsf	3,5	;RP0=1, select bank1
  5399  0F99  1303               	bcf	3,6	;RP1=0, select bank1
  5400  0F9A  0850               	movf	(___fldiv@new_exp+1)^(0+128),w
  5401  0F9B  3A80               	xorlw	128
  5402  0F9C  00FF               	movwf	btemp+1
  5403  0F9D  3080               	movlw	128
  5404  0F9E  027F               	subwf	btemp+1,w
  5405  0F9F  1D03               	skipz
  5406  0FA0  2FA3               	goto	u3905
  5407  0FA1  30FF               	movlw	255
  5408  0FA2  024F               	subwf	___fldiv@new_exp^(0+128),w
  5409  0FA3                     u3905:
  5410  0FA3  1C03               	skipc
  5411  0FA4  2FA6               	goto	u3901
  5412  0FA5  2FA7               	goto	u3900
  5413  0FA6                     u3901:
  5414  0FA6  2FB7               	goto	l2793
  5415  0FA7                     u3900:
  5416  0FA7                     l2791:
  5417  0FA7  30FF               	movlw	255
  5418  0FA8  1683               	bsf	3,5	;RP0=1, select bank1
  5419  0FA9  1303               	bcf	3,6	;RP1=0, select bank1
  5420  0FAA  00CF               	movwf	___fldiv@new_exp^(0+128)
  5421  0FAB  3000               	movlw	0
  5422  0FAC  00D0               	movwf	(___fldiv@new_exp^(0+128)+1)
  5423  0FAD  3000               	movlw	0
  5424  0FAE  1283               	bcf	3,5	;RP0=0, select bank0
  5425  0FAF  1303               	bcf	3,6	;RP1=0, select bank0
  5426  0FB0  00D2               	movwf	___fldiv@b+3
  5427  0FB1  3000               	movlw	0
  5428  0FB2  00D1               	movwf	___fldiv@b+2
  5429  0FB3  3000               	movlw	0
  5430  0FB4  00D0               	movwf	___fldiv@b+1
  5431  0FB5  3000               	movlw	0
  5432  0FB6  00CF               	movwf	___fldiv@b
  5433  0FB7                     l2793:
  5434  0FB7  1683               	bsf	3,5	;RP0=1, select bank1
  5435  0FB8  1303               	bcf	3,6	;RP1=0, select bank1
  5436  0FB9  0850               	movf	(___fldiv@new_exp+1)^(0+128),w
  5437  0FBA  3A80               	xorlw	128
  5438  0FBB  00FF               	movwf	btemp+1
  5439  0FBC  3080               	movlw	128
  5440  0FBD  027F               	subwf	btemp+1,w
  5441  0FBE  1D03               	skipz
  5442  0FBF  2FC2               	goto	u3915
  5443  0FC0  3001               	movlw	1
  5444  0FC1  024F               	subwf	___fldiv@new_exp^(0+128),w
  5445  0FC2                     u3915:
  5446  0FC2  1803               	skipnc
  5447  0FC3  2FC5               	goto	u3911
  5448  0FC4  2FC6               	goto	u3910
  5449  0FC5                     u3911:
  5450  0FC5  2FD7               	goto	l2801
  5451  0FC6                     u3910:
  5452  0FC6                     l2795:
  5453  0FC6  1683               	bsf	3,5	;RP0=1, select bank1
  5454  0FC7  1303               	bcf	3,6	;RP1=0, select bank1
  5455  0FC8  01CF               	clrf	___fldiv@new_exp^(0+128)
  5456  0FC9  01D0               	clrf	(___fldiv@new_exp+1)^(0+128)
  5457  0FCA                     l2797:
  5458  0FCA  3000               	movlw	0
  5459  0FCB  1283               	bcf	3,5	;RP0=0, select bank0
  5460  0FCC  1303               	bcf	3,6	;RP1=0, select bank0
  5461  0FCD  00D2               	movwf	___fldiv@b+3
  5462  0FCE  3000               	movlw	0
  5463  0FCF  00D1               	movwf	___fldiv@b+2
  5464  0FD0  3000               	movlw	0
  5465  0FD1  00D0               	movwf	___fldiv@b+1
  5466  0FD2  3000               	movlw	0
  5467  0FD3  00CF               	movwf	___fldiv@b
  5468  0FD4                     l2799:
  5469  0FD4  1683               	bsf	3,5	;RP0=1, select bank1
  5470  0FD5  1303               	bcf	3,6	;RP1=0, select bank1
  5471  0FD6  01CE               	clrf	___fldiv@sign^(0+128)
  5472  0FD7                     l2801:
  5473  0FD7  1683               	bsf	3,5	;RP0=1, select bank1
  5474  0FD8  1303               	bcf	3,6	;RP1=0, select bank1
  5475  0FD9  084F               	movf	___fldiv@new_exp^(0+128),w
  5476  0FDA  00FF               	movwf	btemp+1
  5477  0FDB  087F               	movf	btemp+1,w
  5478  0FDC  00D5               	movwf	___fldiv@bexp^(0+128)
  5479  0FDD                     l2803:
  5480  0FDD  1C55               	btfss	___fldiv@bexp^(0+128),0
  5481  0FDE  2FE0               	goto	u3921
  5482  0FDF  2FE1               	goto	u3920
  5483  0FE0                     u3921:
  5484  0FE0  2FE5               	goto	l2807
  5485  0FE1                     u3920:
  5486  0FE1                     l2805:
  5487  0FE1  1283               	bcf	3,5	;RP0=0, select bank0
  5488  0FE2  1303               	bcf	3,6	;RP1=0, select bank0
  5489  0FE3  17D1               	bsf	___fldiv@b+2,7
  5490  0FE4  2FEB               	goto	l681
  5491  0FE5                     l2807:
  5492  0FE5  307F               	movlw	127
  5493  0FE6  00FF               	movwf	btemp+1
  5494  0FE7  087F               	movf	btemp+1,w
  5495  0FE8  1283               	bcf	3,5	;RP0=0, select bank0
  5496  0FE9  1303               	bcf	3,6	;RP1=0, select bank0
  5497  0FEA  05D1               	andwf	___fldiv@b+2,f
  5498  0FEB                     l681:
  5499  0FEB  1683               	bsf	3,5	;RP0=1, select bank1
  5500  0FEC  1303               	bcf	3,6	;RP1=0, select bank1
  5501  0FED  0855               	movf	___fldiv@bexp^(0+128),w
  5502  0FEE  1283               	bcf	3,5	;RP0=0, select bank0
  5503  0FEF  1303               	bcf	3,6	;RP1=0, select bank0
  5504  0FF0  00D3               	movwf	??___fldiv
  5505  0FF1  1003               	clrc
  5506  0FF2  0C53               	rrf	??___fldiv,w
  5507  0FF3  00FF               	movwf	btemp+1
  5508  0FF4  087F               	movf	btemp+1,w
  5509  0FF5  00D2               	movwf	___fldiv@b+3
  5510  0FF6  1683               	bsf	3,5	;RP0=1, select bank1
  5511  0FF7  1303               	bcf	3,6	;RP1=0, select bank1
  5512  0FF8  084E               	movf	___fldiv@sign^(0+128),w
  5513  0FF9  00FF               	movwf	btemp+1
  5514  0FFA  087F               	movf	btemp+1,w
  5515  0FFB  1283               	bcf	3,5	;RP0=0, select bank0
  5516  0FFC  1303               	bcf	3,6	;RP1=0, select bank0
  5517  0FFD  04D2               	iorwf	___fldiv@b+3,f
  5518  0FFE  2E02               	goto	l2713
  5519  0FFF                     l659:
  5520  0FFF  0008               	return
  5521  1000                     __end_of___fldiv:
  5522                           
  5523                           	psect	text12
  5524  0946                     __ptext12:	
  5525 ;; *************** function ___awmod *****************
  5526 ;; Defined at:
  5527 ;;		line 5 in file "C:\Program Files\Microchip\xc8\v2.20\pic\sources\c90\common\awmod.c"
  5528 ;; Parameters:    Size  Location     Type
  5529 ;;  divisor         2    8[BANK0 ] int 
  5530 ;;  dividend        2   10[BANK0 ] int 
  5531 ;; Auto vars:     Size  Location     Type
  5532 ;;  sign            1   13[BANK0 ] unsigned char 
  5533 ;;  counter         1   12[BANK0 ] unsigned char 
  5534 ;; Return value:  Size  Location     Type
  5535 ;;                  2    8[BANK0 ] int 
  5536 ;; Registers used:
  5537 ;;		wreg, status,2, status,0, btemp+1
  5538 ;; Tracked objects:
  5539 ;;		On entry : 0/0
  5540 ;;		On exit  : 0/0
  5541 ;;		Unchanged: 0/0
  5542 ;; Data sizes:     COMMON   BANK0   BANK1   BANK3   BANK2
  5543 ;;      Params:         0       4       0       0       0
  5544 ;;      Locals:         0       2       0       0       0
  5545 ;;      Temps:          0       0       0       0       0
  5546 ;;      Totals:         0       6       0       0       0
  5547 ;;Total ram usage:        6 bytes
  5548 ;; Hardware stack levels used:    1
  5549 ;; Hardware stack levels required when called:    2
  5550 ;; This function calls:
  5551 ;;		Nothing
  5552 ;; This function is called by:
  5553 ;;		_main
  5554 ;; This function uses a non-reentrant model
  5555 ;;
  5556                           
  5557                           
  5558                           ;psect for function ___awmod
  5559  0946                     ___awmod:
  5560  0946                     l2073:	
  5561                           ;incstack = 0
  5562                           ; Regs used in ___awmod: [wreg+status,2+status,0+btemp+1]
  5563                           
  5564  0946  1283               	bcf	3,5	;RP0=0, select bank0
  5565  0947  1303               	bcf	3,6	;RP1=0, select bank0
  5566  0948  01AD               	clrf	___awmod@sign
  5567  0949                     l2075:
  5568  0949  1FAB               	btfss	___awmod@dividend+1,7
  5569  094A  294C               	goto	u2401
  5570  094B  294D               	goto	u2400
  5571  094C                     u2401:
  5572  094C  2954               	goto	l2081
  5573  094D                     u2400:
  5574  094D                     l2077:
  5575  094D  09AA               	comf	___awmod@dividend,f
  5576  094E  09AB               	comf	___awmod@dividend+1,f
  5577  094F  0AAA               	incf	___awmod@dividend,f
  5578  0950  1903               	skipnz
  5579  0951  0AAB               	incf	___awmod@dividend+1,f
  5580  0952                     l2079:
  5581  0952  01AD               	clrf	___awmod@sign
  5582  0953  0AAD               	incf	___awmod@sign,f
  5583  0954                     l2081:
  5584  0954  1FA9               	btfss	___awmod@divisor+1,7
  5585  0955  2957               	goto	u2411
  5586  0956  2958               	goto	u2410
  5587  0957                     u2411:
  5588  0957  295D               	goto	l2085
  5589  0958                     u2410:
  5590  0958                     l2083:
  5591  0958  09A8               	comf	___awmod@divisor,f
  5592  0959  09A9               	comf	___awmod@divisor+1,f
  5593  095A  0AA8               	incf	___awmod@divisor,f
  5594  095B  1903               	skipnz
  5595  095C  0AA9               	incf	___awmod@divisor+1,f
  5596  095D                     l2085:
  5597  095D  0828               	movf	___awmod@divisor,w
  5598  095E  0429               	iorwf	___awmod@divisor+1,w
  5599  095F  1903               	btfsc	3,2
  5600  0960  2962               	goto	u2421
  5601  0961  2963               	goto	u2420
  5602  0962                     u2421:
  5603  0962  2992               	goto	l2103
  5604  0963                     u2420:
  5605  0963                     l2087:
  5606  0963  01AC               	clrf	___awmod@counter
  5607  0964  0AAC               	incf	___awmod@counter,f
  5608  0965  2971               	goto	l2093
  5609  0966                     l2089:
  5610  0966  3001               	movlw	1
  5611  0967                     u2435:
  5612  0967  1003               	clrc
  5613  0968  0DA8               	rlf	___awmod@divisor,f
  5614  0969  0DA9               	rlf	___awmod@divisor+1,f
  5615  096A  3EFF               	addlw	-1
  5616  096B  1D03               	skipz
  5617  096C  2967               	goto	u2435
  5618  096D                     l2091:
  5619  096D  3001               	movlw	1
  5620  096E  00FF               	movwf	btemp+1
  5621  096F  087F               	movf	btemp+1,w
  5622  0970  07AC               	addwf	___awmod@counter,f
  5623  0971                     l2093:
  5624  0971  1FA9               	btfss	___awmod@divisor+1,7
  5625  0972  2974               	goto	u2441
  5626  0973  2975               	goto	u2440
  5627  0974                     u2441:
  5628  0974  2966               	goto	l2089
  5629  0975                     u2440:
  5630  0975                     l2095:
  5631  0975  0829               	movf	___awmod@divisor+1,w
  5632  0976  022B               	subwf	___awmod@dividend+1,w
  5633  0977  1D03               	skipz
  5634  0978  297B               	goto	u2455
  5635  0979  0828               	movf	___awmod@divisor,w
  5636  097A  022A               	subwf	___awmod@dividend,w
  5637  097B                     u2455:
  5638  097B  1C03               	skipc
  5639  097C  297E               	goto	u2451
  5640  097D  297F               	goto	u2450
  5641  097E                     u2451:
  5642  097E  2985               	goto	l2099
  5643  097F                     u2450:
  5644  097F                     l2097:
  5645  097F  0828               	movf	___awmod@divisor,w
  5646  0980  02AA               	subwf	___awmod@dividend,f
  5647  0981  0829               	movf	___awmod@divisor+1,w
  5648  0982  1C03               	skipc
  5649  0983  03AB               	decf	___awmod@dividend+1,f
  5650  0984  02AB               	subwf	___awmod@dividend+1,f
  5651  0985                     l2099:
  5652  0985  3001               	movlw	1
  5653  0986                     u2465:
  5654  0986  1003               	clrc
  5655  0987  0CA9               	rrf	___awmod@divisor+1,f
  5656  0988  0CA8               	rrf	___awmod@divisor,f
  5657  0989  3EFF               	addlw	-1
  5658  098A  1D03               	skipz
  5659  098B  2986               	goto	u2465
  5660  098C                     l2101:
  5661  098C  3001               	movlw	1
  5662  098D  02AC               	subwf	___awmod@counter,f
  5663  098E  1D03               	btfss	3,2
  5664  098F  2991               	goto	u2471
  5665  0990  2992               	goto	u2470
  5666  0991                     u2471:
  5667  0991  2975               	goto	l2095
  5668  0992                     u2470:
  5669  0992                     l2103:
  5670  0992  082D               	movf	___awmod@sign,w
  5671  0993  1903               	btfsc	3,2
  5672  0994  2996               	goto	u2481
  5673  0995  2997               	goto	u2480
  5674  0996                     u2481:
  5675  0996  299C               	goto	l2107
  5676  0997                     u2480:
  5677  0997                     l2105:
  5678  0997  09AA               	comf	___awmod@dividend,f
  5679  0998  09AB               	comf	___awmod@dividend+1,f
  5680  0999  0AAA               	incf	___awmod@dividend,f
  5681  099A  1903               	skipnz
  5682  099B  0AAB               	incf	___awmod@dividend+1,f
  5683  099C                     l2107:
  5684  099C  082B               	movf	___awmod@dividend+1,w
  5685  099D  00A9               	movwf	?___awmod+1
  5686  099E  082A               	movf	___awmod@dividend,w
  5687  099F  00A8               	movwf	?___awmod
  5688  09A0                     l474:
  5689  09A0  0008               	return
  5690  09A1                     __end_of___awmod:
  5691                           
  5692                           	psect	text13
  5693  09A1                     __ptext13:	
  5694 ;; *************** function ___awdiv *****************
  5695 ;; Defined at:
  5696 ;;		line 5 in file "C:\Program Files\Microchip\xc8\v2.20\pic\sources\c90\common\awdiv.c"
  5697 ;; Parameters:    Size  Location     Type
  5698 ;;  divisor         2    8[BANK0 ] int 
  5699 ;;  dividend        2   10[BANK0 ] int 
  5700 ;; Auto vars:     Size  Location     Type
  5701 ;;  quotient        2   14[BANK0 ] int 
  5702 ;;  sign            1   13[BANK0 ] unsigned char 
  5703 ;;  counter         1   12[BANK0 ] unsigned char 
  5704 ;; Return value:  Size  Location     Type
  5705 ;;                  2    8[BANK0 ] int 
  5706 ;; Registers used:
  5707 ;;		wreg, status,2, status,0, btemp+1
  5708 ;; Tracked objects:
  5709 ;;		On entry : 0/0
  5710 ;;		On exit  : 0/0
  5711 ;;		Unchanged: 0/0
  5712 ;; Data sizes:     COMMON   BANK0   BANK1   BANK3   BANK2
  5713 ;;      Params:         0       4       0       0       0
  5714 ;;      Locals:         0       4       0       0       0
  5715 ;;      Temps:          0       0       0       0       0
  5716 ;;      Totals:         0       8       0       0       0
  5717 ;;Total ram usage:        8 bytes
  5718 ;; Hardware stack levels used:    1
  5719 ;; Hardware stack levels required when called:    2
  5720 ;; This function calls:
  5721 ;;		Nothing
  5722 ;; This function is called by:
  5723 ;;		_main
  5724 ;; This function uses a non-reentrant model
  5725 ;;
  5726                           
  5727                           
  5728                           ;psect for function ___awdiv
  5729  09A1                     ___awdiv:
  5730  09A1                     l2029:	
  5731                           ;incstack = 0
  5732                           ; Regs used in ___awdiv: [wreg+status,2+status,0+btemp+1]
  5733                           
  5734  09A1  1283               	bcf	3,5	;RP0=0, select bank0
  5735  09A2  1303               	bcf	3,6	;RP1=0, select bank0
  5736  09A3  01AD               	clrf	___awdiv@sign
  5737  09A4                     l2031:
  5738  09A4  1FA9               	btfss	___awdiv@divisor+1,7
  5739  09A5  29A7               	goto	u2301
  5740  09A6  29A8               	goto	u2300
  5741  09A7                     u2301:
  5742  09A7  29AF               	goto	l2037
  5743  09A8                     u2300:
  5744  09A8                     l2033:
  5745  09A8  09A8               	comf	___awdiv@divisor,f
  5746  09A9  09A9               	comf	___awdiv@divisor+1,f
  5747  09AA  0AA8               	incf	___awdiv@divisor,f
  5748  09AB  1903               	skipnz
  5749  09AC  0AA9               	incf	___awdiv@divisor+1,f
  5750  09AD                     l2035:
  5751  09AD  01AD               	clrf	___awdiv@sign
  5752  09AE  0AAD               	incf	___awdiv@sign,f
  5753  09AF                     l2037:
  5754  09AF  1FAB               	btfss	___awdiv@dividend+1,7
  5755  09B0  29B2               	goto	u2311
  5756  09B1  29B3               	goto	u2310
  5757  09B2                     u2311:
  5758  09B2  29BC               	goto	l2043
  5759  09B3                     u2310:
  5760  09B3                     l2039:
  5761  09B3  09AA               	comf	___awdiv@dividend,f
  5762  09B4  09AB               	comf	___awdiv@dividend+1,f
  5763  09B5  0AAA               	incf	___awdiv@dividend,f
  5764  09B6  1903               	skipnz
  5765  09B7  0AAB               	incf	___awdiv@dividend+1,f
  5766  09B8                     l2041:
  5767  09B8  3001               	movlw	1
  5768  09B9  00FF               	movwf	btemp+1
  5769  09BA  087F               	movf	btemp+1,w
  5770  09BB  06AD               	xorwf	___awdiv@sign,f
  5771  09BC                     l2043:
  5772  09BC  01AE               	clrf	___awdiv@quotient
  5773  09BD  01AF               	clrf	___awdiv@quotient+1
  5774  09BE                     l2045:
  5775  09BE  0828               	movf	___awdiv@divisor,w
  5776  09BF  0429               	iorwf	___awdiv@divisor+1,w
  5777  09C0  1903               	btfsc	3,2
  5778  09C1  29C3               	goto	u2321
  5779  09C2  29C4               	goto	u2320
  5780  09C3                     u2321:
  5781  09C3  29FB               	goto	l2065
  5782  09C4                     u2320:
  5783  09C4                     l2047:
  5784  09C4  01AC               	clrf	___awdiv@counter
  5785  09C5  0AAC               	incf	___awdiv@counter,f
  5786  09C6  29D2               	goto	l2053
  5787  09C7                     l2049:
  5788  09C7  3001               	movlw	1
  5789  09C8                     u2335:
  5790  09C8  1003               	clrc
  5791  09C9  0DA8               	rlf	___awdiv@divisor,f
  5792  09CA  0DA9               	rlf	___awdiv@divisor+1,f
  5793  09CB  3EFF               	addlw	-1
  5794  09CC  1D03               	skipz
  5795  09CD  29C8               	goto	u2335
  5796  09CE                     l2051:
  5797  09CE  3001               	movlw	1
  5798  09CF  00FF               	movwf	btemp+1
  5799  09D0  087F               	movf	btemp+1,w
  5800  09D1  07AC               	addwf	___awdiv@counter,f
  5801  09D2                     l2053:
  5802  09D2  1FA9               	btfss	___awdiv@divisor+1,7
  5803  09D3  29D5               	goto	u2341
  5804  09D4  29D6               	goto	u2340
  5805  09D5                     u2341:
  5806  09D5  29C7               	goto	l2049
  5807  09D6                     u2340:
  5808  09D6                     l2055:
  5809  09D6  3001               	movlw	1
  5810  09D7                     u2355:
  5811  09D7  1003               	clrc
  5812  09D8  0DAE               	rlf	___awdiv@quotient,f
  5813  09D9  0DAF               	rlf	___awdiv@quotient+1,f
  5814  09DA  3EFF               	addlw	-1
  5815  09DB  1D03               	skipz
  5816  09DC  29D7               	goto	u2355
  5817  09DD  0829               	movf	___awdiv@divisor+1,w
  5818  09DE  022B               	subwf	___awdiv@dividend+1,w
  5819  09DF  1D03               	skipz
  5820  09E0  29E3               	goto	u2365
  5821  09E1  0828               	movf	___awdiv@divisor,w
  5822  09E2  022A               	subwf	___awdiv@dividend,w
  5823  09E3                     u2365:
  5824  09E3  1C03               	skipc
  5825  09E4  29E6               	goto	u2361
  5826  09E5  29E7               	goto	u2360
  5827  09E6                     u2361:
  5828  09E6  29EE               	goto	l2061
  5829  09E7                     u2360:
  5830  09E7                     l2057:
  5831  09E7  0828               	movf	___awdiv@divisor,w
  5832  09E8  02AA               	subwf	___awdiv@dividend,f
  5833  09E9  0829               	movf	___awdiv@divisor+1,w
  5834  09EA  1C03               	skipc
  5835  09EB  03AB               	decf	___awdiv@dividend+1,f
  5836  09EC  02AB               	subwf	___awdiv@dividend+1,f
  5837  09ED                     l2059:
  5838  09ED  142E               	bsf	___awdiv@quotient,0
  5839  09EE                     l2061:
  5840  09EE  3001               	movlw	1
  5841  09EF                     u2375:
  5842  09EF  1003               	clrc
  5843  09F0  0CA9               	rrf	___awdiv@divisor+1,f
  5844  09F1  0CA8               	rrf	___awdiv@divisor,f
  5845  09F2  3EFF               	addlw	-1
  5846  09F3  1D03               	skipz
  5847  09F4  29EF               	goto	u2375
  5848  09F5                     l2063:
  5849  09F5  3001               	movlw	1
  5850  09F6  02AC               	subwf	___awdiv@counter,f
  5851  09F7  1D03               	btfss	3,2
  5852  09F8  29FA               	goto	u2381
  5853  09F9  29FB               	goto	u2380
  5854  09FA                     u2381:
  5855  09FA  29D6               	goto	l2055
  5856  09FB                     u2380:
  5857  09FB                     l2065:
  5858  09FB  082D               	movf	___awdiv@sign,w
  5859  09FC  1903               	btfsc	3,2
  5860  09FD  29FF               	goto	u2391
  5861  09FE  2A00               	goto	u2390
  5862  09FF                     u2391:
  5863  09FF  2A05               	goto	l2069
  5864  0A00                     u2390:
  5865  0A00                     l2067:
  5866  0A00  09AE               	comf	___awdiv@quotient,f
  5867  0A01  09AF               	comf	___awdiv@quotient+1,f
  5868  0A02  0AAE               	incf	___awdiv@quotient,f
  5869  0A03  1903               	skipnz
  5870  0A04  0AAF               	incf	___awdiv@quotient+1,f
  5871  0A05                     l2069:
  5872  0A05  082F               	movf	___awdiv@quotient+1,w
  5873  0A06  00A9               	movwf	?___awdiv+1
  5874  0A07  082E               	movf	___awdiv@quotient,w
  5875  0A08  00A8               	movwf	?___awdiv
  5876  0A09                     l461:
  5877  0A09  0008               	return
  5878  0A0A                     __end_of___awdiv:
  5879                           
  5880                           	psect	text14
  5881  0863                     __ptext14:	
  5882 ;; *************** function _LCD_Initialize *****************
  5883 ;; Defined at:
  5884 ;;		line 22 in file "LCD.c"
  5885 ;; Parameters:    Size  Location     Type
  5886 ;;		None
  5887 ;; Auto vars:     Size  Location     Type
  5888 ;;		None
  5889 ;; Return value:  Size  Location     Type
  5890 ;;                  1    wreg      void 
  5891 ;; Registers used:
  5892 ;;		wreg, status,2, status,0, pclath, cstack
  5893 ;; Tracked objects:
  5894 ;;		On entry : 0/0
  5895 ;;		On exit  : 0/0
  5896 ;;		Unchanged: 0/0
  5897 ;; Data sizes:     COMMON   BANK0   BANK1   BANK3   BANK2
  5898 ;;      Params:         0       0       0       0       0
  5899 ;;      Locals:         0       0       0       0       0
  5900 ;;      Temps:          0       2       0       0       0
  5901 ;;      Totals:         0       2       0       0       0
  5902 ;;Total ram usage:        2 bytes
  5903 ;; Hardware stack levels used:    1
  5904 ;; Hardware stack levels required when called:    4
  5905 ;; This function calls:
  5906 ;;		_LCDCmd
  5907 ;; This function is called by:
  5908 ;;		_main
  5909 ;; This function uses a non-reentrant model
  5910 ;;
  5911                           
  5912                           
  5913                           ;psect for function _LCD_Initialize
  5914  0863                     _LCD_Initialize:
  5915  0863                     l1881:	
  5916                           ;incstack = 0
  5917                           ; Regs used in _LCD_Initialize: [wreg+status,2+status,0+pclath+cstack]
  5918                           
  5919                           
  5920                           ;LCD.c: 24:     PORTD = 0;
  5921  0863  1283               	bcf	3,5	;RP0=0, select bank0
  5922  0864  1303               	bcf	3,6	;RP1=0, select bank0
  5923  0865  0188               	clrf	8	;volatile
  5924                           
  5925                           ;LCD.c: 26:     TRISD = 0x00;
  5926  0866  1683               	bsf	3,5	;RP0=1, select bank1
  5927  0867  1303               	bcf	3,6	;RP1=0, select bank1
  5928  0868  0188               	clrf	8	;volatile
  5929  0869                     l1883:
  5930                           
  5931                           ;LCD.c: 29:     _delay((unsigned long)((15)*(8000000/4000.0)));
  5932  0869  3027               	movlw	39
  5933  086A  1283               	bcf	3,5	;RP0=0, select bank0
  5934  086B  1303               	bcf	3,6	;RP1=0, select bank0
  5935  086C  00AE               	movwf	??_LCD_Initialize+1
  5936  086D  30F4               	movlw	244
  5937  086E  00AD               	movwf	??_LCD_Initialize
  5938  086F                     u4007:
  5939  086F  0BAD               	decfsz	??_LCD_Initialize,f
  5940  0870  286F               	goto	u4007
  5941  0871  0BAE               	decfsz	??_LCD_Initialize+1,f
  5942  0872  286F               	goto	u4007
  5943  0873  0000               	nop
  5944  0874                     l1885:
  5945                           
  5946                           ;LCD.c: 32:     LCDCmd(0x32);
  5947  0874  3032               	movlw	50
  5948  0875  160A  118A  2754  120A  158A  	fcall	_LCDCmd
  5949  087A                     l1887:
  5950                           
  5951                           ;LCD.c: 35:     LCDCmd(0x38);
  5952  087A  3038               	movlw	56
  5953  087B  160A  118A  2754  120A  158A  	fcall	_LCDCmd
  5954  0880                     l1889:
  5955                           
  5956                           ;LCD.c: 38:     LCDCmd(0x0C);
  5957  0880  300C               	movlw	12
  5958  0881  160A  118A  2754  120A  158A  	fcall	_LCDCmd
  5959  0886                     l1891:
  5960                           
  5961                           ;LCD.c: 40:     LCDCmd(0x01);
  5962  0886  3001               	movlw	1
  5963  0887  160A  118A  2754  120A  158A  	fcall	_LCDCmd
  5964  088C                     l1893:
  5965                           
  5966                           ;LCD.c: 43:     LCDCmd(0x06);
  5967  088C  3006               	movlw	6
  5968  088D  160A  118A  2754  120A  158A  	fcall	_LCDCmd
  5969  0892                     l22:
  5970  0892  0008               	return
  5971  0893                     __end_of_LCD_Initialize:
  5972                           
  5973                           	psect	text15
  5974  17D3                     __ptext15:	
  5975 ;; *************** function _LCDStr *****************
  5976 ;; Defined at:
  5977 ;;		line 85 in file "LCD.c"
  5978 ;; Parameters:    Size  Location     Type
  5979 ;;  str             2   13[BANK0 ] PTR const unsigned char 
  5980 ;;		 -> buffer2(20), buffer(20), datos2(20), STR_1(18), 
  5981 ;; Auto vars:     Size  Location     Type
  5982 ;;  i               1   15[BANK0 ] unsigned char 
  5983 ;; Return value:  Size  Location     Type
  5984 ;;                  1    wreg      void 
  5985 ;; Registers used:
  5986 ;;		wreg, fsr0l, fsr0h, status,2, status,0, btemp+1, pclath, cstack
  5987 ;; Tracked objects:
  5988 ;;		On entry : 0/0
  5989 ;;		On exit  : 0/0
  5990 ;;		Unchanged: 0/0
  5991 ;; Data sizes:     COMMON   BANK0   BANK1   BANK3   BANK2
  5992 ;;      Params:         0       2       0       0       0
  5993 ;;      Locals:         0       1       0       0       0
  5994 ;;      Temps:          0       0       0       0       0
  5995 ;;      Totals:         0       3       0       0       0
  5996 ;;Total ram usage:        3 bytes
  5997 ;; Hardware stack levels used:    1
  5998 ;; Hardware stack levels required when called:    4
  5999 ;; This function calls:
  6000 ;;		_LCDChar
  6001 ;; This function is called by:
  6002 ;;		_main
  6003 ;; This function uses a non-reentrant model
  6004 ;;
  6005                           
  6006                           
  6007                           ;psect for function _LCDStr
  6008  17D3                     _LCDStr:
  6009  17D3                     l1895:	
  6010                           ;incstack = 0
  6011                           ; Regs used in _LCDStr: [wreg-fsr0h+status,2+status,0+btemp+1+pclath+cstack]
  6012                           
  6013                           
  6014                           ;LCD.c: 86:     uint8_t i=0;
  6015  17D3  1283               	bcf	3,5	;RP0=0, select bank0
  6016  17D4  1303               	bcf	3,6	;RP1=0, select bank0
  6017  17D5  01AF               	clrf	LCDStr@i
  6018                           
  6019                           ;LCD.c: 89:     while (str[i])
  6020  17D6  2FEE               	goto	l1901
  6021  17D7                     l1897:
  6022                           
  6023                           ;LCD.c: 90:     {;LCD.c: 92:         LCDChar(str[i++]);
  6024  17D7  082F               	movf	LCDStr@i,w
  6025  17D8  072D               	addwf	LCDStr@str,w
  6026  17D9  0084               	movwf	4
  6027  17DA  082E               	movf	LCDStr@str+1,w
  6028  17DB  1803               	skipnc
  6029  17DC  0A2E               	incf	LCDStr@str+1,w
  6030  17DD  00FF               	movwf	btemp+1
  6031  17DE  120A  158A  2000  160A  118A  	fcall	stringtab
  6032  17E3  160A  118A  276B  160A  118A  	fcall	_LCDChar
  6033  17E8                     l1899:
  6034  17E8  3001               	movlw	1
  6035  17E9  00FF               	movwf	btemp+1
  6036  17EA  087F               	movf	btemp+1,w
  6037  17EB  1283               	bcf	3,5	;RP0=0, select bank0
  6038  17EC  1303               	bcf	3,6	;RP1=0, select bank0
  6039  17ED  07AF               	addwf	LCDStr@i,f
  6040  17EE                     l1901:
  6041                           
  6042                           ;LCD.c: 89:     while (str[i])
  6043  17EE  082F               	movf	LCDStr@i,w
  6044  17EF  072D               	addwf	LCDStr@str,w
  6045  17F0  0084               	movwf	4
  6046  17F1  082E               	movf	LCDStr@str+1,w
  6047  17F2  1803               	skipnc
  6048  17F3  0A2E               	incf	LCDStr@str+1,w
  6049  17F4  00FF               	movwf	btemp+1
  6050  17F5  120A  158A  2000  160A  118A  	fcall	stringtab
  6051  17FA  3A00               	xorlw	0
  6052  17FB  1D03               	skipz
  6053  17FC  2FFE               	goto	u2091
  6054  17FD  2FFF               	goto	u2090
  6055  17FE                     u2091:
  6056  17FE  2FD7               	goto	l1897
  6057  17FF                     u2090:
  6058  17FF                     l37:
  6059  17FF  0008               	return
  6060  1800                     __end_of_LCDStr:
  6061                           
  6062                           	psect	text16
  6063  176B                     __ptext16:	
  6064 ;; *************** function _LCDChar *****************
  6065 ;; Defined at:
  6066 ;;		line 69 in file "LCD.c"
  6067 ;; Parameters:    Size  Location     Type
  6068 ;;  ch              1    wreg     unsigned char 
  6069 ;; Auto vars:     Size  Location     Type
  6070 ;;  ch              1   12[BANK0 ] unsigned char 
  6071 ;; Return value:  Size  Location     Type
  6072 ;;                  1    wreg      void 
  6073 ;; Registers used:
  6074 ;;		wreg, status,2, status,0, pclath, cstack
  6075 ;; Tracked objects:
  6076 ;;		On entry : 0/0
  6077 ;;		On exit  : 0/0
  6078 ;;		Unchanged: 0/0
  6079 ;; Data sizes:     COMMON   BANK0   BANK1   BANK3   BANK2
  6080 ;;      Params:         0       0       0       0       0
  6081 ;;      Locals:         0       1       0       0       0
  6082 ;;      Temps:          0       2       0       0       0
  6083 ;;      Totals:         0       3       0       0       0
  6084 ;;Total ram usage:        3 bytes
  6085 ;; Hardware stack levels used:    1
  6086 ;; Hardware stack levels required when called:    3
  6087 ;; This function calls:
  6088 ;;		_LCDWrite
  6089 ;; This function is called by:
  6090 ;;		_LCDStr
  6091 ;; This function uses a non-reentrant model
  6092 ;;
  6093                           
  6094                           
  6095                           ;psect for function _LCDChar
  6096  176B                     _LCDChar:
  6097                           
  6098                           ;incstack = 0
  6099                           ; Regs used in _LCDChar: [wreg+status,2+status,0+pclath+cstack]
  6100                           ;LCDChar@ch stored from wreg
  6101  176B  1283               	bcf	3,5	;RP0=0, select bank0
  6102  176C  1303               	bcf	3,6	;RP1=0, select bank0
  6103  176D  00AC               	movwf	LCDChar@ch
  6104  176E                     l1739:
  6105                           
  6106                           ;LCD.c: 70:     _delay((unsigned long)((5)*(8000000/4000.0)));
  6107  176E  300D               	movlw	13
  6108  176F  1283               	bcf	3,5	;RP0=0, select bank0
  6109  1770  1303               	bcf	3,6	;RP1=0, select bank0
  6110  1771  00AB               	movwf	??_LCDChar+1
  6111  1772  30FB               	movlw	251
  6112  1773  00AA               	movwf	??_LCDChar
  6113  1774                     u4017:
  6114  1774  0BAA               	decfsz	??_LCDChar,f
  6115  1775  2F74               	goto	u4017
  6116  1776  0BAB               	decfsz	??_LCDChar+1,f
  6117  1777  2F74               	goto	u4017
  6118  1778                     l1741:
  6119                           
  6120                           ;LCD.c: 73:     LCDWrite(ch,1);
  6121  1778  1283               	bcf	3,5	;RP0=0, select bank0
  6122  1779  1303               	bcf	3,6	;RP1=0, select bank0
  6123  177A  01A8               	clrf	LCDWrite@rs
  6124  177B  0AA8               	incf	LCDWrite@rs,f
  6125  177C  082C               	movf	LCDChar@ch,w
  6126  177D  160A  118A  2730  160A  118A  	fcall	_LCDWrite
  6127  1782                     l28:
  6128  1782  0008               	return
  6129  1783                     __end_of_LCDChar:
  6130                           
  6131                           	psect	text17
  6132  0893                     __ptext17:	
  6133 ;; *************** function _LCDGoto *****************
  6134 ;; Defined at:
  6135 ;;		line 97 in file "LCD.c"
  6136 ;; Parameters:    Size  Location     Type
  6137 ;;  pos             1    wreg     unsigned char 
  6138 ;;  ln              1   13[BANK0 ] unsigned char 
  6139 ;; Auto vars:     Size  Location     Type
  6140 ;;  pos             1   18[BANK0 ] unsigned char 
  6141 ;; Return value:  Size  Location     Type
  6142 ;;                  1    wreg      void 
  6143 ;; Registers used:
  6144 ;;		wreg, status,2, status,0, pclath, cstack
  6145 ;; Tracked objects:
  6146 ;;		On entry : 0/0
  6147 ;;		On exit  : 0/0
  6148 ;;		Unchanged: 0/0
  6149 ;; Data sizes:     COMMON   BANK0   BANK1   BANK3   BANK2
  6150 ;;      Params:         0       1       0       0       0
  6151 ;;      Locals:         0       3       0       0       0
  6152 ;;      Temps:          0       2       0       0       0
  6153 ;;      Totals:         0       6       0       0       0
  6154 ;;Total ram usage:        6 bytes
  6155 ;; Hardware stack levels used:    1
  6156 ;; Hardware stack levels required when called:    4
  6157 ;; This function calls:
  6158 ;;		_LCDCmd
  6159 ;; This function is called by:
  6160 ;;		_main
  6161 ;; This function uses a non-reentrant model
  6162 ;;
  6163                           
  6164                           
  6165                           ;psect for function _LCDGoto
  6166  0893                     _LCDGoto:
  6167                           
  6168                           ;incstack = 0
  6169                           ; Regs used in _LCDGoto: [wreg+status,2+status,0+pclath+cstack]
  6170                           ;LCDGoto@pos stored from wreg
  6171  0893  1283               	bcf	3,5	;RP0=0, select bank0
  6172  0894  1303               	bcf	3,6	;RP1=0, select bank0
  6173  0895  00B2               	movwf	LCDGoto@pos
  6174  0896                     l1903:
  6175                           
  6176                           ;LCD.c: 99:     if ((ln > (2 -1)) || (pos > (16 -1)))
  6177  0896  3002               	movlw	2
  6178  0897  022D               	subwf	LCDGoto@ln,w
  6179  0898  1803               	skipnc
  6180  0899  289B               	goto	u2101
  6181  089A  289C               	goto	u2100
  6182  089B                     u2101:
  6183  089B  28C3               	goto	l43
  6184  089C                     u2100:
  6185  089C                     l1905:
  6186  089C  3010               	movlw	16
  6187  089D  0232               	subwf	LCDGoto@pos,w
  6188  089E  1C03               	skipc
  6189  089F  28A1               	goto	u2111
  6190  08A0  28A2               	goto	u2110
  6191  08A1                     u2111:
  6192  08A1  28A3               	goto	l1907
  6193  08A2                     u2110:
  6194  08A2  28C3               	goto	l43
  6195  08A3                     l1907:
  6196                           
  6197                           ;LCD.c: 106:     LCDCmd((ln == 1) ? (0xC0 | pos) : (0x80 | pos));
  6198  08A3  032D               	decf	LCDGoto@ln,w
  6199  08A4  1903               	btfsc	3,2
  6200  08A5  28A7               	goto	u2121
  6201  08A6  28A8               	goto	u2120
  6202  08A7                     u2121:
  6203  08A7  28AE               	goto	l1911
  6204  08A8                     u2120:
  6205  08A8                     l1909:
  6206  08A8  3080               	movlw	128
  6207  08A9  0432               	iorwf	LCDGoto@pos,w
  6208  08AA  00B0               	movwf	_LCDGoto$97
  6209  08AB  3000               	movlw	0
  6210  08AC  00B1               	movwf	_LCDGoto$97+1
  6211  08AD  28B3               	goto	l1913
  6212  08AE                     l1911:
  6213  08AE  30C0               	movlw	192
  6214  08AF  0432               	iorwf	LCDGoto@pos,w
  6215  08B0  00B0               	movwf	_LCDGoto$97
  6216  08B1  3000               	movlw	0
  6217  08B2  00B1               	movwf	_LCDGoto$97+1
  6218  08B3                     l1913:
  6219  08B3  0830               	movf	_LCDGoto$97,w
  6220  08B4  160A  118A  2754  120A  158A  	fcall	_LCDCmd
  6221  08B9                     l1915:
  6222                           
  6223                           ;LCD.c: 109:     _delay((unsigned long)((5)*(8000000/4000.0)));
  6224  08B9  300D               	movlw	13
  6225  08BA  1283               	bcf	3,5	;RP0=0, select bank0
  6226  08BB  1303               	bcf	3,6	;RP1=0, select bank0
  6227  08BC  00AF               	movwf	??_LCDGoto+1
  6228  08BD  30FB               	movlw	251
  6229  08BE  00AE               	movwf	??_LCDGoto
  6230  08BF                     u4027:
  6231  08BF  0BAE               	decfsz	??_LCDGoto,f
  6232  08C0  28BF               	goto	u4027
  6233  08C1  0BAF               	decfsz	??_LCDGoto+1,f
  6234  08C2  28BF               	goto	u4027
  6235  08C3                     l43:
  6236  08C3  0008               	return
  6237  08C4                     __end_of_LCDGoto:
  6238                           
  6239                           	psect	text18
  6240  1754                     __ptext18:	
  6241 ;; *************** function _LCDCmd *****************
  6242 ;; Defined at:
  6243 ;;		line 77 in file "LCD.c"
  6244 ;; Parameters:    Size  Location     Type
  6245 ;;  ch              1    wreg     unsigned char 
  6246 ;; Auto vars:     Size  Location     Type
  6247 ;;  ch              1   12[BANK0 ] unsigned char 
  6248 ;; Return value:  Size  Location     Type
  6249 ;;                  1    wreg      void 
  6250 ;; Registers used:
  6251 ;;		wreg, status,2, status,0, pclath, cstack
  6252 ;; Tracked objects:
  6253 ;;		On entry : 0/0
  6254 ;;		On exit  : 0/0
  6255 ;;		Unchanged: 0/0
  6256 ;; Data sizes:     COMMON   BANK0   BANK1   BANK3   BANK2
  6257 ;;      Params:         0       0       0       0       0
  6258 ;;      Locals:         0       1       0       0       0
  6259 ;;      Temps:          0       2       0       0       0
  6260 ;;      Totals:         0       3       0       0       0
  6261 ;;Total ram usage:        3 bytes
  6262 ;; Hardware stack levels used:    1
  6263 ;; Hardware stack levels required when called:    3
  6264 ;; This function calls:
  6265 ;;		_LCDWrite
  6266 ;; This function is called by:
  6267 ;;		_LCD_Initialize
  6268 ;;		_LCDGoto
  6269 ;; This function uses a non-reentrant model
  6270 ;;
  6271                           
  6272                           
  6273                           ;psect for function _LCDCmd
  6274  1754                     _LCDCmd:
  6275                           
  6276                           ;incstack = 0
  6277                           ; Regs used in _LCDCmd: [wreg+status,2+status,0+pclath+cstack]
  6278                           ;LCDCmd@ch stored from wreg
  6279  1754  1283               	bcf	3,5	;RP0=0, select bank0
  6280  1755  1303               	bcf	3,6	;RP1=0, select bank0
  6281  1756  00AC               	movwf	LCDCmd@ch
  6282  1757                     l1735:
  6283                           
  6284                           ;LCD.c: 78:     _delay((unsigned long)((5)*(8000000/4000.0)));
  6285  1757  300D               	movlw	13
  6286  1758  1283               	bcf	3,5	;RP0=0, select bank0
  6287  1759  1303               	bcf	3,6	;RP1=0, select bank0
  6288  175A  00AB               	movwf	??_LCDCmd+1
  6289  175B  30FB               	movlw	251
  6290  175C  00AA               	movwf	??_LCDCmd
  6291  175D                     u4037:
  6292  175D  0BAA               	decfsz	??_LCDCmd,f
  6293  175E  2F5D               	goto	u4037
  6294  175F  0BAB               	decfsz	??_LCDCmd+1,f
  6295  1760  2F5D               	goto	u4037
  6296  1761                     l1737:
  6297                           
  6298                           ;LCD.c: 80:     LCDWrite(ch,0);
  6299  1761  1283               	bcf	3,5	;RP0=0, select bank0
  6300  1762  1303               	bcf	3,6	;RP1=0, select bank0
  6301  1763  01A8               	clrf	LCDWrite@rs
  6302  1764  082C               	movf	LCDCmd@ch,w
  6303  1765  160A  118A  2730  160A  118A  	fcall	_LCDWrite
  6304  176A                     l31:
  6305  176A  0008               	return
  6306  176B                     __end_of_LCDCmd:
  6307                           
  6308                           	psect	text19
  6309  1730                     __ptext19:	
  6310 ;; *************** function _LCDWrite *****************
  6311 ;; Defined at:
  6312 ;;		line 48 in file "LCD.c"
  6313 ;; Parameters:    Size  Location     Type
  6314 ;;  ch              1    wreg     unsigned char 
  6315 ;;  rs              1    8[BANK0 ] unsigned char 
  6316 ;; Auto vars:     Size  Location     Type
  6317 ;;  ch              1    9[BANK0 ] unsigned char 
  6318 ;; Return value:  Size  Location     Type
  6319 ;;                  1    wreg      void 
  6320 ;; Registers used:
  6321 ;;		wreg, status,2, status,0
  6322 ;; Tracked objects:
  6323 ;;		On entry : 0/0
  6324 ;;		On exit  : 0/0
  6325 ;;		Unchanged: 0/0
  6326 ;; Data sizes:     COMMON   BANK0   BANK1   BANK3   BANK2
  6327 ;;      Params:         0       1       0       0       0
  6328 ;;      Locals:         0       1       0       0       0
  6329 ;;      Temps:          0       0       0       0       0
  6330 ;;      Totals:         0       2       0       0       0
  6331 ;;Total ram usage:        2 bytes
  6332 ;; Hardware stack levels used:    1
  6333 ;; Hardware stack levels required when called:    2
  6334 ;; This function calls:
  6335 ;;		Nothing
  6336 ;; This function is called by:
  6337 ;;		_LCDChar
  6338 ;;		_LCDCmd
  6339 ;; This function uses a non-reentrant model
  6340 ;;
  6341                           
  6342                           
  6343                           ;psect for function _LCDWrite
  6344  1730                     _LCDWrite:
  6345                           
  6346                           ;incstack = 0
  6347                           ; Regs used in _LCDWrite: [wreg+status,2+status,0]
  6348                           ;LCDWrite@ch stored from wreg
  6349  1730  1283               	bcf	3,5	;RP0=0, select bank0
  6350  1731  1303               	bcf	3,6	;RP1=0, select bank0
  6351  1732  00A9               	movwf	LCDWrite@ch
  6352  1733                     l1725:
  6353                           
  6354                           ;LCD.c: 51:     PORTD = (PORTD & 0x00);
  6355  1733  0188               	clrf	8	;volatile
  6356  1734                     l1727:
  6357                           
  6358                           ;LCD.c: 54:     PORTD = (PORTD | ch);
  6359  1734  0808               	movf	8,w	;volatile
  6360  1735  0429               	iorwf	LCDWrite@ch,w
  6361  1736  0088               	movwf	8	;volatile
  6362                           
  6363                           ;LCD.c: 57:     PORTEbits.RE0 = rs;
  6364  1737  0C28               	rrf	LCDWrite@rs,w
  6365  1738  1C03               	skipc
  6366  1739  1009               	bcf	9,0	;volatile
  6367  173A  1803               	skipnc
  6368  173B  1409               	bsf	9,0	;volatile
  6369  173C                     l1729:
  6370                           
  6371                           ;LCD.c: 60:     PORTEbits.RE2 = 0;
  6372  173C  1109               	bcf	9,2	;volatile
  6373  173D                     l1731:
  6374                           
  6375                           ;LCD.c: 63:     PORTEbits.RE1 = 1;
  6376  173D  1489               	bsf	9,1	;volatile
  6377  173E                     l1733:
  6378                           
  6379                           ;LCD.c: 66:     PORTEbits.RE1 = 0;
  6380  173E  1089               	bcf	9,1	;volatile
  6381  173F                     l25:
  6382  173F  0008               	return
  6383  1740                     __end_of_LCDWrite:
  6384                           
  6385                           	psect	text20
  6386  0A0A                     __ptext20:	
  6387 ;; *************** function _CONUSART *****************
  6388 ;; Defined at:
  6389 ;;		line 4 in file "EUSCON.c"
  6390 ;; Parameters:    Size  Location     Type
  6391 ;;  baudrate        4   23[BANK0 ] const long 
  6392 ;; Auto vars:     Size  Location     Type
  6393 ;;  p               4   39[BANK0 ] long 
  6394 ;; Return value:  Size  Location     Type
  6395 ;;                  1    wreg      void 
  6396 ;; Registers used:
  6397 ;;		wreg, status,2, status,0, btemp+1, pclath, cstack
  6398 ;; Tracked objects:
  6399 ;;		On entry : 0/0
  6400 ;;		On exit  : 0/0
  6401 ;;		Unchanged: 0/0
  6402 ;; Data sizes:     COMMON   BANK0   BANK1   BANK3   BANK2
  6403 ;;      Params:         0       4       0       0       0
  6404 ;;      Locals:         0       4       0       0       0
  6405 ;;      Temps:          0      12       0       0       0
  6406 ;;      Totals:         0      20       0       0       0
  6407 ;;Total ram usage:       20 bytes
  6408 ;; Hardware stack levels used:    1
  6409 ;; Hardware stack levels required when called:    3
  6410 ;; This function calls:
  6411 ;;		___aldiv
  6412 ;; This function is called by:
  6413 ;;		_main
  6414 ;; This function uses a non-reentrant model
  6415 ;;
  6416                           
  6417                           
  6418                           ;psect for function _CONUSART
  6419  0A0A                     _CONUSART:
  6420  0A0A                     l1927:	
  6421                           ;incstack = 0
  6422                           ; Regs used in _CONUSART: [wreg+status,2+status,0+btemp+1+pclath+cstack]
  6423                           
  6424                           
  6425                           ;EUSCON.c: 5:     long int p;;EUSCON.c: 6:     TXSTA = 0b00100000;
  6426  0A0A  3020               	movlw	32
  6427  0A0B  1683               	bsf	3,5	;RP0=1, select bank1
  6428  0A0C  1303               	bcf	3,6	;RP1=0, select bank1
  6429  0A0D  0098               	movwf	24	;volatile
  6430  0A0E                     l1929:
  6431                           
  6432                           ;EUSCON.c: 7:     BAUDCTLbits.BRG16 = 0;
  6433  0A0E  1683               	bsf	3,5	;RP0=1, select bank3
  6434  0A0F  1703               	bsf	3,6	;RP1=1, select bank3
  6435  0A10  1187               	bcf	7,3	;volatile
  6436                           
  6437                           ;EUSCON.c: 8:     RCSTA= 0b10010000;
  6438  0A11  3090               	movlw	144
  6439  0A12  1283               	bcf	3,5	;RP0=0, select bank0
  6440  0A13  1303               	bcf	3,6	;RP1=0, select bank0
  6441  0A14  0098               	movwf	24	;volatile
  6442  0A15                     l1931:
  6443                           
  6444                           ;EUSCON.c: 9:     p = (8000000 - baudrate*64)/(baudrate*64);
  6445  0A15  0837               	movf	CONUSART@baudrate,w
  6446  0A16  00BB               	movwf	??_CONUSART
  6447  0A17  0838               	movf	CONUSART@baudrate+1,w
  6448  0A18  00BC               	movwf	??_CONUSART+1
  6449  0A19  0839               	movf	CONUSART@baudrate+2,w
  6450  0A1A  00BD               	movwf	??_CONUSART+2
  6451  0A1B  083A               	movf	CONUSART@baudrate+3,w
  6452  0A1C  00BE               	movwf	??_CONUSART+3
  6453  0A1D  3006               	movlw	6
  6454  0A1E                     u2135:
  6455  0A1E  1003               	clrc
  6456  0A1F  0DBB               	rlf	??_CONUSART,f
  6457  0A20  0DBC               	rlf	??_CONUSART+1,f
  6458  0A21  0DBD               	rlf	??_CONUSART+2,f
  6459  0A22  0DBE               	rlf	??_CONUSART+3,f
  6460  0A23                     u2130:
  6461  0A23  3EFF               	addlw	-1
  6462  0A24  1D03               	skipz
  6463  0A25  2A1E               	goto	u2135
  6464  0A26  083E               	movf	??_CONUSART+3,w
  6465  0A27  00AB               	movwf	___aldiv@divisor+3
  6466  0A28  083D               	movf	??_CONUSART+2,w
  6467  0A29  00AA               	movwf	___aldiv@divisor+2
  6468  0A2A  083C               	movf	??_CONUSART+1,w
  6469  0A2B  00A9               	movwf	___aldiv@divisor+1
  6470  0A2C  083B               	movf	??_CONUSART,w
  6471  0A2D  00A8               	movwf	___aldiv@divisor
  6472  0A2E  0837               	movf	CONUSART@baudrate,w
  6473  0A2F  00BF               	movwf	??_CONUSART+4
  6474  0A30  0838               	movf	CONUSART@baudrate+1,w
  6475  0A31  00C0               	movwf	??_CONUSART+5
  6476  0A32  0839               	movf	CONUSART@baudrate+2,w
  6477  0A33  00C1               	movwf	??_CONUSART+6
  6478  0A34  083A               	movf	CONUSART@baudrate+3,w
  6479  0A35  00C2               	movwf	??_CONUSART+7
  6480  0A36  3006               	movlw	6
  6481  0A37                     u2145:
  6482  0A37  1003               	clrc
  6483  0A38  0DBF               	rlf	??_CONUSART+4,f
  6484  0A39  0DC0               	rlf	??_CONUSART+5,f
  6485  0A3A  0DC1               	rlf	??_CONUSART+6,f
  6486  0A3B  0DC2               	rlf	??_CONUSART+7,f
  6487  0A3C                     u2140:
  6488  0A3C  3EFF               	addlw	-1
  6489  0A3D  1D03               	skipz
  6490  0A3E  2A37               	goto	u2145
  6491  0A3F  3000               	movlw	0
  6492  0A40  00C3               	movwf	??_CONUSART+8
  6493  0A41  3012               	movlw	18
  6494  0A42  00C4               	movwf	??_CONUSART+9
  6495  0A43  307A               	movlw	122
  6496  0A44  00C5               	movwf	??_CONUSART+10
  6497  0A45  3000               	movlw	0
  6498  0A46  00C6               	movwf	??_CONUSART+11
  6499  0A47  083F               	movf	??_CONUSART+4,w
  6500  0A48  02C3               	subwf	??_CONUSART+8,f
  6501  0A49  0840               	movf	??_CONUSART+5,w
  6502  0A4A  1C03               	skipc
  6503  0A4B  0F40               	incfsz	??_CONUSART+5,w
  6504  0A4C  2A4E               	goto	u2151
  6505  0A4D  2A4F               	goto	u2152
  6506  0A4E                     u2151:
  6507  0A4E  02C4               	subwf	??_CONUSART+9,f
  6508  0A4F                     u2152:
  6509  0A4F  0841               	movf	??_CONUSART+6,w
  6510  0A50  1C03               	skipc
  6511  0A51  0F41               	incfsz	??_CONUSART+6,w
  6512  0A52  2A54               	goto	u2153
  6513  0A53  2A55               	goto	u2154
  6514  0A54                     u2153:
  6515  0A54  02C5               	subwf	??_CONUSART+10,f
  6516  0A55                     u2154:
  6517  0A55  0842               	movf	??_CONUSART+7,w
  6518  0A56  1C03               	skipc
  6519  0A57  0F42               	incfsz	??_CONUSART+7,w
  6520  0A58  2A5A               	goto	u2155
  6521  0A59  2A5B               	goto	u2156
  6522  0A5A                     u2155:
  6523  0A5A  02C6               	subwf	??_CONUSART+11,f
  6524  0A5B                     u2156:
  6525  0A5B  0846               	movf	??_CONUSART+11,w
  6526  0A5C  00AF               	movwf	___aldiv@dividend+3
  6527  0A5D  0845               	movf	??_CONUSART+10,w
  6528  0A5E  00AE               	movwf	___aldiv@dividend+2
  6529  0A5F  0844               	movf	??_CONUSART+9,w
  6530  0A60  00AD               	movwf	___aldiv@dividend+1
  6531  0A61  0843               	movf	??_CONUSART+8,w
  6532  0A62  00AC               	movwf	___aldiv@dividend
  6533  0A63  120A  118A  2763  120A  158A  	fcall	___aldiv
  6534  0A68  1283               	bcf	3,5	;RP0=0, select bank0
  6535  0A69  1303               	bcf	3,6	;RP1=0, select bank0
  6536  0A6A  082B               	movf	?___aldiv+3,w
  6537  0A6B  00CA               	movwf	CONUSART@p+3
  6538  0A6C  082A               	movf	?___aldiv+2,w
  6539  0A6D  00C9               	movwf	CONUSART@p+2
  6540  0A6E  0829               	movf	?___aldiv+1,w
  6541  0A6F  00C8               	movwf	CONUSART@p+1
  6542  0A70  0828               	movf	?___aldiv,w
  6543  0A71  00C7               	movwf	CONUSART@p
  6544  0A72                     l1933:
  6545                           
  6546                           ;EUSCON.c: 10:     SPBRG = p;
  6547  0A72  0847               	movf	CONUSART@p,w
  6548  0A73  1683               	bsf	3,5	;RP0=1, select bank1
  6549  0A74  1303               	bcf	3,6	;RP1=0, select bank1
  6550  0A75  0099               	movwf	25	;volatile
  6551  0A76                     l183:
  6552  0A76  0008               	return
  6553  0A77                     __end_of_CONUSART:
  6554                           
  6555                           	psect	text21
  6556  0763                     __ptext21:	
  6557 ;; *************** function ___aldiv *****************
  6558 ;; Defined at:
  6559 ;;		line 5 in file "C:\Program Files\Microchip\xc8\v2.20\pic\sources\c90\common\aldiv.c"
  6560 ;; Parameters:    Size  Location     Type
  6561 ;;  divisor         4    8[BANK0 ] long 
  6562 ;;  dividend        4   12[BANK0 ] long 
  6563 ;; Auto vars:     Size  Location     Type
  6564 ;;  quotient        4   19[BANK0 ] long 
  6565 ;;  sign            1   18[BANK0 ] unsigned char 
  6566 ;;  counter         1   17[BANK0 ] unsigned char 
  6567 ;; Return value:  Size  Location     Type
  6568 ;;                  4    8[BANK0 ] long 
  6569 ;; Registers used:
  6570 ;;		wreg, status,2, status,0, btemp+1
  6571 ;; Tracked objects:
  6572 ;;		On entry : 0/0
  6573 ;;		On exit  : 0/0
  6574 ;;		Unchanged: 0/0
  6575 ;; Data sizes:     COMMON   BANK0   BANK1   BANK3   BANK2
  6576 ;;      Params:         0       8       0       0       0
  6577 ;;      Locals:         0       6       0       0       0
  6578 ;;      Temps:          0       1       0       0       0
  6579 ;;      Totals:         0      15       0       0       0
  6580 ;;Total ram usage:       15 bytes
  6581 ;; Hardware stack levels used:    1
  6582 ;; Hardware stack levels required when called:    2
  6583 ;; This function calls:
  6584 ;;		Nothing
  6585 ;; This function is called by:
  6586 ;;		_CONUSART
  6587 ;; This function uses a non-reentrant model
  6588 ;;
  6589                           
  6590                           
  6591                           ;psect for function ___aldiv
  6592  0763                     ___aldiv:
  6593  0763                     l1769:	
  6594                           ;incstack = 0
  6595                           ; Regs used in ___aldiv: [wreg+status,2+status,0+btemp+1]
  6596                           
  6597  0763  1283               	bcf	3,5	;RP0=0, select bank0
  6598  0764  1303               	bcf	3,6	;RP1=0, select bank0
  6599  0765  01B2               	clrf	___aldiv@sign
  6600  0766                     l1771:
  6601  0766  1FAB               	btfss	___aldiv@divisor+3,7
  6602  0767  2F69               	goto	u1831
  6603  0768  2F6A               	goto	u1830
  6604  0769                     u1831:
  6605  0769  2F77               	goto	l373
  6606  076A                     u1830:
  6607  076A                     l1773:
  6608  076A  09A8               	comf	___aldiv@divisor,f
  6609  076B  09A9               	comf	___aldiv@divisor+1,f
  6610  076C  09AA               	comf	___aldiv@divisor+2,f
  6611  076D  09AB               	comf	___aldiv@divisor+3,f
  6612  076E  0AA8               	incf	___aldiv@divisor,f
  6613  076F  1903               	skipnz
  6614  0770  0AA9               	incf	___aldiv@divisor+1,f
  6615  0771  1903               	skipnz
  6616  0772  0AAA               	incf	___aldiv@divisor+2,f
  6617  0773  1903               	skipnz
  6618  0774  0AAB               	incf	___aldiv@divisor+3,f
  6619  0775  01B2               	clrf	___aldiv@sign
  6620  0776  0AB2               	incf	___aldiv@sign,f
  6621  0777                     l373:
  6622  0777  1FAF               	btfss	___aldiv@dividend+3,7
  6623  0778  2F7A               	goto	u1841
  6624  0779  2F7B               	goto	u1840
  6625  077A                     u1841:
  6626  077A  2F8A               	goto	l1779
  6627  077B                     u1840:
  6628  077B                     l1775:
  6629  077B  09AC               	comf	___aldiv@dividend,f
  6630  077C  09AD               	comf	___aldiv@dividend+1,f
  6631  077D  09AE               	comf	___aldiv@dividend+2,f
  6632  077E  09AF               	comf	___aldiv@dividend+3,f
  6633  077F  0AAC               	incf	___aldiv@dividend,f
  6634  0780  1903               	skipnz
  6635  0781  0AAD               	incf	___aldiv@dividend+1,f
  6636  0782  1903               	skipnz
  6637  0783  0AAE               	incf	___aldiv@dividend+2,f
  6638  0784  1903               	skipnz
  6639  0785  0AAF               	incf	___aldiv@dividend+3,f
  6640  0786                     l1777:
  6641  0786  3001               	movlw	1
  6642  0787  00FF               	movwf	btemp+1
  6643  0788  087F               	movf	btemp+1,w
  6644  0789  06B2               	xorwf	___aldiv@sign,f
  6645  078A                     l1779:
  6646  078A  3000               	movlw	0
  6647  078B  00B6               	movwf	___aldiv@quotient+3
  6648  078C  3000               	movlw	0
  6649  078D  00B5               	movwf	___aldiv@quotient+2
  6650  078E  3000               	movlw	0
  6651  078F  00B4               	movwf	___aldiv@quotient+1
  6652  0790  3000               	movlw	0
  6653  0791  00B3               	movwf	___aldiv@quotient
  6654  0792                     l1781:
  6655  0792  082B               	movf	___aldiv@divisor+3,w
  6656  0793  042A               	iorwf	___aldiv@divisor+2,w
  6657  0794  0429               	iorwf	___aldiv@divisor+1,w
  6658  0795  0428               	iorwf	___aldiv@divisor,w
  6659  0796  1903               	skipnz
  6660  0797  2F99               	goto	u1851
  6661  0798  2F9A               	goto	u1850
  6662  0799                     u1851:
  6663  0799  2FE7               	goto	l1803
  6664  079A                     u1850:
  6665  079A                     l1783:
  6666  079A  01B1               	clrf	___aldiv@counter
  6667  079B  0AB1               	incf	___aldiv@counter,f
  6668  079C  2FAA               	goto	l1789
  6669  079D                     l1785:
  6670  079D  3001               	movlw	1
  6671  079E  00B0               	movwf	??___aldiv
  6672  079F                     u1865:
  6673  079F  1003               	clrc
  6674  07A0  0DA8               	rlf	___aldiv@divisor,f
  6675  07A1  0DA9               	rlf	___aldiv@divisor+1,f
  6676  07A2  0DAA               	rlf	___aldiv@divisor+2,f
  6677  07A3  0DAB               	rlf	___aldiv@divisor+3,f
  6678  07A4  0BB0               	decfsz	??___aldiv,f
  6679  07A5  2F9F               	goto	u1865
  6680  07A6                     l1787:
  6681  07A6  3001               	movlw	1
  6682  07A7  00FF               	movwf	btemp+1
  6683  07A8  087F               	movf	btemp+1,w
  6684  07A9  07B1               	addwf	___aldiv@counter,f
  6685  07AA                     l1789:
  6686  07AA  1FAB               	btfss	___aldiv@divisor+3,7
  6687  07AB  2FAD               	goto	u1871
  6688  07AC  2FAE               	goto	u1870
  6689  07AD                     u1871:
  6690  07AD  2F9D               	goto	l1785
  6691  07AE                     u1870:
  6692  07AE                     l1791:
  6693  07AE  3001               	movlw	1
  6694  07AF  00B0               	movwf	??___aldiv
  6695  07B0                     u1885:
  6696  07B0  1003               	clrc
  6697  07B1  0DB3               	rlf	___aldiv@quotient,f
  6698  07B2  0DB4               	rlf	___aldiv@quotient+1,f
  6699  07B3  0DB5               	rlf	___aldiv@quotient+2,f
  6700  07B4  0DB6               	rlf	___aldiv@quotient+3,f
  6701  07B5  0BB0               	decfsz	??___aldiv,f
  6702  07B6  2FB0               	goto	u1885
  6703  07B7                     l1793:
  6704  07B7  082B               	movf	___aldiv@divisor+3,w
  6705  07B8  022F               	subwf	___aldiv@dividend+3,w
  6706  07B9  1D03               	skipz
  6707  07BA  2FC5               	goto	u1895
  6708  07BB  082A               	movf	___aldiv@divisor+2,w
  6709  07BC  022E               	subwf	___aldiv@dividend+2,w
  6710  07BD  1D03               	skipz
  6711  07BE  2FC5               	goto	u1895
  6712  07BF  0829               	movf	___aldiv@divisor+1,w
  6713  07C0  022D               	subwf	___aldiv@dividend+1,w
  6714  07C1  1D03               	skipz
  6715  07C2  2FC5               	goto	u1895
  6716  07C3  0828               	movf	___aldiv@divisor,w
  6717  07C4  022C               	subwf	___aldiv@dividend,w
  6718  07C5                     u1895:
  6719  07C5  1C03               	skipc
  6720  07C6  2FC8               	goto	u1891
  6721  07C7  2FC9               	goto	u1890
  6722  07C8                     u1891:
  6723  07C8  2FD8               	goto	l1799
  6724  07C9                     u1890:
  6725  07C9                     l1795:
  6726  07C9  0828               	movf	___aldiv@divisor,w
  6727  07CA  02AC               	subwf	___aldiv@dividend,f
  6728  07CB  0829               	movf	___aldiv@divisor+1,w
  6729  07CC  1C03               	skipc
  6730  07CD  0F29               	incfsz	___aldiv@divisor+1,w
  6731  07CE  02AD               	subwf	___aldiv@dividend+1,f
  6732  07CF  082A               	movf	___aldiv@divisor+2,w
  6733  07D0  1C03               	skipc
  6734  07D1  0F2A               	incfsz	___aldiv@divisor+2,w
  6735  07D2  02AE               	subwf	___aldiv@dividend+2,f
  6736  07D3  082B               	movf	___aldiv@divisor+3,w
  6737  07D4  1C03               	skipc
  6738  07D5  0F2B               	incfsz	___aldiv@divisor+3,w
  6739  07D6  02AF               	subwf	___aldiv@dividend+3,f
  6740  07D7                     l1797:
  6741  07D7  1433               	bsf	___aldiv@quotient,0
  6742  07D8                     l1799:
  6743  07D8  3001               	movlw	1
  6744  07D9                     u1905:
  6745  07D9  1003               	clrc
  6746  07DA  0CAB               	rrf	___aldiv@divisor+3,f
  6747  07DB  0CAA               	rrf	___aldiv@divisor+2,f
  6748  07DC  0CA9               	rrf	___aldiv@divisor+1,f
  6749  07DD  0CA8               	rrf	___aldiv@divisor,f
  6750  07DE  3EFF               	addlw	-1
  6751  07DF  1D03               	skipz
  6752  07E0  2FD9               	goto	u1905
  6753  07E1                     l1801:
  6754  07E1  3001               	movlw	1
  6755  07E2  02B1               	subwf	___aldiv@counter,f
  6756  07E3  1D03               	btfss	3,2
  6757  07E4  2FE6               	goto	u1911
  6758  07E5  2FE7               	goto	u1910
  6759  07E6                     u1911:
  6760  07E6  2FAE               	goto	l1791
  6761  07E7                     u1910:
  6762  07E7                     l1803:
  6763  07E7  0832               	movf	___aldiv@sign,w
  6764  07E8  1903               	btfsc	3,2
  6765  07E9  2FEB               	goto	u1921
  6766  07EA  2FEC               	goto	u1920
  6767  07EB                     u1921:
  6768  07EB  2FF7               	goto	l1807
  6769  07EC                     u1920:
  6770  07EC                     l1805:
  6771  07EC  09B3               	comf	___aldiv@quotient,f
  6772  07ED  09B4               	comf	___aldiv@quotient+1,f
  6773  07EE  09B5               	comf	___aldiv@quotient+2,f
  6774  07EF  09B6               	comf	___aldiv@quotient+3,f
  6775  07F0  0AB3               	incf	___aldiv@quotient,f
  6776  07F1  1903               	skipnz
  6777  07F2  0AB4               	incf	___aldiv@quotient+1,f
  6778  07F3  1903               	skipnz
  6779  07F4  0AB5               	incf	___aldiv@quotient+2,f
  6780  07F5  1903               	skipnz
  6781  07F6  0AB6               	incf	___aldiv@quotient+3,f
  6782  07F7                     l1807:
  6783  07F7  0836               	movf	___aldiv@quotient+3,w
  6784  07F8  00AB               	movwf	?___aldiv+3
  6785  07F9  0835               	movf	___aldiv@quotient+2,w
  6786  07FA  00AA               	movwf	?___aldiv+2
  6787  07FB  0834               	movf	___aldiv@quotient+1,w
  6788  07FC  00A9               	movwf	?___aldiv+1
  6789  07FD  0833               	movf	___aldiv@quotient,w
  6790  07FE  00A8               	movwf	?___aldiv
  6791  07FF                     l383:
  6792  07FF  0008               	return
  6793  0800                     __end_of___aldiv:
  6794                           
  6795                           	psect	text22
  6796  1725                     __ptext22:	
  6797 ;; *************** function _ADCL_con *****************
  6798 ;; Defined at:
  6799 ;;		line 10 in file "adc.c"
  6800 ;; Parameters:    Size  Location     Type
  6801 ;;		None
  6802 ;; Auto vars:     Size  Location     Type
  6803 ;;		None
  6804 ;; Return value:  Size  Location     Type
  6805 ;;                  1    wreg      void 
  6806 ;; Registers used:
  6807 ;;		wreg, status,2
  6808 ;; Tracked objects:
  6809 ;;		On entry : 0/0
  6810 ;;		On exit  : 0/0
  6811 ;;		Unchanged: 0/0
  6812 ;; Data sizes:     COMMON   BANK0   BANK1   BANK3   BANK2
  6813 ;;      Params:         0       0       0       0       0
  6814 ;;      Locals:         0       0       0       0       0
  6815 ;;      Temps:          0       0       0       0       0
  6816 ;;      Totals:         0       0       0       0       0
  6817 ;;Total ram usage:        0 bytes
  6818 ;; Hardware stack levels used:    1
  6819 ;; Hardware stack levels required when called:    2
  6820 ;; This function calls:
  6821 ;;		Nothing
  6822 ;; This function is called by:
  6823 ;;		_main
  6824 ;; This function uses a non-reentrant model
  6825 ;;
  6826                           
  6827                           
  6828                           ;psect for function _ADCL_con
  6829  1725                     _ADCL_con:
  6830  1725                     l1873:	
  6831                           ;incstack = 0
  6832                           ; Regs used in _ADCL_con: [wreg+status,2]
  6833                           
  6834                           
  6835                           ;adc.c: 11:     PIE1bits.ADIE = 1;
  6836  1725  1683               	bsf	3,5	;RP0=1, select bank1
  6837  1726  1303               	bcf	3,6	;RP1=0, select bank1
  6838  1727  170C               	bsf	12,6	;volatile
  6839  1728                     l1875:
  6840                           
  6841                           ;adc.c: 12:     ADCON0 = 0b10000001;
  6842  1728  3081               	movlw	129
  6843  1729  1283               	bcf	3,5	;RP0=0, select bank0
  6844  172A  1303               	bcf	3,6	;RP1=0, select bank0
  6845  172B  009F               	movwf	31	;volatile
  6846  172C                     l1877:
  6847                           
  6848                           ;adc.c: 13:     ADCON1 = 0;
  6849  172C  1683               	bsf	3,5	;RP0=1, select bank1
  6850  172D  1303               	bcf	3,6	;RP1=0, select bank1
  6851  172E  019F               	clrf	31	;volatile
  6852  172F                     l9:
  6853  172F  0008               	return
  6854  1730                     __end_of_ADCL_con:
  6855                           
  6856                           	psect	text23
  6857  06A4                     __ptext23:	
  6858 ;; *************** function _intac *****************
  6859 ;; Defined at:
  6860 ;;		line 37 in file "Lab3.c"
  6861 ;; Parameters:    Size  Location     Type
  6862 ;;		None
  6863 ;; Auto vars:     Size  Location     Type
  6864 ;;		None
  6865 ;; Return value:  Size  Location     Type
  6866 ;;                  1    wreg      void 
  6867 ;; Registers used:
  6868 ;;		wreg, fsr0l, fsr0h, status,2, status,0, btemp+1, pclath, cstack
  6869 ;; Tracked objects:
  6870 ;;		On entry : 0/0
  6871 ;;		On exit  : 0/0
  6872 ;;		Unchanged: 0/0
  6873 ;; Data sizes:     COMMON   BANK0   BANK1   BANK3   BANK2
  6874 ;;      Params:         0       0       0       0       0
  6875 ;;      Locals:         0       0       0       0       0
  6876 ;;      Temps:          0       8       0       0       0
  6877 ;;      Totals:         0       8       0       0       0
  6878 ;;Total ram usage:        8 bytes
  6879 ;; Hardware stack levels used:    1
  6880 ;; Hardware stack levels required when called:    1
  6881 ;; This function calls:
  6882 ;;		___xxtofl
  6883 ;; This function is called by:
  6884 ;;		Interrupt level 1
  6885 ;; This function uses a non-reentrant model
  6886 ;;
  6887                           
  6888                           
  6889                           ;psect for function _intac
  6890  06A4                     _intac:
  6891  06A4                     i1l2483:
  6892                           
  6893                           ;Lab3.c: 39:     if (PIR1bits.ADIF == 1) {
  6894  06A4  1F0C               	btfss	12,6	;volatile
  6895  06A5  2EA7               	goto	u339_21
  6896  06A6  2EA8               	goto	u339_20
  6897  06A7                     u339_21:
  6898  06A7  2F11               	goto	i1l2505
  6899  06A8                     u339_20:
  6900  06A8                     i1l2485:
  6901                           
  6902                           ;Lab3.c: 41:         fla = 1;
  6903  06A8  3001               	movlw	1
  6904  06A9  1683               	bsf	3,5	;RP0=1, select bank1
  6905  06AA  1303               	bcf	3,6	;RP1=0, select bank1
  6906  06AB  00B2               	movwf	_fla^(0+128)
  6907  06AC  3000               	movlw	0
  6908  06AD  00B3               	movwf	(_fla^(0+128)+1)
  6909  06AE                     i1l2487:
  6910                           
  6911                           ;Lab3.c: 42:         if (cons == 0) {
  6912  06AE  1283               	bcf	3,5	;RP0=0, select bank0
  6913  06AF  1303               	bcf	3,6	;RP1=0, select bank0
  6914  06B0  0862               	movf	_cons,w
  6915  06B1  0463               	iorwf	_cons+1,w
  6916  06B2  1D03               	btfss	3,2
  6917  06B3  2EB5               	goto	u340_21
  6918  06B4  2EB6               	goto	u340_20
  6919  06B5                     u340_21:
  6920  06B5  2ED4               	goto	i1l2491
  6921  06B6                     u340_20:
  6922  06B6                     i1l2489:
  6923                           
  6924                           ;Lab3.c: 43:             voltage1 = ADRESH;
  6925  06B6  081E               	movf	30,w	;volatile
  6926  06B7  00A0               	movwf	??_intac
  6927  06B8  01A1               	clrf	??_intac+1
  6928  06B9  01A2               	clrf	??_intac+2
  6929  06BA  01A3               	clrf	??_intac+3
  6930  06BB  0823               	movf	??_intac+3,w
  6931  06BC  00F3               	movwf	___xxtofl@val+3
  6932  06BD  0822               	movf	??_intac+2,w
  6933  06BE  00F2               	movwf	___xxtofl@val+2
  6934  06BF  0821               	movf	??_intac+1,w
  6935  06C0  00F1               	movwf	___xxtofl@val+1
  6936  06C1  0820               	movf	??_intac,w
  6937  06C2  00F0               	movwf	___xxtofl@val
  6938  06C3  3000               	movlw	0
  6939  06C4  120A  158A  2315  120A  118A  	fcall	___xxtofl
  6940  06C9  0873               	movf	?___xxtofl+3,w
  6941  06CA  1683               	bsf	3,5	;RP0=1, select bank1
  6942  06CB  1303               	bcf	3,6	;RP1=0, select bank1
  6943  06CC  00A7               	movwf	(_voltage1+3)^(0+128)
  6944  06CD  0872               	movf	?___xxtofl+2,w
  6945  06CE  00A6               	movwf	(_voltage1+2)^(0+128)
  6946  06CF  0871               	movf	?___xxtofl+1,w
  6947  06D0  00A5               	movwf	(_voltage1+1)^(0+128)
  6948  06D1  0870               	movf	?___xxtofl,w
  6949  06D2  00A4               	movwf	_voltage1^(0+128)
  6950                           
  6951                           ;Lab3.c: 44:         } else if (cons == 1) {
  6952  06D3  2EF7               	goto	i1l2495
  6953  06D4                     i1l2491:
  6954  06D4  0362               	decf	_cons,w
  6955  06D5  0463               	iorwf	_cons+1,w
  6956  06D6  1D03               	btfss	3,2
  6957  06D7  2ED9               	goto	u341_21
  6958  06D8  2EDA               	goto	u341_20
  6959  06D9                     u341_21:
  6960  06D9  2EF7               	goto	i1l2495
  6961  06DA                     u341_20:
  6962  06DA                     i1l2493:
  6963                           
  6964                           ;Lab3.c: 45:             voltage2 = ADRESH;
  6965  06DA  081E               	movf	30,w	;volatile
  6966  06DB  00A0               	movwf	??_intac
  6967  06DC  01A1               	clrf	??_intac+1
  6968  06DD  01A2               	clrf	??_intac+2
  6969  06DE  01A3               	clrf	??_intac+3
  6970  06DF  0823               	movf	??_intac+3,w
  6971  06E0  00F3               	movwf	___xxtofl@val+3
  6972  06E1  0822               	movf	??_intac+2,w
  6973  06E2  00F2               	movwf	___xxtofl@val+2
  6974  06E3  0821               	movf	??_intac+1,w
  6975  06E4  00F1               	movwf	___xxtofl@val+1
  6976  06E5  0820               	movf	??_intac,w
  6977  06E6  00F0               	movwf	___xxtofl@val
  6978  06E7  3000               	movlw	0
  6979  06E8  120A  158A  2315  120A  118A  	fcall	___xxtofl
  6980  06ED  0873               	movf	?___xxtofl+3,w
  6981  06EE  1683               	bsf	3,5	;RP0=1, select bank1
  6982  06EF  1303               	bcf	3,6	;RP1=0, select bank1
  6983  06F0  00A3               	movwf	(_voltage2+3)^(0+128)
  6984  06F1  0872               	movf	?___xxtofl+2,w
  6985  06F2  00A2               	movwf	(_voltage2+2)^(0+128)
  6986  06F3  0871               	movf	?___xxtofl+1,w
  6987  06F4  00A1               	movwf	(_voltage2+1)^(0+128)
  6988  06F5  0870               	movf	?___xxtofl,w
  6989  06F6  00A0               	movwf	_voltage2^(0+128)
  6990  06F7                     i1l2495:
  6991                           
  6992                           ;Lab3.c: 47:         cons++;
  6993  06F7  3001               	movlw	1
  6994  06F8  1283               	bcf	3,5	;RP0=0, select bank0
  6995  06F9  07E2               	addwf	_cons,f
  6996  06FA  1803               	skipnc
  6997  06FB  0AE3               	incf	_cons+1,f
  6998  06FC  3000               	movlw	0
  6999  06FD  07E3               	addwf	_cons+1,f
  7000  06FE                     i1l2497:
  7001                           
  7002                           ;Lab3.c: 48:         PIR1bits.ADIF = 0;
  7003  06FE  130C               	bcf	12,6	;volatile
  7004  06FF                     i1l2499:
  7005                           
  7006                           ;Lab3.c: 49:         if (cons == 2) {
  7007  06FF  3002               	movlw	2
  7008  0700  0662               	xorwf	_cons,w
  7009  0701  0463               	iorwf	_cons+1,w
  7010  0702  1D03               	btfss	3,2
  7011  0703  2F05               	goto	u342_21
  7012  0704  2F06               	goto	u342_20
  7013  0705                     u342_21:
  7014  0705  2F08               	goto	i1l2503
  7015  0706                     u342_20:
  7016  0706                     i1l2501:
  7017                           
  7018                           ;Lab3.c: 50:             cons = 0;
  7019  0706  01E2               	clrf	_cons
  7020  0707  01E3               	clrf	_cons+1
  7021  0708                     i1l2503:
  7022                           
  7023                           ;Lab3.c: 52:         ADCON0bits.CHS = cons;
  7024  0708  0862               	movf	_cons,w
  7025  0709  00A0               	movwf	??_intac
  7026  070A  0DA0               	rlf	??_intac,f
  7027  070B  0DA0               	rlf	??_intac,f
  7028  070C  081F               	movf	31,w	;volatile
  7029  070D  0620               	xorwf	??_intac,w
  7030  070E  39C3               	andlw	-61
  7031  070F  0620               	xorwf	??_intac,w
  7032  0710  009F               	movwf	31	;volatile
  7033  0711                     i1l2505:
  7034                           
  7035                           ;Lab3.c: 55:     if (PIR1bits.TXIF == 1) {
  7036  0711  1E0C               	btfss	12,4	;volatile
  7037  0712  2F14               	goto	u343_21
  7038  0713  2F15               	goto	u343_20
  7039  0714                     u343_21:
  7040  0714  2F31               	goto	i1l2515
  7041  0715                     u343_20:
  7042  0715                     i1l2507:
  7043                           
  7044                           ;Lab3.c: 56:         TXREG = datos[incre];
  7045  0715  1683               	bsf	3,5	;RP0=1, select bank1
  7046  0716  1303               	bcf	3,6	;RP1=0, select bank1
  7047  0717  0830               	movf	_incre^(0+128),w
  7048  0718  3EA4               	addlw	(low (_datos| (0+256)))& (0+255)
  7049  0719  0084               	movwf	4
  7050  071A  1783               	bsf	3,7	;select IRP bank3
  7051  071B  0800               	movf	0,w
  7052  071C  1283               	bcf	3,5	;RP0=0, select bank0
  7053  071D  1303               	bcf	3,6	;RP1=0, select bank0
  7054  071E  0099               	movwf	25	;volatile
  7055  071F                     i1l2509:
  7056                           
  7057                           ;Lab3.c: 57:         if (incre == 20) {
  7058  071F  3014               	movlw	20
  7059  0720  1683               	bsf	3,5	;RP0=1, select bank1
  7060  0721  1303               	bcf	3,6	;RP1=0, select bank1
  7061  0722  0630               	xorwf	_incre^(0+128),w
  7062  0723  0431               	iorwf	(_incre+1)^(0+128),w
  7063  0724  1D03               	btfss	3,2
  7064  0725  2F27               	goto	u344_21
  7065  0726  2F28               	goto	u344_20
  7066  0727                     u344_21:
  7067  0727  2F2B               	goto	i1l2513
  7068  0728                     u344_20:
  7069  0728                     i1l2511:
  7070                           
  7071                           ;Lab3.c: 58:             incre = 0;
  7072  0728  01B0               	clrf	_incre^(0+128)
  7073  0729  01B1               	clrf	(_incre+1)^(0+128)
  7074                           
  7075                           ;Lab3.c: 59:         } else {
  7076  072A  2F31               	goto	i1l2515
  7077  072B                     i1l2513:
  7078                           
  7079                           ;Lab3.c: 60:             incre++;
  7080  072B  3001               	movlw	1
  7081  072C  07B0               	addwf	_incre^(0+128),f
  7082  072D  1803               	skipnc
  7083  072E  0AB1               	incf	(_incre+1)^(0+128),f
  7084  072F  3000               	movlw	0
  7085  0730  07B1               	addwf	(_incre+1)^(0+128),f
  7086  0731                     i1l2515:
  7087                           
  7088                           ;Lab3.c: 63:     if (PIR1bits.RCIF == 1) {
  7089  0731  1283               	bcf	3,5	;RP0=0, select bank0
  7090  0732  1E8C               	btfss	12,5	;volatile
  7091  0733  2F35               	goto	u345_21
  7092  0734  2F36               	goto	u345_20
  7093  0735                     u345_21:
  7094  0735  2F57               	goto	i1l156
  7095  0736                     u345_20:
  7096  0736                     i1l2517:
  7097                           
  7098                           ;Lab3.c: 64:         leer = RCREG;
  7099  0736  081A               	movf	26,w	;volatile
  7100  0737  00FF               	movwf	btemp+1
  7101  0738  087F               	movf	btemp+1,w
  7102  0739  00E4               	movwf	_leer
  7103  073A                     i1l2519:
  7104                           
  7105                           ;Lab3.c: 65:         if (leer == '+') {
  7106  073A  302B               	movlw	43
  7107  073B  0664               	xorwf	_leer,w
  7108  073C  1D03               	btfss	3,2
  7109  073D  2F3F               	goto	u346_21
  7110  073E  2F40               	goto	u346_20
  7111  073F                     u346_21:
  7112  073F  2F49               	goto	i1l2523
  7113  0740                     u346_20:
  7114  0740                     i1l2521:
  7115                           
  7116                           ;Lab3.c: 66:             incre2++;
  7117  0740  3001               	movlw	1
  7118  0741  1683               	bsf	3,5	;RP0=1, select bank1
  7119  0742  1303               	bcf	3,6	;RP1=0, select bank1
  7120  0743  07AE               	addwf	_incre2^(0+128),f
  7121  0744  1803               	skipnc
  7122  0745  0AAF               	incf	(_incre2+1)^(0+128),f
  7123  0746  3000               	movlw	0
  7124  0747  07AF               	addwf	(_incre2+1)^(0+128),f
  7125                           
  7126                           ;Lab3.c: 67:         } else if (leer == '-') {
  7127  0748  2F57               	goto	i1l156
  7128  0749                     i1l2523:
  7129  0749  302D               	movlw	45
  7130  074A  0664               	xorwf	_leer,w
  7131  074B  1D03               	btfss	3,2
  7132  074C  2F4E               	goto	u347_21
  7133  074D  2F4F               	goto	u347_20
  7134  074E                     u347_21:
  7135  074E  2F57               	goto	i1l156
  7136  074F                     u347_20:
  7137  074F                     i1l2525:
  7138                           
  7139                           ;Lab3.c: 68:             incre2--;
  7140  074F  30FF               	movlw	255
  7141  0750  1683               	bsf	3,5	;RP0=1, select bank1
  7142  0751  1303               	bcf	3,6	;RP1=0, select bank1
  7143  0752  07AE               	addwf	_incre2^(0+128),f
  7144  0753  1803               	skipnc
  7145  0754  0AAF               	incf	(_incre2+1)^(0+128),f
  7146  0755  30FF               	movlw	255
  7147  0756  07AF               	addwf	(_incre2+1)^(0+128),f
  7148  0757                     i1l156:
  7149  0757  1283               	bcf	3,5	;RP0=0, select bank0
  7150  0758  0827               	movf	??_intac+7,w
  7151  0759  00FF               	movwf	btemp+1
  7152  075A  0826               	movf	??_intac+6,w
  7153  075B  008A               	movwf	10
  7154  075C  0825               	movf	??_intac+5,w
  7155  075D  0084               	movwf	4
  7156  075E  0E24               	swapf	(??_intac+4)^0,w
  7157  075F  0083               	movwf	3
  7158  0760  0EFE               	swapf	btemp,f
  7159  0761  0E7E               	swapf	btemp,w
  7160  0762  0009               	retfie
  7161  0763                     __end_of_intac:
  7162                           
  7163                           	psect	intentry
  7164  0004                     __pintentry:	
  7165                           ;incstack = 0
  7166                           ; Regs used in _intac: [wreg-fsr0h+status,2+status,0+btemp+1+pclath+cstack]
  7167                           
  7168  0004                     interrupt_function:
  7169  007E                     saved_w	set	btemp
  7170  0004  00FE               	movwf	btemp
  7171  0005  0E03               	swapf	3,w
  7172  0006  1283               	bcf	3,5	;RP0=0, select bank0
  7173  0007  1303               	bcf	3,6	;RP1=0, select bank0
  7174  0008  00A4               	movwf	??_intac+4
  7175  0009  0804               	movf	4,w
  7176  000A  00A5               	movwf	??_intac+5
  7177  000B  080A               	movf	10,w
  7178  000C  00A6               	movwf	??_intac+6
  7179  000D  087F               	movf	btemp+1,w
  7180  000E  00A7               	movwf	??_intac+7
  7181  000F  120A  118A  2EA4   	ljmp	_intac
  7182                           
  7183                           	psect	text24
  7184  0B15                     __ptext24:	
  7185 ;; *************** function ___xxtofl *****************
  7186 ;; Defined at:
  7187 ;;		line 10 in file "C:\Program Files\Microchip\xc8\v2.20\pic\sources\c90\common\xxtofl.c"
  7188 ;; Parameters:    Size  Location     Type
  7189 ;;  sign            1    wreg     unsigned char 
  7190 ;;  val             4    0[COMMON] long 
  7191 ;; Auto vars:     Size  Location     Type
  7192 ;;  sign            1    8[COMMON] unsigned char 
  7193 ;;  arg             4   10[COMMON] unsigned long 
  7194 ;;  exp             1    9[COMMON] unsigned char 
  7195 ;; Return value:  Size  Location     Type
  7196 ;;                  4    0[COMMON] unsigned char 
  7197 ;; Registers used:
  7198 ;;		wreg, status,2, status,0, btemp+1
  7199 ;; Tracked objects:
  7200 ;;		On entry : 0/0
  7201 ;;		On exit  : 0/0
  7202 ;;		Unchanged: 0/0
  7203 ;; Data sizes:     COMMON   BANK0   BANK1   BANK3   BANK2
  7204 ;;      Params:         4       0       0       0       0
  7205 ;;      Locals:         6       0       0       0       0
  7206 ;;      Temps:          4       0       0       0       0
  7207 ;;      Totals:        14       0       0       0       0
  7208 ;;Total ram usage:       14 bytes
  7209 ;; Hardware stack levels used:    1
  7210 ;; This function calls:
  7211 ;;		Nothing
  7212 ;; This function is called by:
  7213 ;;		_intac
  7214 ;; This function uses a non-reentrant model
  7215 ;;
  7216                           
  7217                           
  7218                           ;psect for function ___xxtofl
  7219  0B15                     ___xxtofl:
  7220                           
  7221                           ;incstack = 0
  7222                           ; Regs used in ___xxtofl: [wreg+status,2+status,0+btemp+1]
  7223                           ;___xxtofl@sign stored from wreg
  7224  0B15  00F8               	movwf	___xxtofl@sign
  7225  0B16                     i1l2435:
  7226  0B16  0878               	movf	___xxtofl@sign,w
  7227  0B17  1903               	btfsc	3,2
  7228  0B18  2B1A               	goto	u325_21
  7229  0B19  2B1B               	goto	u325_20
  7230  0B1A                     u325_21:
  7231  0B1A  2B2F               	goto	i1l2441
  7232  0B1B                     u325_20:
  7233  0B1B                     i1l2437:
  7234  0B1B  1FF3               	btfss	___xxtofl@val+3,7
  7235  0B1C  2B1E               	goto	u326_21
  7236  0B1D  2B1F               	goto	u326_20
  7237  0B1E                     u326_21:
  7238  0B1E  2B2F               	goto	i1l2441
  7239  0B1F                     u326_20:
  7240  0B1F                     i1l2439:
  7241  0B1F  0970               	comf	___xxtofl@val,w
  7242  0B20  00FA               	movwf	___xxtofl@arg
  7243  0B21  0971               	comf	___xxtofl@val+1,w
  7244  0B22  00FB               	movwf	___xxtofl@arg+1
  7245  0B23  0972               	comf	___xxtofl@val+2,w
  7246  0B24  00FC               	movwf	___xxtofl@arg+2
  7247  0B25  0973               	comf	___xxtofl@val+3,w
  7248  0B26  00FD               	movwf	___xxtofl@arg+3
  7249  0B27  0AFA               	incf	___xxtofl@arg,f
  7250  0B28  1903               	skipnz
  7251  0B29  0AFB               	incf	___xxtofl@arg+1,f
  7252  0B2A  1903               	skipnz
  7253  0B2B  0AFC               	incf	___xxtofl@arg+2,f
  7254  0B2C  1903               	skipnz
  7255  0B2D  0AFD               	incf	___xxtofl@arg+3,f
  7256  0B2E  2B37               	goto	i1l741
  7257  0B2F                     i1l2441:
  7258  0B2F  0873               	movf	___xxtofl@val+3,w
  7259  0B30  00FD               	movwf	___xxtofl@arg+3
  7260  0B31  0872               	movf	___xxtofl@val+2,w
  7261  0B32  00FC               	movwf	___xxtofl@arg+2
  7262  0B33  0871               	movf	___xxtofl@val+1,w
  7263  0B34  00FB               	movwf	___xxtofl@arg+1
  7264  0B35  0870               	movf	___xxtofl@val,w
  7265  0B36  00FA               	movwf	___xxtofl@arg
  7266  0B37                     i1l741:
  7267  0B37  0873               	movf	___xxtofl@val+3,w
  7268  0B38  0472               	iorwf	___xxtofl@val+2,w
  7269  0B39  0471               	iorwf	___xxtofl@val+1,w
  7270  0B3A  0470               	iorwf	___xxtofl@val,w
  7271  0B3B  1D03               	skipz
  7272  0B3C  2B3E               	goto	u327_21
  7273  0B3D  2B3F               	goto	u327_20
  7274  0B3E                     u327_21:
  7275  0B3E  2B48               	goto	i1l2447
  7276  0B3F                     u327_20:
  7277  0B3F                     i1l2443:
  7278  0B3F  3000               	movlw	0
  7279  0B40  00F3               	movwf	?___xxtofl+3
  7280  0B41  3000               	movlw	0
  7281  0B42  00F2               	movwf	?___xxtofl+2
  7282  0B43  3000               	movlw	0
  7283  0B44  00F1               	movwf	?___xxtofl+1
  7284  0B45  3000               	movlw	0
  7285  0B46  00F0               	movwf	?___xxtofl
  7286  0B47  2BCE               	goto	i1l743
  7287  0B48                     i1l2447:
  7288  0B48  3096               	movlw	150
  7289  0B49  00FF               	movwf	btemp+1
  7290  0B4A  087F               	movf	btemp+1,w
  7291  0B4B  00F9               	movwf	___xxtofl@exp
  7292  0B4C  2B5A               	goto	i1l2453
  7293  0B4D                     i1l2449:
  7294  0B4D  3001               	movlw	1
  7295  0B4E  00FF               	movwf	btemp+1
  7296  0B4F  087F               	movf	btemp+1,w
  7297  0B50  07F9               	addwf	___xxtofl@exp,f
  7298  0B51                     i1l2451:
  7299  0B51  3001               	movlw	1
  7300  0B52                     u328_25:
  7301  0B52  1003               	clrc
  7302  0B53  0CFD               	rrf	___xxtofl@arg+3,f
  7303  0B54  0CFC               	rrf	___xxtofl@arg+2,f
  7304  0B55  0CFB               	rrf	___xxtofl@arg+1,f
  7305  0B56  0CFA               	rrf	___xxtofl@arg,f
  7306  0B57  3EFF               	addlw	-1
  7307  0B58  1D03               	skipz
  7308  0B59  2B52               	goto	u328_25
  7309  0B5A                     i1l2453:
  7310  0B5A  30FE               	movlw	254
  7311  0B5B  057D               	andwf	___xxtofl@arg+3,w
  7312  0B5C  1D03               	btfss	3,2
  7313  0B5D  2B5F               	goto	u329_21
  7314  0B5E  2B60               	goto	u329_20
  7315  0B5F                     u329_21:
  7316  0B5F  2B4D               	goto	i1l2449
  7317  0B60                     u329_20:
  7318  0B60  2B7C               	goto	i1l2461
  7319  0B61                     i1l2455:
  7320  0B61  3001               	movlw	1
  7321  0B62  00FF               	movwf	btemp+1
  7322  0B63  087F               	movf	btemp+1,w
  7323  0B64  07F9               	addwf	___xxtofl@exp,f
  7324  0B65                     i1l2457:
  7325  0B65  3001               	movlw	1
  7326  0B66  07FA               	addwf	___xxtofl@arg,f
  7327  0B67  3000               	movlw	0
  7328  0B68  1803               	skipnc
  7329  0B69  3001               	movlw	1
  7330  0B6A  07FB               	addwf	___xxtofl@arg+1,f
  7331  0B6B  3000               	movlw	0
  7332  0B6C  1803               	skipnc
  7333  0B6D  3001               	movlw	1
  7334  0B6E  07FC               	addwf	___xxtofl@arg+2,f
  7335  0B6F  3000               	movlw	0
  7336  0B70  1803               	skipnc
  7337  0B71  3001               	movlw	1
  7338  0B72  07FD               	addwf	___xxtofl@arg+3,f
  7339  0B73                     i1l2459:
  7340  0B73  3001               	movlw	1
  7341  0B74                     u330_25:
  7342  0B74  1003               	clrc
  7343  0B75  0CFD               	rrf	___xxtofl@arg+3,f
  7344  0B76  0CFC               	rrf	___xxtofl@arg+2,f
  7345  0B77  0CFB               	rrf	___xxtofl@arg+1,f
  7346  0B78  0CFA               	rrf	___xxtofl@arg,f
  7347  0B79  3EFF               	addlw	-1
  7348  0B7A  1D03               	skipz
  7349  0B7B  2B74               	goto	u330_25
  7350  0B7C                     i1l2461:
  7351  0B7C  30FF               	movlw	255
  7352  0B7D  057D               	andwf	___xxtofl@arg+3,w
  7353  0B7E  1D03               	btfss	3,2
  7354  0B7F  2B81               	goto	u331_21
  7355  0B80  2B82               	goto	u331_20
  7356  0B81                     u331_21:
  7357  0B81  2B61               	goto	i1l2455
  7358  0B82                     u331_20:
  7359  0B82  2B8E               	goto	i1l2465
  7360  0B83                     i1l2463:
  7361  0B83  3001               	movlw	1
  7362  0B84  02F9               	subwf	___xxtofl@exp,f
  7363  0B85  3001               	movlw	1
  7364  0B86  00F4               	movwf	??___xxtofl
  7365  0B87                     u332_25:
  7366  0B87  1003               	clrc
  7367  0B88  0DFA               	rlf	___xxtofl@arg,f
  7368  0B89  0DFB               	rlf	___xxtofl@arg+1,f
  7369  0B8A  0DFC               	rlf	___xxtofl@arg+2,f
  7370  0B8B  0DFD               	rlf	___xxtofl@arg+3,f
  7371  0B8C  0BF4               	decfsz	??___xxtofl,f
  7372  0B8D  2B87               	goto	u332_25
  7373  0B8E                     i1l2465:
  7374  0B8E  1BFC               	btfsc	___xxtofl@arg+2,7
  7375  0B8F  2B91               	goto	u333_21
  7376  0B90  2B92               	goto	u333_20
  7377  0B91                     u333_21:
  7378  0B91  2B98               	goto	i1l754
  7379  0B92                     u333_20:
  7380  0B92                     i1l2467:
  7381  0B92  3002               	movlw	2
  7382  0B93  0279               	subwf	___xxtofl@exp,w
  7383  0B94  1803               	skipnc
  7384  0B95  2B97               	goto	u334_21
  7385  0B96  2B98               	goto	u334_20
  7386  0B97                     u334_21:
  7387  0B97  2B83               	goto	i1l2463
  7388  0B98                     u334_20:
  7389  0B98                     i1l754:
  7390  0B98  1879               	btfsc	___xxtofl@exp,0
  7391  0B99  2B9B               	goto	u335_21
  7392  0B9A  2B9C               	goto	u335_20
  7393  0B9B                     u335_21:
  7394  0B9B  2BA4               	goto	i1l755
  7395  0B9C                     u335_20:
  7396  0B9C                     i1l2469:
  7397  0B9C  30FF               	movlw	255
  7398  0B9D  05FA               	andwf	___xxtofl@arg,f
  7399  0B9E  30FF               	movlw	255
  7400  0B9F  05FB               	andwf	___xxtofl@arg+1,f
  7401  0BA0  307F               	movlw	127
  7402  0BA1  05FC               	andwf	___xxtofl@arg+2,f
  7403  0BA2  30FF               	movlw	255
  7404  0BA3  05FD               	andwf	___xxtofl@arg+3,f
  7405  0BA4                     i1l755:
  7406  0BA4  1003               	clrc
  7407  0BA5  0CF9               	rrf	___xxtofl@exp,f
  7408  0BA6                     i1l2471:
  7409  0BA6  0879               	movf	___xxtofl@exp,w
  7410  0BA7  00F4               	movwf	??___xxtofl
  7411  0BA8  01F5               	clrf	??___xxtofl+1
  7412  0BA9  01F6               	clrf	??___xxtofl+2
  7413  0BAA  01F7               	clrf	??___xxtofl+3
  7414  0BAB  3018               	movlw	24
  7415  0BAC                     u336_25:
  7416  0BAC  1003               	clrc
  7417  0BAD  0DF4               	rlf	??___xxtofl,f
  7418  0BAE  0DF5               	rlf	??___xxtofl+1,f
  7419  0BAF  0DF6               	rlf	??___xxtofl+2,f
  7420  0BB0  0DF7               	rlf	??___xxtofl+3,f
  7421  0BB1                     u336_20:
  7422  0BB1  3EFF               	addlw	-1
  7423  0BB2  1D03               	skipz
  7424  0BB3  2BAC               	goto	u336_25
  7425  0BB4  0874               	movf	??___xxtofl,w
  7426  0BB5  04FA               	iorwf	___xxtofl@arg,f
  7427  0BB6  0875               	movf	??___xxtofl+1,w
  7428  0BB7  04FB               	iorwf	___xxtofl@arg+1,f
  7429  0BB8  0876               	movf	??___xxtofl+2,w
  7430  0BB9  04FC               	iorwf	___xxtofl@arg+2,f
  7431  0BBA  0877               	movf	??___xxtofl+3,w
  7432  0BBB  04FD               	iorwf	___xxtofl@arg+3,f
  7433  0BBC                     i1l2473:
  7434  0BBC  0878               	movf	___xxtofl@sign,w
  7435  0BBD  1903               	btfsc	3,2
  7436  0BBE  2BC0               	goto	u337_21
  7437  0BBF  2BC1               	goto	u337_20
  7438  0BC0                     u337_21:
  7439  0BC0  2BC6               	goto	i1l2479
  7440  0BC1                     u337_20:
  7441  0BC1                     i1l2475:
  7442  0BC1  1FF3               	btfss	___xxtofl@val+3,7
  7443  0BC2  2BC4               	goto	u338_21
  7444  0BC3  2BC5               	goto	u338_20
  7445  0BC4                     u338_21:
  7446  0BC4  2BC6               	goto	i1l2479
  7447  0BC5                     u338_20:
  7448  0BC5                     i1l2477:
  7449  0BC5  17FD               	bsf	___xxtofl@arg+3,7
  7450  0BC6                     i1l2479:
  7451  0BC6  087D               	movf	___xxtofl@arg+3,w
  7452  0BC7  00F3               	movwf	?___xxtofl+3
  7453  0BC8  087C               	movf	___xxtofl@arg+2,w
  7454  0BC9  00F2               	movwf	?___xxtofl+2
  7455  0BCA  087B               	movf	___xxtofl@arg+1,w
  7456  0BCB  00F1               	movwf	?___xxtofl+1
  7457  0BCC  087A               	movf	___xxtofl@arg,w
  7458  0BCD  00F0               	movwf	?___xxtofl
  7459  0BCE                     i1l743:
  7460  0BCE  0008               	return
  7461  0BCF                     __end_of___xxtofl:
  7462  007E                     btemp	set	126	;btemp
  7463  007E                     wtemp0	set	126
  7464                           
  7465                           	psect	config
  7466                           
  7467                           ;Config register CONFIG1 @ 0x2007
  7468                           ;	Oscillator Selection bits
  7469                           ;	FOSC = EXTRC_CLKOUT, RC oscillator: CLKOUT function on RA6/OSC2/CLKOUT pin, RC on RA7/
      +                          OSC1/CLKIN
  7470                           ;	Watchdog Timer Enable bit
  7471                           ;	WDTE = OFF, WDT disabled and can be enabled by SWDTEN bit of the WDTCON register
  7472                           ;	Power-up Timer Enable bit
  7473                           ;	PWRTE = OFF, PWRT disabled
  7474                           ;	RE3/MCLR pin function select bit
  7475                           ;	MCLRE = OFF, RE3/MCLR pin function is digital input, MCLR internally tied to VDD
  7476                           ;	Code Protection bit
  7477                           ;	CP = OFF, Program memory code protection is disabled
  7478                           ;	Data Code Protection bit
  7479                           ;	CPD = OFF, Data memory code protection is disabled
  7480                           ;	Brown Out Reset Selection bits
  7481                           ;	BOREN = ON, BOR enabled
  7482                           ;	Internal External Switchover bit
  7483                           ;	IESO = OFF, Internal/External Switchover mode is disabled
  7484                           ;	Fail-Safe Clock Monitor Enabled bit
  7485                           ;	FCMEN = OFF, Fail-Safe Clock Monitor is disabled
  7486                           ;	Low Voltage Programming Enable bit
  7487                           ;	LVP = OFF, RB3 pin has digital I/O, HV on MCLR must be used for programming
  7488                           ;	In-Circuit Debugger Mode bit
  7489                           ;	DEBUG = 0x1, unprogrammed default
  7490  2007                     	org	8199
  7491  2007  23D7               	dw	9175
  7492                           
  7493                           ;Config register CONFIG2 @ 0x2008
  7494                           ;	Brown-out Reset Selection bit
  7495                           ;	BOR4V = BOR40V, Brown-out Reset set to 4.0V
  7496                           ;	Flash Program Memory Self Write Enable bits
  7497                           ;	WRT = OFF, Write protection off
  7498  2008                     	org	8200
  7499  2008  3FFF               	dw	16383

Data Sizes:
    Strings     54
    Constant    10
    Data        0
    BSS         110
    Persistent  0
    Stack       0

Auto Spaces:
    Space          Size  Autos    Used
    COMMON           14     14      14
    BANK0            80     62      70
    BANK1            80     29      71
    BANK3            96      0      60
    BANK2            96      0       0

Pointer List with Targets:

    sprintf@f	PTR const unsigned char  size(1) Largest target is 23
		 -> STR_5(CODE[23]), STR_4(CODE[9]), STR_3(CODE[9]), STR_2(CODE[4]), 

    sprintf@sp	PTR unsigned char  size(2) Largest target is 20
		 -> buffer2(BANK3[20]), buffer(BANK1[20]), datos2(BANK3[20]), datos(BANK3[20]), 

    sprintf@ap	PTR void [1] size(1) Largest target is 2
		 -> ?_sprintf(BANK0[2]), 

    LCDStr@str	PTR const unsigned char  size(2) Largest target is 20
		 -> buffer2(BANK3[20]), buffer(BANK1[20]), datos2(BANK3[20]), STR_1(CODE[18]), 


Critical Paths under _main in COMMON

    None.

Critical Paths under _intac in COMMON

    _intac->___xxtofl

Critical Paths under _main in BANK0

    _main->___fltol
    _sprintf->___lwmod
    ___lwmod->___lwdiv
    ___fltol->___fldiv
    ___flmul->__Umul8_16
    ___fldiv->___flmul
    _LCD_Initialize->_LCDCmd
    _LCDStr->_LCDChar
    _LCDChar->_LCDWrite
    _LCDGoto->_LCDCmd
    _LCDCmd->_LCDWrite
    _CONUSART->___aldiv

Critical Paths under _intac in BANK0

    None.

Critical Paths under _main in BANK1

    _main->___fltol
    ___fltol->___fldiv

Critical Paths under _intac in BANK1

    None.

Critical Paths under _main in BANK3

    None.

Critical Paths under _intac in BANK3

    None.

Critical Paths under _main in BANK2

    None.

Critical Paths under _intac in BANK2

    None.

Call Graph Tables:

 ---------------------------------------------------------------------------------
 (Depth) Function   	        Calls       Base Space   Used Autos Params    Refs
 ---------------------------------------------------------------------------------
 (0) _main                                                12    12      0   10541
                                             17 BANK1     12    12      0
                           _ADCL_con
                           _CONUSART
                            _LCDGoto
                             _LCDStr
                     _LCD_Initialize
                            ___awdiv
                            ___awmod
                            ___fldiv
                            ___flmul
                            ___fltol
                               _intr
                              _setup
                            _sprintf
 ---------------------------------------------------------------------------------
 (1) _sprintf                                             36    19     17    2127
                                             20 BANK0     28    11     17
                            ___lwdiv
                            ___lwmod
                             ___wmul
                            _isdigit
 ---------------------------------------------------------------------------------
 (2) _isdigit                                              2     2      0      68
                                              8 BANK0      2     2      0
 ---------------------------------------------------------------------------------
 (2) ___wmul                                               6     2      4     244
                                              8 BANK0      6     2      4
 ---------------------------------------------------------------------------------
 (2) ___lwmod                                              5     1      4     311
                                             15 BANK0      5     1      4
                            ___lwdiv (ARG)
 ---------------------------------------------------------------------------------
 (2) ___lwdiv                                              7     3      4     314
                                              8 BANK0      7     3      4
 ---------------------------------------------------------------------------------
 (1) _setup                                                0     0      0       0
 ---------------------------------------------------------------------------------
 (1) _intr                                                 0     0      0       0
 ---------------------------------------------------------------------------------
 (1) ___fltol                                             10     6      4     517
                                             56 BANK0      6     6      0
                                             13 BANK1      4     0      4
                            ___fldiv (ARG)
                            ___flmul (ARG)
 ---------------------------------------------------------------------------------
 (1) ___flmul                                             26    18      8    2569
                                             17 BANK0     26    18      8
                          __Umul8_16
 ---------------------------------------------------------------------------------
 (2) __Umul8_16                                            9     7      2     799
                                              8 BANK0      9     7      2
 ---------------------------------------------------------------------------------
 (1) ___fldiv                                             26    18      8    2043
                                             43 BANK0     13     5      8
                                              0 BANK1     13    13      0
                            ___flmul (ARG)
 ---------------------------------------------------------------------------------
 (1) ___awmod                                              6     2      4     600
                                              8 BANK0      6     2      4
 ---------------------------------------------------------------------------------
 (1) ___awdiv                                              8     4      4     604
                                              8 BANK0      8     4      4
 ---------------------------------------------------------------------------------
 (1) _LCD_Initialize                                       2     2      0     218
                                             13 BANK0      2     2      0
                             _LCDCmd
 ---------------------------------------------------------------------------------
 (1) _LCDStr                                               3     1      2     612
                                             13 BANK0      3     1      2
                            _LCDChar
 ---------------------------------------------------------------------------------
 (2) _LCDChar                                              3     3      0     218
                                             10 BANK0      3     3      0
                           _LCDWrite
 ---------------------------------------------------------------------------------
 (1) _LCDGoto                                              6     5      1     656
                                             13 BANK0      6     5      1
                             _LCDCmd
 ---------------------------------------------------------------------------------
 (2) _LCDCmd                                               3     3      0     218
                                             10 BANK0      3     3      0
                           _LCDWrite
 ---------------------------------------------------------------------------------
 (3) _LCDWrite                                             2     1      1     196
                                              8 BANK0      2     1      1
 ---------------------------------------------------------------------------------
 (1) _CONUSART                                            20    16      4     595
                                             23 BANK0     20    16      4
                            ___aldiv
 ---------------------------------------------------------------------------------
 (2) ___aldiv                                             15     7      8     452
                                              8 BANK0     15     7      8
 ---------------------------------------------------------------------------------
 (1) _ADCL_con                                             0     0      0       0
 ---------------------------------------------------------------------------------
 Estimated maximum stack depth 3
 ---------------------------------------------------------------------------------
 (Depth) Function   	        Calls       Base Space   Used Autos Params    Refs
 ---------------------------------------------------------------------------------
 (4) _intac                                                8     8      0     474
                                              0 BANK0      8     8      0
                           ___xxtofl
 ---------------------------------------------------------------------------------
 (5) ___xxtofl                                            14    10      4     474
                                              0 COMMON    14    10      4
 ---------------------------------------------------------------------------------
 Estimated maximum stack depth 5
 ---------------------------------------------------------------------------------

 Call Graph Graphs:

 _main (ROOT)
   _ADCL_con
   _CONUSART
     ___aldiv
   _LCDGoto
     _LCDCmd
       _LCDWrite
   _LCDStr
     _LCDChar
       _LCDWrite
   _LCD_Initialize
     _LCDCmd
       _LCDWrite
   ___awdiv
   ___awmod
   ___fldiv
     ___flmul (ARG)
       __Umul8_16
   ___flmul
     __Umul8_16
   ___fltol
     ___fldiv (ARG)
       ___flmul (ARG)
         __Umul8_16
     ___flmul (ARG)
       __Umul8_16
   _intr
   _setup
   _sprintf
     ___lwdiv
     ___lwmod
       ___lwdiv (ARG)
     ___wmul
     _isdigit

 _intac (ROOT)
   ___xxtofl

 Address spaces:
Name               Size   Autos  Total    Cost      Usage
BITCOMMON            E      0       0       0        0.0%
EEDATA             100      0       0       0        0.0%
NULL                 0      0       0       0        0.0%
CODE                 0      0       0       0        0.0%
COMMON               E      E       E       1      100.0%
BITSFR0              0      0       0       1        0.0%
SFR0                 0      0       0       1        0.0%
BITSFR1              0      0       0       2        0.0%
SFR1                 0      0       0       2        0.0%
STACK                0      0       0       2        0.0%
ABS                  0      0      D7       3        0.0%
BITBANK0            50      0       0       4        0.0%
BITSFR3              0      0       0       4        0.0%
SFR3                 0      0       0       4        0.0%
BANK0               50     3E      46       5       87.5%
BITSFR2              0      0       0       5        0.0%
SFR2                 0      0       0       5        0.0%
BITBANK1            50      0       0       6        0.0%
BANK1               50     1D      47       7       88.8%
BITBANK3            60      0       0       8        0.0%
BANK3               60      0      3C       9       62.5%
BITBANK2            60      0       0      10        0.0%
BANK2               60      0       0      11        0.0%
DATA                 0      0      D7      12        0.0%


Microchip Technology PIC Macro Assembler V2.20 build 20200408173844 
Symbol Table                                                                                   Mon Feb 15 18:14:08 2021

                      l9 172F             ___fldiv@aexp 00D6             ___fldiv@bexp 00D5  
                      _i 005E           _LCD_Initialize 0863                        pc 0002  
           ___fldiv@sign 00CE                       l22 0892                       l31 176A  
                     l25 173F                       l43 08C3                       l28 1782  
                     l37 17FF                       l54 171C                       l77 0862  
           ___awdiv@sign 002D                       fsr 0004      ___wmul@multiplicand 002A  
    __Umul8_16@word_mpld 002E                      l310 17A9                      l304 0D67  
                    l308 1791                      l501 0AFD                      l183 0A76  
                    l504 0B14                      l373 0777                      l461 0A09  
                    l293 0CB1                      l383 07FF                      l703 02FF  
                    l474 09A0                      l716 17C0                      l580 0945  
                    l709 0387                      l718 17D2                      l494 0B14  
                    l590 08FF                      l681 0FEB                      l673 0F57  
                    l657 0DE6                      l761 1753                      l659 0FFF  
                    l697 0393                      _fla 00B2                      fsr0 0004  
                    indf 0000             ___awmod@sign 002D             ___flmul@aexp 0043  
           ___flmul@bexp 0044             ___flmul@sign 003E             ___flmul@temp 0049  
           ___flmul@prod 0045          __end_of_LCDChar 1783          __end_of_LCDGoto 08C4  
           ___fltol@exp1 005D                     l2001 0CE1                     l2011 0D07  
                   l2003 0CED                     l2101 098C                     l2013 0D37  
                   l2005 0CF3                     l2021 0D61                     l2031 09A4  
                   l2103 0992                     l2015 0D40                     l2007 0CFC  
                   l2041 09B8                     l2033 09A8                     l2105 0997  
                   l2017 0D46                     l2009 0D02                     l2051 09CE  
                   l2043 09BC                     l2035 09AD                     l2107 099C  
                   l2019 0D4F                     l2061 09EE                     l2053 09D2  
                   l2045 09BE                     l2037 09AF                     l2029 09A1  
                   l2301 0045                     l2063 09F5                     l2055 09D6  
                   l2047 09C4                     l2039 09B3                     l2311 0061  
                   l2303 004A                     l2057 09E7                     l2049 09C7  
                   l2065 09FB                     l2081 0954                     l2073 0946  
                   l2401 0304                     l2321 0076                     l2313 0066  
                   l2305 004F                     l2067 0A00                     l2059 09ED  
                   l2091 096D                     l2083 0958                     l2075 0949  
                   l2403 0309                     l2411 033A                     l2331 0092  
                   l2323 007B                     l2315 006C                     l2307 0057  
                   l2069 0A05                     l2093 0971                     l2085 095D  
                   l2077 094D                     l2421 036D                     l2413 0347  
                   l2405 0317                     l2341 00BD                     l2333 0097  
                   l2325 0083                     l2317 0070                     l2309 0059  
                   l2095 0975                     l2087 0963                     l2079 0952  
                   l2431 038B                     l2423 0373                     l2415 0352  
                   l2407 031B                     l2351 015A                     l2343 00DA  
                   l2327 0085                     l2319 0071                     l1801 07E1  
                   l2097 097F                     l2089 0966                     l2425 037B  
                   l2417 0361                     l2409 0334                     l2361 01BD  
                   l2353 0163                     l2345 00F6                     l2337 00A0  
                   l2329 008D                     l1803 07E7                     l1731 173D  
                   l2099 0985                     l2427 037F                     l2419 036B  
                   l2371 025D                     l2363 01D6                     l2355 0173  
                   l2347 0122                     l2339 00B0                     l1811 0900  
                   l1805 07EC                     l1733 173E                     l1725 1733  
                   l1741 1778                     l1901 17EE                     l2701 0DCE  
                   l2429 0380                     l2381 02CB                     l2373 0283  
                   l2365 01F3                     l2357 0190                     l2349 013E  
                   l2293 0033                     l1821 0918                     l1813 0904  
                   l1807 07F7                     l1727 1734                     l1735 1757  
                   l1911 08AE                     l1903 0896                     l2711 0DFA  
                   l2703 0DD8                     l2391 02E3                     l2383 02CF  
                   l2375 02AB                     l2367 0220                     l2359 01A0  
                   l2295 003A                     l2631 0A77                     l1831 093B  
                   l1823 091C                     l1815 090A                     l1751 1752  
                   l1743 1743                     l1729 173C                     l1737 1761  
                   l1913 08B3                     l1905 089C                     l2801 0FD7  
                   l2713 0E02                     l2705 0DDA                     l2393 02E4  
                   l2385 02D0                     l2377 02B4                     l2369 0230  
                   l2297 0040                     l2641 0AB9                     l2633 0A86  
                   l1921 0854                     l1825 092D                     l1817 090D  
                   l1833 0941                     l1841 08CF                     l1761 1798  
                   l1745 1744                     l1771 0766                     l1931 0A15  
                   l1915 08B9                     l1907 08A3                     l1739 176E  
                   l2803 0FDD                     l2731 0E67                     l2723 0E1D  
                   l2707 0DDC                     l2395 02E8                     l2387 02D9  
                   l2379 02C2                     l2299 0044                     l2643 0AC1  
                   l1923 0855                     l1827 0933                     l1819 0914  
                   l1851 08EE                     l1843 08D6                     l1763 179F  
                   l1755 1783                     l1747 174A                     l1781 0792  
                   l1773 076A                     l1933 0A72                     l1909 08A8  
                   l2805 0FE1                     l2741 0E8F                     l2733 0E69  
                   l2725 0E3B                     l2709 0DEE                     l2717 0E0B  
                   l1861 17AF                     l2397 02FC                     l2389 02DF  
                   l2653 0AD1                     l2645 0AC5                     l2637 0A91  
                   l1917 1716                     l1829 0934                     l1853 08F5  
                   l1845 08DA                     l1837 08C4                     l1765 17A5  
                   l1757 1787                     l1749 1750                     l1941 0BE5  
                   l2821 03A9                     l2813 0394                     l1791 07AE  
                   l1783 079A                     l1775 077B                     l1927 0A0A  
                   l2807 0FE5                     l2735 0E6E                     l2743 0E9D  
                   l2751 0EEB                     l2727 0E53                     l2719 0E12  
                   l2671 0D71                     l1863 17B6                     l2663 0AEE  
                   l2655 0ADC                     l2647 0AC9                     l2639 0AB6  
                   l1919 0850                     l1847 08DE                     l1839 08CC  
                   l1855 08FB                     l1759 178B                     l1951 0C18  
                   l1943 0BEC                     l1935 0BCF                     l2831 03CC  
                   l2823 03AE                     l2815 0399                     l1873 1725  
                   l1793 07B7                     l1785 079D                     l1777 0786  
                   l1769 0763                     l1929 0A0E                     l1881 0863  
                   l2761 0F0A                     l2753 0EF1                     l2745 0EBE  
                   l2737 0E86                     l2729 0E5D                     l2681 0D90  
                   l2673 0D7B                     l1865 17BA                     l2665 0B02  
                   l2657 0AE7                     l1849 08E8                     l1961 0C5E  
                   l1953 0C2B                     l1945 0BEF                     l1937 0BD6  
                   l2841 0406                     l2833 03D7                     l2825 03B3  
                   l2817 039D                     l1875 1728                     l1795 07C9  
                   l1787 07A6                     l1779 078A                     l1891 0886  
                   l1883 0869                     l2771 0F2C                     l2763 0F0D  
                   l2755 0EF9                     l2747 0EBF                     l2739 0E8C  
                   l2691 0DAF                     l2683 0D9A                     l2675 0D81  
                   l1867 17C9                     l1859 17AD                     l2667 0B07  
                   l1971 0C77                     l1963 0C66                     l1955 0C2F  
                   l1947 0BFF                     l1939 0BDC                     l2851 0487  
                   l2843 0411                     l2835 03DF                     l2827 03B6  
                   l2819 03A2                     l1877 172C                     l1797 07D7  
                   l1789 07AA                     l1893 088C                     l1885 0874  
                   l2781 0F63                     l2773 0F30                     l2765 0F1B  
                   l2757 0EFB                     l2749 0EE7                     l2693 0DB9  
                   l2685 0D9C                     l2677 0D84                     l2669 0D68  
                   l1869 17CE                     l1981 0C95                     l1965 0C6A  
                   l2917 0C53                     l1949 0C03                     l2861 04B5  
                   l2845 0418                     l2837 03E1                     l2829 03C3  
                   l1799 07D8                     l1895 17D3                     l1887 087A  
                   l2791 0FA7                     l2783 0F73                     l2775 0F52  
                   l2759 0F04                     l2767 0F23                     l2695 0DBF  
                   l2679 0D8B                     l2687 0D9E                     l1991 0CBC  
                   l1983 0C99                     l1967 0C6E                     l1959 0C3F  
                   l2863 04BB                     l2871 051A                     l2839 03FC  
                   l2847 041B                     l1897 17D7                     l1889 0880  
                   l2793 0FB7                     l2785 0F77                     l2769 0F29  
                   l2697 0DC2                     l2689 0DA8                     l1993 0CC8  
                   l1985 0C9F                     l1977 0C79                     l1969 0C72  
                   l2881 0583                     l2873 0520                     l2865 04C8  
                   l2857 0489                     l2849 0422                     l1899 17E8  
                   l2795 0FC6                     l2787 0F90                     l2779 0F5C  
                   l2699 0DC9                     l1995 0CCC                     l1987 0CA5  
                   l2891 05E4                     l2883 05A4                     l2875 057F  
                   l2867 04D2                     l2859 04A2                     l2797 0FCA  
                   l2789 0F98                     l1997 0CD2                     l1989 0CAB  
                   l2893 0620                     l2885 05C5                     l2869 050E  
                   l2799 0FD4                     l1999 0CDB                     l2887 05CD  
                   l2895 062B                     l2889 05DA                     STR_1 0831  
                   STR_2 084C                     STR_3 0843                     STR_4 0843  
                   STR_5 081A                     u2000 08CC                     u2001 08CB  
                   u2100 089C                     u2020 08DE                     u2101 089B  
                   u2021 08DD                     u2110 08A2                     u2030 08E8  
                   u2111 08A1                     u2031 08E7                     u2015 08D0  
                   u2120 08A8                     u2200 0C94                     u2121 08A7  
                   u2201 0C93                     u2130 0A23                     u2050 08FB  
                   u2210 0C9F                     u3011 0182                     u2051 08FA  
                   u2035 08E4                     u2211 0C9E                     u2140 0A3C  
                   u2300 09A8                     u2060 17BA                     u3012 0189  
                   u2220 0CA5                     u2301 09A7                     u2061 17B9  
                   u3101 029D                     u3021 01AF                     u3013 0190  
                   u3005 015C                     u2045 08EF                     u2221 0CA4  
                   u2205 0C90                     u2310 09B3                     u3102 02A4  
                   u3022 01B6                     u2230 0CAB                     u2151 0A4E  
                   u2135 0A1E                     u2311 09B2                     u3103 02AB  
                   u3023 01BD                     u2231 0CAA                     u2152 0A4F  
                   u2320 09C4                     u2400 094D                     u2080 17CE  
                   u3200 031B                     u2240 0CBC                     u2160 0BDC  
                   u2153 0A54                     u2145 0A37                     u2321 09C3  
                   u2401 094C                     u2081 17CD                     u3201 031A  
                   u3041 01E5                     u2241 0CBB                     u2161 0BDB  
                   u2154 0A55                     u2090 17FF                     u2410 0958  
                   u3210 032A                     u3130 02CF                     u3042 01EC  
                   u2250 0CD2                     u2170 0BFF                     u2155 0A5A  
                   u2091 17FE                     u2411 0957                     u2075 17C1  
                   u3131 02CE                     u3115 02AD                     u3051 0212  
                   u3043 01F3                     u3035 01BF                     u2251 0CD1  
                   u2171 0BFE                     u2156 0A5B                     u2340 09D6  
                   u2420 0963                     u3220 0347                     u3052 0219  
                   u2260 0CED                     u2180 0C3F                     u2341 09D5  
                   u2421 0962                     u3221 0346                     u3125 02C4  
                   u3061 023F                     u3053 0220                     u2261 0CEC  
                   u2245 0CB8                     u2181 0C3E                     u3230 0361  
                   u3150 02E3                     u3070 0269                     u3062 0246  
                   u2270 0CF3                     u2190 0C6E                     u4007 086F  
                   u2335 09C8                     u3231 0360                     u3215 0325  
                   u3151 02E2                     u3063 024D                     u2271 0CF2  
                   u2191 0C6D                     u2360 09E7                     u2440 0975  
                   u3240 037F                     u3160 02E8                     u2280 0D4F  
                   u4017 1774                     u2361 09E6                     u2441 0974  
                   u3241 037E                     u3225 0343                     u3161 02E7  
                   u3145 02D2                     u3081 0275                     u2281 0D4E  
                   u2450 097F                     u3170 02FC                     u3090 0291  
                   u3082 027C                     u2290 0D61                     u4027 08BF  
                   u2355 09D7                     u2451 097E                     u2435 0967  
                   u3235 035D                     u3171 02FB                     u3083 0283  
                   u3075 0264                     u2291 0D60                     u2380 09FB  
                   u3180 0303                     u1820 17A5                     u4037 175D  
                   u2381 09FA                     u2365 09E3                     u3181 0302  
                   u1821 17A4                     u1805 1792                     u1910 07E7  
                   u1830 076A                     u2390 0A00                     u2470 0992  
                   u3190 0309                     u1911 07E6                     u1831 0769  
                   u2391 09FF                     u2375 09EF                     u2471 0991  
                   u2455 097B                     u3191 0308                     u3095 028C  
                   u1815 1799                     u1920 07EC                     u1840 077B  
                   u2480 0997                     u1921 07EB                     u1905 07D9  
                   u1841 077A                     u2481 0996                     u2465 0986  
                   u1850 079A                     u3610 0B02                     u3530 0A86  
                   u1930 090A                     u1770 174A                     u1851 0799  
                   u3611 0B01                     u3531 0A85                     u1931 0909  
                   u1771 1749                     u3700 0E12                     u2900 004F  
                   u3620 0B07                     u3540 0AAF                     u1780 1750  
                   u3701 0E11                     u2901 004E                     u3621 0B06  
                   u3605 0AF0                     u1781 174F                     u1870 07AE  
                   u3710 0E6E                     u3630 0D81                     u2910 0070  
                   u3550 0AC9                     u1950 091C                     u1790 178B  
                   u1871 07AD                     u3711 0E6D                     u3631 0D80  
                   u2911 006F                     u3551 0AC8                     u1951 091B  
                   u1791 178A                     u3640 0D8B                     u2920 0076  
                   u3560 0AD0                     u1865 079F                     u3641 0D8A  
                   u2921 0075                     u3561 0ACF                     u3545 0AAA  
                   u1945 090E                     u1890 07C9                     u3810 0F0A  
                   u3650 0D90                     u2930 007B                     u1970 092D  
                   u1891 07C8                     u3811 0F09                     u3651 0D8F  
                   u2931 007A                     u1971 092C                     u3900 0FA7  
                   u3740 0E8C                     u3660 0DBF                     u2940 0092  
                   u3580 0AE6                     u1885 07B0                     u3901 0FA6  
                   u3805 0EFD                     u3741 0E8B                     u3725 0E72  
                   u3661 0DBE                     u2941 0091                     u3581 0AE5  
                   u1965 091D                     u3910 0FC6                     u3830 0F29  
                   u3670 0DC9                     u2950 0097                     u3590 0AED  
                   u1990 0941                     u1895 07C5                     u3911 0FC5  
                   u3831 0F28                     u3735 0E7F                     u3671 0DC8  
                   u2951 0096                     u3591 0AEC                     u3575 0AD2  
                   u1991 0940                     u1975 0929                     u3920 0FE1  
                   u3840 0F30                     u3760 0EBE                     u3680 0DCE  
                   u2880 0044                     u3921 0FE0                     u3905 0FA3  
                   u3841 0F2F                     u3825 0F10                     u3761 0EBD  
                   u3681 0DCD                     u2961 00E8                     u2881 0043  
                   u1985 0935                     u3850 0F52                     u3770 0EE3  
                   u3690 0DEE                     u2962 00EF                     u2890 004A  
                   u3930 03DF                     u3915 0FC2                     u3851 0F51  
                   u3755 0E92                     u3691 0DED                     u2971 0104  
                   u2963 00F6                     u2891 0049                     u3931 03DE  
                   u3860 0F5B                     u3780 0EF1                     u2972 010B  
                   u3940 0422                     u3861 0F5A                     u3781 0EF0  
                   u3765 0EBA                     u2981 0130                     u2973 0112  
                   u3941 0421                     u3870 0F63                     u3790 0EF9  
                   u2982 0137                     u3950 04C8                     u3871 0F62  
                   u3791 0EF8                     u3775 0ECC                     u2991 014C  
                   u2983 013E                     u3951 04C7                     u3880 0F77  
                   u3776 0ECF                     u2992 0153                     u3960 0520  
                   u3881 0F76                     u3777 0ED6                     u2993 015A  
                   u3961 051F                     u3890 0F86                     u3778 0ED9  
                   u3970 05DA                     u3779 0EE0                     u3971 05D9  
                   u3955 04C4                     u3895 0F81                     u3975 05D6  
                   u3987 03A6                     u3997 0415                     _cons 0062  
                   _main 0394                     _leer 0064                     _var1 0065  
       __end_of_ADCL_con 1730                     _intr 1716                     btemp 007E  
                   start 0012          ___fldiv@new_exp 00CF   __end_of_LCD_Initialize 0893  
       __end_of_CONUSART 0A77         __end_of_LCDWrite 1740            ___fltol@sign1 005C  
        __end_of___aldiv 0800                    ?_main 0070          __end_of___fldiv 1000  
                  ?_intr 0070          __end_of___awdiv 0A0A          __end_of___awmod 09A1  
        __end_of___flmul 0394          __end_of___fltol 0B15                    _ANSEL 0188  
        ___awdiv@divisor 0028          __end_of___lwdiv 0946                    i1l156 0757  
        __end_of___lwmod 0900                    i1l741 0B37                    i1l743 0BCE  
                  i1l754 0B98                    i1l755 0BA4          ___awdiv@counter 002C  
                  _RCREG 001A                    _RCSTA 0018                    _SPBRG 0099  
                  _PORTA 0005                    _PORTB 0006                    _PORTD 0008  
                  _PORTE 0009                    _TRISA 0085                    _TRISB 0086  
                  _TRISD 0088                    _TRISE 0089                    _TXREG 0019  
                  _TXSTA 0098                    _datos 01A4          __end_of_dpowers 081A  
                  _incre 00B0                    _intac 06A4          __end_of_isdigit 1754  
                  _setup 0850                    pclath 000A                    status 0003  
                  wtemp0 007E          __end_of_sprintf 0D68             _voltage_int1 0060  
           _voltage_int2 00B4          ?_LCD_Initialize 0070          __initialization 0015  
           __end_of_main 06A4             __end_of_intr 171D                   ??_main 00DB  
                 ??_intr 0028                ??_LCDChar 002A                ??_LCDGoto 002E  
                 _ADCON0 001F                   _ADCON1 009F                   ?_intac 0070  
                 _ADRESH 001E         ___awdiv@dividend 002A                   ?_setup 0070  
                 _ANSELH 0189                   _LCDCmd 1754                   i1l2501 0706  
                 i1l2511 0728                   i1l2503 0708                   i1l2441 0B2F  
                 i1l2521 0740                   i1l2513 072B                   i1l2505 0711  
                 i1l2451 0B51                   i1l2443 0B3F                   i1l2435 0B16  
                 i1l2523 0749                   i1l2507 0715                   i1l2515 0731  
                 i1l2461 0B7C                   i1l2453 0B5A                   i1l2437 0B1B  
                 i1l2525 074F                   i1l2517 0736                   i1l2509 071F  
                 i1l2471 0BA6                   i1l2463 0B83                   i1l2455 0B61  
                 i1l2447 0B48                   i1l2439 0B1F                   i1l2519 073A  
                 i1l2473 0BBC                   i1l2465 0B8E                   i1l2457 0B65  
                 i1l2449 0B4D                   i1l2475 0BC1                   i1l2467 0B92  
                 i1l2459 0B73                   i1l2491 06D4                   i1l2483 06A4  
                 i1l2477 0BC5                   i1l2469 0B9C                   i1l2493 06DA  
                 i1l2485 06A8                   i1l2479 0BC6                   i1l2495 06F7  
                 i1l2487 06AE                   i1l2497 06FE                   i1l2489 06B6  
                 i1l2499 06FF                   _LCDStr 17D3                   u330_25 0B74  
                 u331_20 0B82                   u331_21 0B81                   u340_20 06B6  
                 u340_21 06B5                   u332_25 0B87                   u333_20 0B92  
                 u325_20 0B1B                   u341_20 06DA                   u333_21 0B91  
                 u325_21 0B1A                   u341_21 06D9                   u334_20 0B98  
                 u326_20 0B1F                   u342_20 0706                   u334_21 0B97  
                 u326_21 0B1E                   u342_21 0705                   u335_20 0B9C  
                 u327_20 0B3F                   u343_20 0715                   u335_21 0B9B  
                 u327_21 0B3E                   u343_21 0714                   u336_20 0BB1  
                 u344_20 0728                   u344_21 0727                   u336_25 0BAC  
                 u328_25 0B52                   u337_20 0BC1                   u329_20 0B60  
                 u345_20 0736                   u337_21 0BC0                   u329_21 0B5F  
                 u345_21 0735                   u338_20 0BC5                   u346_20 0740  
                 u338_21 0BC4                   u346_21 073F                   u347_20 074F  
                 u339_20 06A8                   u347_21 074E                   u339_21 06A7  
       __end_of___xxtofl 0BCF                ??___aldiv 0030                   ___wmul 1783  
              ??___fldiv 0053                ??___awdiv 002C                ??___awmod 002C  
              ??___flmul 0039                ??___fltol 0058                   _datos2 0190  
              ??___lwdiv 002C                ??___lwmod 0033                   _buffer 00B6  
                 _incre2 00AE         ___awdiv@quotient 002E          ___awmod@divisor 0028  
        ___awmod@counter 002C                ?_ADCL_con 0070                ??_isdigit 0028  
     __size_of__Umul8_16 0029                   saved_w 007E                CONUSART@p 0047  
              ??_sprintf 0045                ?_CONUSART 0037             ___xxtofl@arg 007A  
              LCDChar@ch 002C             ___xxtofl@exp 0079             ___xxtofl@val 0070  
__end_of__initialization 002F                ?_LCDWrite 0028               ___fltol@f1 00D7  
              LCDGoto@ln 002D           __pcstackCOMMON 0070                LCDStr@str 002D  
          __end_of_intac 0763            __end_of_setup 0863               ??_ADCL_con 0028  
                ??_intac 0020             sprintf@width 004D                  ??_setup 0028  
             ??_CONUSART 003B                  ?_LCDCmd 0070               __pbssBANK0 005E  
             __pbssBANK1 00A0               __pbssBANK3 0190                  ?_LCDStr 002D  
                LCDStr@i 002F               ??_LCDWrite 0029        __end_of__Umul8_16 17D3  
             __pmaintext 0394                  ?___wmul 0028               __pintentry 0004  
                _LCDChar 176B                  _LCDGoto 0893                ?___xxtofl 0070  
             __stringtab 0800          __size_of_LCDCmd 0017          __size_of_LCDStr 002D  
       ??_LCD_Initialize 002D                  ___aldiv 0763                  ___fldiv 0D68  
                ___awdiv 09A1                  ___awmod 0946                  ___flmul 0033  
                ___fltol 0A77          __size_of___wmul 0027                  ___lwdiv 0900  
                ___lwmod 08C4                  _digitos 00AB                  __ptext1 0BCF  
                __ptext2 1740                  __ptext3 1783                  __ptext4 08C4  
                __ptext5 0900                  __ptext6 0850                  __ptext7 1716  
                __ptext8 0A77                  __ptext9 0033                  _buffer2 01B8  
                _dpowers 0810                  _isdigit 1740               ??___xxtofl 0074  
       ___awmod@dividend 002A         ___aldiv@dividend 002C                  _sprintf 0BCF  
                clrloop0 171E     end_of_initialization 002F         ___aldiv@quotient 0033  
              _PORTEbits 0009            ___xxtofl@sign 0078        __size_of_ADCL_con 000B  
            ___fldiv@grs 00D1              ___fldiv@rem 00CA              ___flmul@grs 003F  
         __end_of_LCDCmd 176B           __end_of_LCDStr 1800        __size_of_CONUSART 006D  
             LCDGoto@pos 0032        __size_of_LCDWrite 0010           __end_of___wmul 17AA  
            _BAUDCTLbits 0187               LCDWrite@ch 0029               LCDWrite@rs 0028  
    start_initialization 0015                 ??_LCDCmd 002A                 ??_LCDStr 002F  
               ??___wmul 002C                __Umul8_16 17AA                 LCDCmd@ch 002C  
               ?_LCDChar 0070                 ?_LCDGoto 002D                ___fldiv@a 004B  
              ___fldiv@b 004F                ___flmul@a 0035                ___flmul@b 0031  
              ___latbits 0002            __pcstackBANK0 0020            __pcstackBANK1 00CA  
       CONUSART@baudrate 0037        __size_of___xxtofl 00BA              sprintf@flag 004A  
            sprintf@prec 0049         ___lwdiv@dividend 002A                 ?___aldiv 0028  
               ?___fldiv 004B                 ?___awdiv 0028                 ?___awmod 0028  
               ?___flmul 0031                 ?___fltol 00D7               ?__Umul8_16 0028  
               ?___lwdiv 0028                 ?___lwmod 002F                __pstrings 0800  
               _ADCL_con 1725                 ?_isdigit 0070         ___lwdiv@quotient 002C  
               ?_sprintf 0034           __size_of_intac 00BF           __size_of_setup 0013  
               _CONUSART 0A0A          ___aldiv@divisor 0028        interrupt_function 0004  
        ___aldiv@counter 0031           ___wmul@product 002C                 _LCDWrite 1730  
              clear_ram0 171D                 _PIE1bits 008C                 _PIR1bits 000C  
             _ADCON0bits 001F              __stringbase 080F        ___wmul@multiplier 0028  
       __size_of_LCDChar 0018         __size_of_LCDGoto 0031              ??__Umul8_16 002A  
__size_of_LCD_Initialize 0030         __size_of___aldiv 009D         __size_of___fldiv 0298  
       __size_of___awdiv 0069         __size_of___awmod 005B         __size_of___flmul 0361  
       __size_of___fltol 009E         __size_of___lwdiv 0046         __size_of___lwmod 003C  
     __end_of__stringtab 0810              _isdigit$787 0028               sprintf@val 004B  
               ___xxtofl 0B15         __size_of_isdigit 0014          ___lwdiv@divisor 0028  
        ___lwdiv@counter 002E                 _digitos2 00A8                 __ptext10 17AA  
               __ptext11 0D68                 __ptext20 0A0A                 __ptext12 0946  
               __ptext21 0763                 __ptext13 09A1                 __ptext22 1725  
               __ptext14 0863                 __ptext23 06A4                 __ptext15 17D3  
               __ptext24 0B15                 __ptext16 176B                 __ptext17 0893  
               __ptext18 1754                 __ptext19 1730         __size_of_sprintf 0199  
          __size_of_main 0310            __size_of_intr 0007               _LCDGoto$97 0030  
               _voltage1 00A4                 _voltage2 00A0               _INTCONbits 000B  
               isdigit@c 0029                 intlevel1 0000                sprintf@ap 0048  
              sprintf@sp 0034         ___lwmod@dividend 0031                stringcode 080A  
 __Umul8_16@multiplicand 0028                 sprintf@c 004F                 sprintf@f 0036  
        ___lwmod@divisor 002F          ___lwmod@counter 0033                 stringdir 080A  
               stringtab 0800             ___aldiv@sign 0032     __Umul8_16@multiplier 0030  
      __Umul8_16@product 002C  
