

Microchip MPLAB XC8 Assembler V2.20 build 20200408173844 
                                                                                               Wed Feb 24 22:56:16 2021

Microchip MPLAB XC8 C Compiler v2.20 (Free license) build 20200408173844 Og1 
     1                           	processor	16F887
     2                           	pagewidth 120
     3                           	opt	flic
     4                           	psect	idataBANK1,global,class=CODE,delta=2,noexec
     5                           	psect	strings,global,class=STRING,delta=2,noexec
     6                           	psect	cinit,global,class=CODE,merge=1,delta=2
     7                           	psect	bssCOMMON,global,class=COMMON,space=1,delta=1,noexec
     8                           	psect	bssBANK0,global,class=BANK0,space=1,delta=1,noexec
     9                           	psect	bssBANK1,global,class=BANK1,space=1,delta=1,noexec
    10                           	psect	dataBANK1,global,class=BANK1,space=1,delta=1,noexec
    11                           	psect	inittext,global,class=CODE,delta=2
    12                           	psect	clrtext,global,class=CODE,delta=2
    13                           	psect	cstackBANK1,global,class=BANK1,space=1,delta=1,noexec
    14                           	psect	cstackCOMMON,global,class=COMMON,space=1,delta=1,noexec
    15                           	psect	cstackBANK0,global,class=BANK0,space=1,delta=1,noexec
    16                           	psect	maintext,global,class=CODE,split=1,delta=2
    17                           	psect	text1,local,class=CODE,merge=1,delta=2,group=1
    18                           	psect	text2,local,class=CODE,merge=1,delta=2,group=3
    19                           	psect	text3,local,class=CODE,merge=1,delta=2,group=2
    20                           	psect	text4,local,class=CODE,merge=1,delta=2,group=2
    21                           	psect	text5,local,class=CODE,merge=1,delta=2,group=2
    22                           	psect	text6,local,class=CODE,merge=1,delta=2
    23                           	psect	text7,local,class=CODE,merge=1,delta=2
    24                           	psect	text8,local,class=CODE,merge=1,delta=2
    25                           	psect	text9,local,class=CODE,merge=1,delta=2,group=2
    26                           	psect	text10,local,class=CODE,merge=1,delta=2,group=2
    27                           	psect	text11,local,class=CODE,merge=1,delta=2,group=2
    28                           	psect	text12,local,class=CODE,merge=1,delta=2,group=2
    29                           	psect	text13,local,class=CODE,merge=1,delta=2,group=2
    30                           	psect	text14,local,class=CODE,merge=1,delta=2
    31                           	psect	text15,local,class=CODE,merge=1,delta=2
    32                           	psect	text16,local,class=CODE,merge=1,delta=2
    33                           	psect	text17,local,class=CODE,merge=1,delta=2
    34                           	psect	text18,local,class=CODE,merge=1,delta=2
    35                           	psect	text19,local,class=CODE,merge=1,delta=2
    36                           	psect	text20,local,class=CODE,merge=1,delta=2
    37                           	psect	text21,local,class=CODE,merge=1,delta=2,group=2
    38                           	psect	text22,local,class=CODE,merge=1,delta=2
    39                           	psect	intentry,global,class=CODE,delta=2
    40                           	psect	config,global,abs,ovrld,class=CONFIG,space=4,delta=2,noexec
    41                           	dabs	1,0x7E,2
    42  0000                     
    43                           ; Version 2.20
    44                           ; Generated 12/02/2020 GMT
    45                           ; 
    46                           ; Copyright © 2020, Microchip Technology Inc. and its subsidiaries ("Microchip")
    47                           ; All rights reserved.
    48                           ; 
    49                           ; This software is developed by Microchip Technology Inc. and its subsidiaries ("Microch
      +                          ip").
    50                           ; 
    51                           ; Redistribution and use in source and binary forms, with or without modification, are
    52                           ; permitted provided that the following conditions are met:
    53                           ; 
    54                           ;     1. Redistributions of source code must retain the above copyright notice, this lis
      +                          t of
    55                           ;        conditions and the following disclaimer.
    56                           ; 
    57                           ;     2. Redistributions in binary form must reproduce the above copyright notice, this 
      +                          list
    58                           ;        of conditions and the following disclaimer in the documentation and/or other
    59                           ;        materials provided with the distribution.
    60                           ; 
    61                           ;     3. Microchip's name may not be used to endorse or promote products derived from th
      +                          is
    62                           ;        software without specific prior written permission.
    63                           ; 
    64                           ; THIS SOFTWARE IS PROVIDED BY MICROCHIP "AS IS" AND ANY EXPRESS OR IMPLIED WARRANTIES,
    65                           ; INCLUDING, BUT NOT LIMITED TO, THE IMPLIED WARRANTIES OF MERCHANTABILITY AND FITNESS F
      +                          OR
    66                           ; PURPOSE ARE DISCLAIMED.  IN NO EVENT SHALL MICROCHIP BE LIABLE FOR ANY DIRECT, INDIREC
      +                          T,
    67                           ; INCIDENTAL, SPECIAL, EXEMPLARY, OR CONSEQUENTIAL DAMAGES (INCLUDING BUT NOT LIMITED TO
    68                           ; PROCUREMENT OF SUBSTITUTE GOODS OR SERVICES; LOSS OF USE, DATA OR PROFITS; OR BUSINESS
    69                           ; INTERRUPTION) HOWSOEVER CAUSED AND ON ANY THEORY OF LIABILITY, WHETHER IN CONTRACT, ST
      +                          RICT
    70                           ; LIABILITY, OR TORT (INCLUDING NEGLIGENCE OR OTHERWISE) ARISING IN ANY WAY OUT OF THE U
      +                          SE OF
    71                           ; THIS SOFTWARE, EVEN IF ADVISED OF THE POSSIBILITY OF SUCH DAMAGE.
    72                           ; 
    73                           ; 
    74                           ; Code-generator required, PIC16F887 Definitions
    75                           ; 
    76                           ; SFR Addresses
    77  0000                     	;# 
    78  0001                     	;# 
    79  0002                     	;# 
    80  0003                     	;# 
    81  0004                     	;# 
    82  0005                     	;# 
    83  0006                     	;# 
    84  0007                     	;# 
    85  0008                     	;# 
    86  0009                     	;# 
    87  000A                     	;# 
    88  000B                     	;# 
    89  000C                     	;# 
    90  000D                     	;# 
    91  000E                     	;# 
    92  000E                     	;# 
    93  000F                     	;# 
    94  0010                     	;# 
    95  0011                     	;# 
    96  0012                     	;# 
    97  0013                     	;# 
    98  0014                     	;# 
    99  0015                     	;# 
   100  0015                     	;# 
   101  0016                     	;# 
   102  0017                     	;# 
   103  0018                     	;# 
   104  0019                     	;# 
   105  001A                     	;# 
   106  001B                     	;# 
   107  001B                     	;# 
   108  001C                     	;# 
   109  001D                     	;# 
   110  001E                     	;# 
   111  001F                     	;# 
   112  0081                     	;# 
   113  0085                     	;# 
   114  0086                     	;# 
   115  0087                     	;# 
   116  0088                     	;# 
   117  0089                     	;# 
   118  008C                     	;# 
   119  008D                     	;# 
   120  008E                     	;# 
   121  008F                     	;# 
   122  0090                     	;# 
   123  0091                     	;# 
   124  0092                     	;# 
   125  0093                     	;# 
   126  0093                     	;# 
   127  0093                     	;# 
   128  0094                     	;# 
   129  0095                     	;# 
   130  0096                     	;# 
   131  0097                     	;# 
   132  0098                     	;# 
   133  0099                     	;# 
   134  009A                     	;# 
   135  009B                     	;# 
   136  009C                     	;# 
   137  009D                     	;# 
   138  009E                     	;# 
   139  009F                     	;# 
   140  0105                     	;# 
   141  0107                     	;# 
   142  0108                     	;# 
   143  0109                     	;# 
   144  010C                     	;# 
   145  010C                     	;# 
   146  010D                     	;# 
   147  010E                     	;# 
   148  010F                     	;# 
   149  0185                     	;# 
   150  0187                     	;# 
   151  0188                     	;# 
   152  0189                     	;# 
   153  018C                     	;# 
   154  018D                     	;# 
   155  0000                     	;# 
   156  0001                     	;# 
   157  0002                     	;# 
   158  0003                     	;# 
   159  0004                     	;# 
   160  0005                     	;# 
   161  0006                     	;# 
   162  0007                     	;# 
   163  0008                     	;# 
   164  0009                     	;# 
   165  000A                     	;# 
   166  000B                     	;# 
   167  000C                     	;# 
   168  000D                     	;# 
   169  000E                     	;# 
   170  000E                     	;# 
   171  000F                     	;# 
   172  0010                     	;# 
   173  0011                     	;# 
   174  0012                     	;# 
   175  0013                     	;# 
   176  0014                     	;# 
   177  0015                     	;# 
   178  0015                     	;# 
   179  0016                     	;# 
   180  0017                     	;# 
   181  0018                     	;# 
   182  0019                     	;# 
   183  001A                     	;# 
   184  001B                     	;# 
   185  001B                     	;# 
   186  001C                     	;# 
   187  001D                     	;# 
   188  001E                     	;# 
   189  001F                     	;# 
   190  0081                     	;# 
   191  0085                     	;# 
   192  0086                     	;# 
   193  0087                     	;# 
   194  0088                     	;# 
   195  0089                     	;# 
   196  008C                     	;# 
   197  008D                     	;# 
   198  008E                     	;# 
   199  008F                     	;# 
   200  0090                     	;# 
   201  0091                     	;# 
   202  0092                     	;# 
   203  0093                     	;# 
   204  0093                     	;# 
   205  0093                     	;# 
   206  0094                     	;# 
   207  0095                     	;# 
   208  0096                     	;# 
   209  0097                     	;# 
   210  0098                     	;# 
   211  0099                     	;# 
   212  009A                     	;# 
   213  009B                     	;# 
   214  009C                     	;# 
   215  009D                     	;# 
   216  009E                     	;# 
   217  009F                     	;# 
   218  0105                     	;# 
   219  0107                     	;# 
   220  0108                     	;# 
   221  0109                     	;# 
   222  010C                     	;# 
   223  010C                     	;# 
   224  010D                     	;# 
   225  010E                     	;# 
   226  010F                     	;# 
   227  0185                     	;# 
   228  0187                     	;# 
   229  0188                     	;# 
   230  0189                     	;# 
   231  018C                     	;# 
   232  018D                     	;# 
   233  0000                     	;# 
   234  0001                     	;# 
   235  0002                     	;# 
   236  0003                     	;# 
   237  0004                     	;# 
   238  0005                     	;# 
   239  0006                     	;# 
   240  0007                     	;# 
   241  0008                     	;# 
   242  0009                     	;# 
   243  000A                     	;# 
   244  000B                     	;# 
   245  000C                     	;# 
   246  000D                     	;# 
   247  000E                     	;# 
   248  000E                     	;# 
   249  000F                     	;# 
   250  0010                     	;# 
   251  0011                     	;# 
   252  0012                     	;# 
   253  0013                     	;# 
   254  0014                     	;# 
   255  0015                     	;# 
   256  0015                     	;# 
   257  0016                     	;# 
   258  0017                     	;# 
   259  0018                     	;# 
   260  0019                     	;# 
   261  001A                     	;# 
   262  001B                     	;# 
   263  001B                     	;# 
   264  001C                     	;# 
   265  001D                     	;# 
   266  001E                     	;# 
   267  001F                     	;# 
   268  0081                     	;# 
   269  0085                     	;# 
   270  0086                     	;# 
   271  0087                     	;# 
   272  0088                     	;# 
   273  0089                     	;# 
   274  008C                     	;# 
   275  008D                     	;# 
   276  008E                     	;# 
   277  008F                     	;# 
   278  0090                     	;# 
   279  0091                     	;# 
   280  0092                     	;# 
   281  0093                     	;# 
   282  0093                     	;# 
   283  0093                     	;# 
   284  0094                     	;# 
   285  0095                     	;# 
   286  0096                     	;# 
   287  0097                     	;# 
   288  0098                     	;# 
   289  0099                     	;# 
   290  009A                     	;# 
   291  009B                     	;# 
   292  009C                     	;# 
   293  009D                     	;# 
   294  009E                     	;# 
   295  009F                     	;# 
   296  0105                     	;# 
   297  0107                     	;# 
   298  0108                     	;# 
   299  0109                     	;# 
   300  010C                     	;# 
   301  010C                     	;# 
   302  010D                     	;# 
   303  010E                     	;# 
   304  010F                     	;# 
   305  0185                     	;# 
   306  0187                     	;# 
   307  0188                     	;# 
   308  0189                     	;# 
   309  018C                     	;# 
   310  018D                     	;# 
   311  0000                     	;# 
   312  0001                     	;# 
   313  0002                     	;# 
   314  0003                     	;# 
   315  0004                     	;# 
   316  0005                     	;# 
   317  0006                     	;# 
   318  0007                     	;# 
   319  0008                     	;# 
   320  0009                     	;# 
   321  000A                     	;# 
   322  000B                     	;# 
   323  000C                     	;# 
   324  000D                     	;# 
   325  000E                     	;# 
   326  000E                     	;# 
   327  000F                     	;# 
   328  0010                     	;# 
   329  0011                     	;# 
   330  0012                     	;# 
   331  0013                     	;# 
   332  0014                     	;# 
   333  0015                     	;# 
   334  0015                     	;# 
   335  0016                     	;# 
   336  0017                     	;# 
   337  0018                     	;# 
   338  0019                     	;# 
   339  001A                     	;# 
   340  001B                     	;# 
   341  001B                     	;# 
   342  001C                     	;# 
   343  001D                     	;# 
   344  001E                     	;# 
   345  001F                     	;# 
   346  0081                     	;# 
   347  0085                     	;# 
   348  0086                     	;# 
   349  0087                     	;# 
   350  0088                     	;# 
   351  0089                     	;# 
   352  008C                     	;# 
   353  008D                     	;# 
   354  008E                     	;# 
   355  008F                     	;# 
   356  0090                     	;# 
   357  0091                     	;# 
   358  0092                     	;# 
   359  0093                     	;# 
   360  0093                     	;# 
   361  0093                     	;# 
   362  0094                     	;# 
   363  0095                     	;# 
   364  0096                     	;# 
   365  0097                     	;# 
   366  0098                     	;# 
   367  0099                     	;# 
   368  009A                     	;# 
   369  009B                     	;# 
   370  009C                     	;# 
   371  009D                     	;# 
   372  009E                     	;# 
   373  009F                     	;# 
   374  0105                     	;# 
   375  0107                     	;# 
   376  0108                     	;# 
   377  0109                     	;# 
   378  010C                     	;# 
   379  010C                     	;# 
   380  010D                     	;# 
   381  010E                     	;# 
   382  010F                     	;# 
   383  0185                     	;# 
   384  0187                     	;# 
   385  0188                     	;# 
   386  0189                     	;# 
   387  018C                     	;# 
   388  018D                     	;# 
   389  0000                     	;# 
   390  0001                     	;# 
   391  0002                     	;# 
   392  0003                     	;# 
   393  0004                     	;# 
   394  0005                     	;# 
   395  0006                     	;# 
   396  0007                     	;# 
   397  0008                     	;# 
   398  0009                     	;# 
   399  000A                     	;# 
   400  000B                     	;# 
   401  000C                     	;# 
   402  000D                     	;# 
   403  000E                     	;# 
   404  000E                     	;# 
   405  000F                     	;# 
   406  0010                     	;# 
   407  0011                     	;# 
   408  0012                     	;# 
   409  0013                     	;# 
   410  0014                     	;# 
   411  0015                     	;# 
   412  0015                     	;# 
   413  0016                     	;# 
   414  0017                     	;# 
   415  0018                     	;# 
   416  0019                     	;# 
   417  001A                     	;# 
   418  001B                     	;# 
   419  001B                     	;# 
   420  001C                     	;# 
   421  001D                     	;# 
   422  001E                     	;# 
   423  001F                     	;# 
   424  0081                     	;# 
   425  0085                     	;# 
   426  0086                     	;# 
   427  0087                     	;# 
   428  0088                     	;# 
   429  0089                     	;# 
   430  008C                     	;# 
   431  008D                     	;# 
   432  008E                     	;# 
   433  008F                     	;# 
   434  0090                     	;# 
   435  0091                     	;# 
   436  0092                     	;# 
   437  0093                     	;# 
   438  0093                     	;# 
   439  0093                     	;# 
   440  0094                     	;# 
   441  0095                     	;# 
   442  0096                     	;# 
   443  0097                     	;# 
   444  0098                     	;# 
   445  0099                     	;# 
   446  009A                     	;# 
   447  009B                     	;# 
   448  009C                     	;# 
   449  009D                     	;# 
   450  009E                     	;# 
   451  009F                     	;# 
   452  0105                     	;# 
   453  0107                     	;# 
   454  0108                     	;# 
   455  0109                     	;# 
   456  010C                     	;# 
   457  010C                     	;# 
   458  010D                     	;# 
   459  010E                     	;# 
   460  010F                     	;# 
   461  0185                     	;# 
   462  0187                     	;# 
   463  0188                     	;# 
   464  0189                     	;# 
   465  018C                     	;# 
   466  018D                     	;# 
   467  0000                     	;# 
   468  0001                     	;# 
   469  0002                     	;# 
   470  0003                     	;# 
   471  0004                     	;# 
   472  0005                     	;# 
   473  0006                     	;# 
   474  0007                     	;# 
   475  0008                     	;# 
   476  0009                     	;# 
   477  000A                     	;# 
   478  000B                     	;# 
   479  000C                     	;# 
   480  000D                     	;# 
   481  000E                     	;# 
   482  000E                     	;# 
   483  000F                     	;# 
   484  0010                     	;# 
   485  0011                     	;# 
   486  0012                     	;# 
   487  0013                     	;# 
   488  0014                     	;# 
   489  0015                     	;# 
   490  0015                     	;# 
   491  0016                     	;# 
   492  0017                     	;# 
   493  0018                     	;# 
   494  0019                     	;# 
   495  001A                     	;# 
   496  001B                     	;# 
   497  001B                     	;# 
   498  001C                     	;# 
   499  001D                     	;# 
   500  001E                     	;# 
   501  001F                     	;# 
   502  0081                     	;# 
   503  0085                     	;# 
   504  0086                     	;# 
   505  0087                     	;# 
   506  0088                     	;# 
   507  0089                     	;# 
   508  008C                     	;# 
   509  008D                     	;# 
   510  008E                     	;# 
   511  008F                     	;# 
   512  0090                     	;# 
   513  0091                     	;# 
   514  0092                     	;# 
   515  0093                     	;# 
   516  0093                     	;# 
   517  0093                     	;# 
   518  0094                     	;# 
   519  0095                     	;# 
   520  0096                     	;# 
   521  0097                     	;# 
   522  0098                     	;# 
   523  0099                     	;# 
   524  009A                     	;# 
   525  009B                     	;# 
   526  009C                     	;# 
   527  009D                     	;# 
   528  009E                     	;# 
   529  009F                     	;# 
   530  0105                     	;# 
   531  0107                     	;# 
   532  0108                     	;# 
   533  0109                     	;# 
   534  010C                     	;# 
   535  010C                     	;# 
   536  010D                     	;# 
   537  010E                     	;# 
   538  010F                     	;# 
   539  0185                     	;# 
   540  0187                     	;# 
   541  0188                     	;# 
   542  0189                     	;# 
   543  018C                     	;# 
   544  018D                     	;# 
   545                           
   546                           	psect	idataBANK1
   547  0B50                     __pidataBANK1:
   548                           
   549                           ;initializer for _hola
   550  0B50  346E               	retlw	110
   551  0B51  346F               	retlw	111
   552  0B52  3478               	retlw	120
   553  0B53  3464               	retlw	100
   554  0B54  3400               	retlw	0
   555  0B55  3400               	retlw	0
   556  0B56  3400               	retlw	0
   557  0B57  3400               	retlw	0
   558  0B58  3400               	retlw	0
   559  0B59  3400               	retlw	0
   560  0B5A  3400               	retlw	0
   561  0B5B  3400               	retlw	0
   562  0B5C  3400               	retlw	0
   563  0B5D  3400               	retlw	0
   564  0B5E  3400               	retlw	0
   565  0B5F  3400               	retlw	0
   566  0B60  3400               	retlw	0
   567  0B61  3400               	retlw	0
   568  0B62  3400               	retlw	0
   569  0B63  3400               	retlw	0
   570  0B64  3400               	retlw	0
   571  0B65  3400               	retlw	0
   572  0B66  3400               	retlw	0
   573  0B67  3400               	retlw	0
   574  0B68  3400               	retlw	0
   575                           
   576                           	psect	strings
   577  0800                     __pstrings:
   578  0800                     stringtab:
   579  0800                     __stringtab:
   580                           
   581                           ;	String table - string pointers are 1 byte each
   582  0800  1BFF               	btfsc	btemp+1,7
   583  0801  280A               	ljmp	stringcode
   584  0802  1383               	bcf	3,7
   585  0803  187F               	btfsc	btemp+1,0
   586  0804  1783               	bsf	3,7
   587  0805  0800               	movf	0,w
   588  0806  0A84               	incf	4,f
   589  0807  1903               	skipnz
   590  0808  0AFF               	incf	btemp+1,f
   591  0809  0008               	return
   592  080A                     stringcode:
   593  080A                     stringdir:
   594  080A  3008               	movlw	high stringdir
   595  080B  008A               	movwf	10
   596  080C  0804               	movf	4,w
   597  080D  0A84               	incf	4,f
   598  080E  0782               	addwf	2,f
   599  080F                     __stringbase:
   600  080F  3400               	retlw	0
   601  0810                     __end_of__stringtab:
   602  0810                     _dpowers:
   603  0810  3401               	retlw	1
   604  0811  3400               	retlw	0
   605  0812  340A               	retlw	10
   606  0813  3400               	retlw	0
   607  0814  3464               	retlw	100
   608  0815  3400               	retlw	0
   609  0816  34E8               	retlw	232
   610  0817  3403               	retlw	3
   611  0818  3410               	retlw	16
   612  0819  3427               	retlw	39
   613  081A                     __end_of_dpowers:
   614  0014                     _SSPCON	set	20
   615  000B                     _INTCONbits	set	11
   616  0009                     _PORTE	set	9
   617  0006                     _PORTB	set	6
   618  0005                     _PORTA	set	5
   619  0018                     _RCSTA	set	24
   620  0009                     _PORTEbits	set	9
   621  0008                     _PORTD	set	8
   622  0013                     _SSPBUF	set	19
   623  0007                     _PORTCbits	set	7
   624  0019                     _TXREG	set	25
   625  000C                     _PIR1bits	set	12
   626  0094                     _SSPSTAT	set	148
   627  008C                     _PIE1bits	set	140
   628  0086                     _TRISB	set	134
   629  0089                     _TRISE	set	137
   630  0085                     _TRISA	set	133
   631  0099                     _SPBRG	set	153
   632  0098                     _TXSTA	set	152
   633  0088                     _TRISD	set	136
   634  0094                     _SSPSTATbits	set	148
   635  0087                     _TRISCbits	set	135
   636  0189                     _ANSELH	set	393
   637  0188                     _ANSEL	set	392
   638  0187                     _BAUDCTLbits	set	391
   639  081A                     STR_1:
   640  081A  3425               	retlw	37	;'%'
   641  081B  3469               	retlw	105	;'i'
   642  081C  342E               	retlw	46	;'.'
   643  081D  3425               	retlw	37	;'%'
   644  081E  3469               	retlw	105	;'i'
   645  081F  3425               	retlw	37	;'%'
   646  0820  3469               	retlw	105	;'i'
   647  0821  3456               	retlw	86	;'V'
   648  0822  3420               	retlw	32	;' '
   649  0823  3425               	retlw	37	;'%'
   650  0824  3433               	retlw	51	;'3'
   651  0825  3469               	retlw	105	;'i'
   652  0826  3420               	retlw	32	;' '
   653  0827  3425               	retlw	37	;'%'
   654  0828  3433               	retlw	51	;'3'
   655  0829  3469               	retlw	105	;'i'
   656  082A  340D               	retlw	13
   657  082B  340A               	retlw	10
   658  082C  3400               	retlw	0
   659  082D                     STR_2:
   660  082D  3420               	retlw	32	;' '
   661  082E  3453               	retlw	83	;'S'
   662  082F  3431               	retlw	49	;'1'
   663  0830  3420               	retlw	32	;' '
   664  0831  3420               	retlw	32	;' '
   665  0832  3420               	retlw	32	;' '
   666  0833  3420               	retlw	32	;' '
   667  0834  3453               	retlw	83	;'S'
   668  0835  3432               	retlw	50	;'2'
   669  0836  3420               	retlw	32	;' '
   670  0837  3420               	retlw	32	;' '
   671  0838  3420               	retlw	32	;' '
   672  0839  3420               	retlw	32	;' '
   673  083A  3453               	retlw	83	;'S'
   674  083B  3433               	retlw	51	;'3'
   675  083C  3420               	retlw	32	;' '
   676  083D  3400               	retlw	0
   677                           
   678                           	psect	cinit
   679  0011                     start_initialization:	
   680                           ; #config settings
   681                           
   682  0011                     __initialization:
   683                           
   684                           ; Initialize objects allocated to BANK1
   685  0011  1383               	bcf	3,7	;select IRP bank0
   686  0012  30E5               	movlw	low (__pdataBANK1+25)
   687  0013  00FD               	movwf	btemp+-1
   688  0014  300B               	movlw	high __pidataBANK1
   689  0015  00FE               	movwf	btemp
   690  0016  3050               	movlw	low __pidataBANK1
   691  0017  00FF               	movwf	btemp+1
   692  0018  30CC               	movlw	low __pdataBANK1
   693  0019  0084               	movwf	4
   694  001A  120A  158A  2341  120A  118A  	fcall	init_ram0
   695                           
   696                           ; Clear objects allocated to BANK1
   697  001F  30A0               	movlw	low __pbssBANK1
   698  0020  0084               	movwf	4
   699  0021  30CC               	movlw	low (__pbssBANK1+44)
   700  0022  120A  158A  22D9  120A  118A  	fcall	clear_ram0
   701                           
   702                           ; Clear objects allocated to BANK0
   703  0027  3063               	movlw	low __pbssBANK0
   704  0028  0084               	movwf	4
   705  0029  306E               	movlw	low (__pbssBANK0+11)
   706  002A  120A  158A  22D9  120A  118A  	fcall	clear_ram0
   707                           
   708                           ; Clear objects allocated to COMMON
   709  002F  01F8               	clrf	__pbssCOMMON& (0+127)
   710  0030  01F9               	clrf	(__pbssCOMMON+1)& (0+127)
   711  0031  01FA               	clrf	(__pbssCOMMON+2)& (0+127)
   712  0032                     end_of_initialization:	
   713                           ;End of C runtime variable initialization code
   714                           
   715  0032                     __end_of__initialization:
   716  0032  0183               	clrf	3
   717  0033  120A  118A  2D74   	ljmp	_main	;jump to C main() function
   718                           
   719                           	psect	bssCOMMON
   720  0078                     __pbssCOMMON:
   721  0078                     _incre:
   722  0078                     	ds	2
   723  007A                     _leer:
   724  007A                     	ds	1
   725                           
   726                           	psect	bssBANK0
   727  0063                     __pbssBANK0:
   728  0063                     _digitos:
   729  0063                     	ds	3
   730  0066                     _temperatura:
   731  0066                     	ds	2
   732  0068                     _i:
   733  0068                     	ds	2
   734  006A                     _contador2:
   735  006A                     	ds	2
   736  006C                     _voltage_int1:
   737  006C                     	ds	2
   738                           
   739                           	psect	bssBANK1
   740  00A0                     __pbssBANK1:
   741  00A0                     _buffer:
   742  00A0                     	ds	20
   743  00B4                     _divisor:
   744  00B4                     	ds	4
   745  00B8                     _datos:
   746  00B8                     	ds	20
   747                           
   748                           	psect	dataBANK1
   749  00CC                     __pdataBANK1:
   750  00CC                     _hola:
   751  00CC                     	ds	25
   752                           
   753                           	psect	inittext
   754  0B3D                     init_fetch0:	
   755                           ;	Called with low address in FSR and high address in W
   756                           
   757  0B3D  087E               	movf	btemp,w
   758  0B3E  008A               	movwf	10
   759  0B3F  087F               	movf	btemp+1,w
   760  0B40  0082               	movwf	2
   761  0B41                     init_ram0:	
   762                           ;Called with:
   763                           ;	high address of idata address in btemp 
   764                           ;	low address of idata address in btemp+1 
   765                           ;	low address of data in FSR
   766                           ;	high address + 1 of data in btemp-1
   767                           
   768  0B41  120A  158A  233D  120A  158A  	fcall	init_fetch0
   769  0B46  0080               	movwf	0
   770  0B47  0A84               	incf	4,f
   771  0B48  0804               	movf	4,w
   772  0B49  067D               	xorwf	btemp+-1,w
   773  0B4A  1903               	btfsc	3,2
   774  0B4B  3400               	retlw	0
   775  0B4C  0AFF               	incf	btemp+1,f
   776  0B4D  1903               	btfsc	3,2
   777  0B4E  0AFE               	incf	btemp,f
   778  0B4F  2B41               	goto	init_ram0
   779                           
   780                           	psect	clrtext
   781  0AD9                     clear_ram0:	
   782                           ;	Called with FSR containing the base address, and
   783                           ;	W with the last address+1
   784                           
   785  0AD9  0064               	clrwdt	;clear the watchdog before getting into this loop
   786  0ADA                     clrloop0:
   787  0ADA  0180               	clrf	0	;clear RAM location pointed to by FSR
   788  0ADB  0A84               	incf	4,f	;increment pointer
   789  0ADC  0604               	xorwf	4,w	;XOR with final address
   790  0ADD  1903               	btfsc	3,2	;have we reached the end yet?
   791  0ADE  3400               	retlw	0	;all done for this memory range, return
   792  0ADF  0604               	xorwf	4,w	;XOR again to restore value
   793  0AE0  2ADA               	goto	clrloop0	;do the next byte
   794                           
   795                           	psect	cstackBANK1
   796  00E5                     __pcstackBANK1:
   797  00E5                     ??_main:
   798                           
   799                           ; 1 bytes @ 0x0
   800  00E5                     	ds	6
   801                           
   802                           	psect	cstackCOMMON
   803  0070                     __pcstackCOMMON:
   804  0070                     ?_isdigit:
   805  0070                     ?_setupm1:	
   806                           ; 1 bit 
   807                           
   808  0070                     ?_inter:	
   809                           ; 1 bytes @ 0x0
   810                           
   811  0070                     ?_LCD_Initialize:	
   812                           ; 1 bytes @ 0x0
   813                           
   814  0070                     ?_spiconm:	
   815                           ; 1 bytes @ 0x0
   816                           
   817  0070                     ?_LCDCmd:	
   818                           ; 1 bytes @ 0x0
   819                           
   820  0070                     ?_intac:	
   821                           ; 1 bytes @ 0x0
   822                           
   823  0070                     ??_intac:	
   824                           ; 1 bytes @ 0x0
   825                           
   826  0070                     ?_main:	
   827                           ; 1 bytes @ 0x0
   828                           
   829  0070                     ?_LCDChar:	
   830                           ; 1 bytes @ 0x0
   831                           
   832                           
   833                           ; 1 bytes @ 0x0
   834  0070                     	ds	3
   835  0073                     ??_setupm1:
   836  0073                     ??_inter:	
   837                           ; 1 bytes @ 0x3
   838                           
   839  0073                     ??_spiconm:	
   840                           ; 1 bytes @ 0x3
   841                           
   842  0073                     ??_isdigit:	
   843                           ; 1 bytes @ 0x3
   844                           
   845  0073                     ?_LCDWrite:	
   846                           ; 1 bytes @ 0x3
   847                           
   848  0073                     ??___aldiv:	
   849                           ; 1 bytes @ 0x3
   850                           
   851  0073                     ?__Umul8_16:	
   852                           ; 1 bytes @ 0x3
   853                           
   854  0073                     ?___wmul:	
   855                           ; 2 bytes @ 0x3
   856                           
   857  0073                     ?___lwdiv:	
   858                           ; 2 bytes @ 0x3
   859                           
   860  0073                     ?___xxtofl:	
   861                           ; 2 bytes @ 0x3
   862                           
   863  0073                     LCDWrite@rs:	
   864                           ; 4 bytes @ 0x3
   865                           
   866  0073                     __Umul8_16@multiplicand:	
   867                           ; 1 bytes @ 0x3
   868                           
   869  0073                     _isdigit$907:	
   870                           ; 1 bytes @ 0x3
   871                           
   872  0073                     ___wmul@multiplier:	
   873                           ; 1 bytes @ 0x3
   874                           
   875  0073                     ___lwdiv@divisor:	
   876                           ; 2 bytes @ 0x3
   877                           
   878  0073                     ___xxtofl@val:	
   879                           ; 2 bytes @ 0x3
   880                           
   881                           
   882                           ; 4 bytes @ 0x3
   883  0073                     	ds	1
   884  0074                     ??_LCDWrite:
   885  0074                     LCDWrite@ch:	
   886                           ; 1 bytes @ 0x4
   887                           
   888  0074                     isdigit@c:	
   889                           ; 1 bytes @ 0x4
   890                           
   891  0074                     CONUSARTM@p:	
   892                           ; 1 bytes @ 0x4
   893                           
   894                           
   895                           ; 4 bytes @ 0x4
   896  0074                     	ds	1
   897  0075                     ??_LCDCmd:
   898  0075                     ??__Umul8_16:	
   899                           ; 1 bytes @ 0x5
   900                           
   901  0075                     ??_LCDChar:	
   902                           ; 1 bytes @ 0x5
   903                           
   904  0075                     ___wmul@multiplicand:	
   905                           ; 1 bytes @ 0x5
   906                           
   907  0075                     ___lwdiv@dividend:	
   908                           ; 2 bytes @ 0x5
   909                           
   910                           
   911                           ; 2 bytes @ 0x5
   912  0075                     	ds	2
   913  0077                     ??___wmul:
   914  0077                     ??___lwdiv:	
   915                           ; 1 bytes @ 0x7
   916                           
   917  0077                     ??___lwmod:	
   918                           ; 1 bytes @ 0x7
   919                           
   920  0077                     LCDChar@ch:	
   921                           ; 1 bytes @ 0x7
   922                           
   923  0077                     LCDCmd@ch:	
   924                           ; 1 bytes @ 0x7
   925                           
   926  0077                     ___lwmod@counter:	
   927                           ; 1 bytes @ 0x7
   928                           
   929                           
   930                           ; 1 bytes @ 0x7
   931  0077                     	ds	1
   932  0078                     ??_LCDStr:
   933                           
   934                           	psect	cstackBANK0
   935  0020                     __pcstackBANK0:	
   936                           ; 1 bytes @ 0x8
   937                           
   938  0020                     ??_LCD_Initialize:
   939  0020                     ?_LCDGoto:	
   940                           ; 1 bytes @ 0x0
   941                           
   942  0020                     ?_LCDStr:	
   943                           ; 1 bytes @ 0x0
   944                           
   945  0020                     ??___xxtofl:	
   946                           ; 1 bytes @ 0x0
   947                           
   948  0020                     ?___aldiv:	
   949                           ; 1 bytes @ 0x0
   950                           
   951  0020                     LCDGoto@ln:	
   952                           ; 4 bytes @ 0x0
   953                           
   954  0020                     ___lwdiv@counter:	
   955                           ; 1 bytes @ 0x0
   956                           
   957  0020                     LCDStr@str:	
   958                           ; 1 bytes @ 0x0
   959                           
   960  0020                     ___wmul@product:	
   961                           ; 2 bytes @ 0x0
   962                           
   963  0020                     __Umul8_16@product:	
   964                           ; 2 bytes @ 0x0
   965                           
   966  0020                     ___aldiv@divisor:	
   967                           ; 2 bytes @ 0x0
   968                           
   969                           
   970                           ; 4 bytes @ 0x0
   971  0020                     	ds	1
   972  0021                     ??_LCDGoto:
   973  0021                     ___lwdiv@quotient:	
   974                           ; 1 bytes @ 0x1
   975                           
   976                           
   977                           ; 2 bytes @ 0x1
   978  0021                     	ds	1
   979  0022                     LCDStr@i:
   980  0022                     __Umul8_16@word_mpld:	
   981                           ; 1 bytes @ 0x2
   982                           
   983                           
   984                           ; 2 bytes @ 0x2
   985  0022                     	ds	1
   986  0023                     ?___lwmod:
   987  0023                     _LCDGoto$314:	
   988                           ; 2 bytes @ 0x3
   989                           
   990  0023                     ___lwmod@divisor:	
   991                           ; 2 bytes @ 0x3
   992                           
   993                           
   994                           ; 2 bytes @ 0x3
   995  0023                     	ds	1
   996  0024                     __Umul8_16@multiplier:
   997  0024                     ___xxtofl@sign:	
   998                           ; 1 bytes @ 0x4
   999                           
  1000  0024                     ___aldiv@dividend:	
  1001                           ; 1 bytes @ 0x4
  1002                           
  1003                           
  1004                           ; 4 bytes @ 0x4
  1005  0024                     	ds	1
  1006  0025                     ?___flmul:
  1007  0025                     LCDGoto@pos:	
  1008                           ; 4 bytes @ 0x5
  1009                           
  1010  0025                     ___xxtofl@exp:	
  1011                           ; 1 bytes @ 0x5
  1012                           
  1013  0025                     ___lwmod@dividend:	
  1014                           ; 1 bytes @ 0x5
  1015                           
  1016  0025                     ___flmul@b:	
  1017                           ; 2 bytes @ 0x5
  1018                           
  1019                           
  1020                           ; 4 bytes @ 0x5
  1021  0025                     	ds	1
  1022  0026                     ___xxtofl@arg:
  1023                           
  1024                           ; 4 bytes @ 0x6
  1025  0026                     	ds	1
  1026  0027                     ?_sprintf:
  1027  0027                     sprintf@f:	
  1028                           ; 2 bytes @ 0x7
  1029                           
  1030                           
  1031                           ; 1 bytes @ 0x7
  1032  0027                     	ds	1
  1033  0028                     ___aldiv@counter:
  1034                           
  1035                           ; 1 bytes @ 0x8
  1036  0028                     	ds	1
  1037  0029                     ___aldiv@sign:
  1038  0029                     ___flmul@a:	
  1039                           ; 1 bytes @ 0x9
  1040                           
  1041                           
  1042                           ; 4 bytes @ 0x9
  1043  0029                     	ds	1
  1044  002A                     ___aldiv@quotient:
  1045                           
  1046                           ; 4 bytes @ 0xA
  1047  002A                     	ds	3
  1048  002D                     ??___flmul:
  1049                           
  1050                           ; 1 bytes @ 0xD
  1051  002D                     	ds	1
  1052  002E                     ?_CONUSARTM:
  1053  002E                     CONUSARTM@baudrate:	
  1054                           ; 1 bytes @ 0xE
  1055                           
  1056                           
  1057                           ; 4 bytes @ 0xE
  1058  002E                     	ds	4
  1059  0032                     ??_CONUSARTM:
  1060  0032                     ??_sprintf:	
  1061                           ; 1 bytes @ 0x12
  1062                           
  1063  0032                     ___flmul@sign:	
  1064                           ; 1 bytes @ 0x12
  1065                           
  1066                           
  1067                           ; 1 bytes @ 0x12
  1068  0032                     	ds	1
  1069  0033                     ___flmul@grs:
  1070                           
  1071                           ; 4 bytes @ 0x13
  1072  0033                     	ds	2
  1073  0035                     sprintf@ap:
  1074                           
  1075                           ; 1 bytes @ 0x15
  1076  0035                     	ds	1
  1077  0036                     sprintf@prec:
  1078                           
  1079                           ; 1 bytes @ 0x16
  1080  0036                     	ds	1
  1081  0037                     sprintf@flag:
  1082  0037                     ___flmul@aexp:	
  1083                           ; 1 bytes @ 0x17
  1084                           
  1085                           
  1086                           ; 1 bytes @ 0x17
  1087  0037                     	ds	1
  1088  0038                     ___flmul@bexp:
  1089  0038                     sprintf@val:	
  1090                           ; 1 bytes @ 0x18
  1091                           
  1092                           
  1093                           ; 2 bytes @ 0x18
  1094  0038                     	ds	1
  1095  0039                     ___flmul@prod:
  1096                           
  1097                           ; 4 bytes @ 0x19
  1098  0039                     	ds	1
  1099  003A                     sprintf@sp:
  1100                           
  1101                           ; 1 bytes @ 0x1A
  1102  003A                     	ds	1
  1103  003B                     sprintf@width:
  1104                           
  1105                           ; 2 bytes @ 0x1B
  1106  003B                     	ds	2
  1107  003D                     sprintf@c:
  1108  003D                     ___flmul@temp:	
  1109                           ; 1 bytes @ 0x1D
  1110                           
  1111                           
  1112                           ; 2 bytes @ 0x1D
  1113  003D                     	ds	2
  1114  003F                     ?___fldiv:
  1115  003F                     ___fldiv@a:	
  1116                           ; 4 bytes @ 0x1F
  1117                           
  1118                           
  1119                           ; 4 bytes @ 0x1F
  1120  003F                     	ds	4
  1121  0043                     ___fldiv@b:
  1122                           
  1123                           ; 4 bytes @ 0x23
  1124  0043                     	ds	4
  1125  0047                     ??___fldiv:
  1126                           
  1127                           ; 1 bytes @ 0x27
  1128  0047                     	ds	5
  1129  004C                     ___fldiv@rem:
  1130                           
  1131                           ; 4 bytes @ 0x2C
  1132  004C                     	ds	4
  1133  0050                     ___fldiv@sign:
  1134                           
  1135                           ; 1 bytes @ 0x30
  1136  0050                     	ds	1
  1137  0051                     ___fldiv@new_exp:
  1138                           
  1139                           ; 2 bytes @ 0x31
  1140  0051                     	ds	2
  1141  0053                     ___fldiv@grs:
  1142                           
  1143                           ; 4 bytes @ 0x33
  1144  0053                     	ds	4
  1145  0057                     ___fldiv@bexp:
  1146                           
  1147                           ; 1 bytes @ 0x37
  1148  0057                     	ds	1
  1149  0058                     ___fldiv@aexp:
  1150                           
  1151                           ; 1 bytes @ 0x38
  1152  0058                     	ds	1
  1153  0059                     ?___fltol:
  1154  0059                     ___fltol@f1:	
  1155                           ; 4 bytes @ 0x39
  1156                           
  1157                           
  1158                           ; 4 bytes @ 0x39
  1159  0059                     	ds	4
  1160  005D                     ??___fltol:
  1161                           
  1162                           ; 1 bytes @ 0x3D
  1163  005D                     	ds	4
  1164  0061                     ___fltol@sign1:
  1165                           
  1166                           ; 1 bytes @ 0x41
  1167  0061                     	ds	1
  1168  0062                     ___fltol@exp1:
  1169                           
  1170                           ; 1 bytes @ 0x42
  1171  0062                     	ds	1
  1172                           
  1173                           	psect	maintext
  1174  0574                     __pmaintext:	
  1175 ;;
  1176 ;;Main: autosize = 0, tempsize = 6, incstack = 0, save=0
  1177 ;;
  1178 ;; *************** function _main *****************
  1179 ;; Defined at:
  1180 ;;		line 44 in file "master.c"
  1181 ;; Parameters:    Size  Location     Type
  1182 ;;		None
  1183 ;; Auto vars:     Size  Location     Type
  1184 ;;		None
  1185 ;; Return value:  Size  Location     Type
  1186 ;;                  1    wreg      void 
  1187 ;; Registers used:
  1188 ;;		wreg, fsr0l, fsr0h, status,2, status,0, btemp+1, pclath, cstack
  1189 ;; Tracked objects:
  1190 ;;		On entry : B00/0
  1191 ;;		On exit  : 0/0
  1192 ;;		Unchanged: 0/0
  1193 ;; Data sizes:     COMMON   BANK0   BANK1   BANK3   BANK2
  1194 ;;      Params:         0       0       0       0       0
  1195 ;;      Locals:         0       0       0       0       0
  1196 ;;      Temps:          0       0       6       0       0
  1197 ;;      Totals:         0       0       6       0       0
  1198 ;;Total ram usage:        6 bytes
  1199 ;; Hardware stack levels required when called:    4
  1200 ;; This function calls:
  1201 ;;		_CONUSARTM
  1202 ;;		_LCDGoto
  1203 ;;		_LCDStr
  1204 ;;		_LCD_Initialize
  1205 ;;		___fldiv
  1206 ;;		___flmul
  1207 ;;		___fltol
  1208 ;;		___lwdiv
  1209 ;;		___lwmod
  1210 ;;		___xxtofl
  1211 ;;		_inter
  1212 ;;		_setupm1
  1213 ;;		_spiconm
  1214 ;;		_sprintf
  1215 ;; This function is called by:
  1216 ;;		Startup code after reset
  1217 ;; This function uses a non-reentrant model
  1218 ;;
  1219                           
  1220                           
  1221                           ;psect for function _main
  1222  0574                     _main:
  1223  0574                     l2667:	
  1224                           ;incstack = 0
  1225                           ; Regs used in _main: [wreg-fsr0h+status,2+status,0+btemp+1+pclath+cstack]
  1226                           
  1227                           
  1228                           ;master.c: 45:     setupm1();
  1229  0574  120A  158A  2307  120A  118A  	fcall	_setupm1
  1230                           
  1231                           ;master.c: 46:     inter();
  1232  0579  120A  158A  22E1  120A  118A  	fcall	_inter
  1233  057E                     l2669:
  1234                           
  1235                           ;master.c: 47:     _delay((unsigned long)((25)*(8000000/4000000.0)));
  1236  057E  300F               	movlw	15
  1237  057F  1683               	bsf	3,5	;RP0=1, select bank1
  1238  0580  1303               	bcf	3,6	;RP1=0, select bank1
  1239  0581  00E5               	movwf	??_main^(0+128)
  1240  0582                     u3697:
  1241  0582  0BE5               	decfsz	??_main^(0+128),f
  1242  0583  2D82               	goto	u3697
  1243  0584  2D85               	nop2
  1244                           
  1245                           ;master.c: 48:     LCD_Initialize();
  1246  0585  120A  158A  240F  120A  118A  	fcall	_LCD_Initialize
  1247  058A                     l2671:
  1248                           
  1249                           ;master.c: 49:     CONUSARTM(9600);
  1250  058A  3000               	movlw	0
  1251  058B  1283               	bcf	3,5	;RP0=0, select bank0
  1252  058C  1303               	bcf	3,6	;RP1=0, select bank0
  1253  058D  00B1               	movwf	CONUSARTM@baudrate+3
  1254  058E  3000               	movlw	0
  1255  058F  00B0               	movwf	CONUSARTM@baudrate+2
  1256  0590  3025               	movlw	37
  1257  0591  00AF               	movwf	CONUSARTM@baudrate+1
  1258  0592  3080               	movlw	128
  1259  0593  00AE               	movwf	CONUSARTM@baudrate
  1260  0594  120A  158A  24F2  120A  118A  	fcall	_CONUSARTM
  1261  0599                     l2673:
  1262                           
  1263                           ;master.c: 50:     spiconm();
  1264  0599  120A  158A  22EB  120A  118A  	fcall	_spiconm
  1265  059E                     l2675:
  1266                           
  1267                           ;master.c: 51:     TRISCbits.TRISC0 = 0;
  1268  059E  1683               	bsf	3,5	;RP0=1, select bank1
  1269  059F  1303               	bcf	3,6	;RP1=0, select bank1
  1270  05A0  1007               	bcf	7,0	;volatile
  1271  05A1                     l2677:
  1272                           
  1273                           ;master.c: 52:     TRISCbits.TRISC1 = 0;
  1274  05A1  1087               	bcf	7,1	;volatile
  1275  05A2                     l2679:
  1276                           
  1277                           ;master.c: 53:     TRISCbits.TRISC2 = 0;
  1278  05A2  1107               	bcf	7,2	;volatile
  1279  05A3                     l2681:
  1280                           
  1281                           ;master.c: 54:     PORTCbits.RC0 = 0;
  1282  05A3  1283               	bcf	3,5	;RP0=0, select bank0
  1283  05A4  1303               	bcf	3,6	;RP1=0, select bank0
  1284  05A5  1007               	bcf	7,0	;volatile
  1285  05A6                     l2683:
  1286                           
  1287                           ;master.c: 55:     PORTCbits.RC1 = 1;
  1288  05A6  1487               	bsf	7,1	;volatile
  1289  05A7                     l2685:
  1290                           
  1291                           ;master.c: 56:     PORTCbits.RC2 = 1;
  1292  05A7  1507               	bsf	7,2	;volatile
  1293  05A8                     l2687:
  1294                           
  1295                           ;master.c: 58:         PORTCbits.RC0 = 0;
  1296  05A8  1283               	bcf	3,5	;RP0=0, select bank0
  1297  05A9  1303               	bcf	3,6	;RP1=0, select bank0
  1298  05AA  1007               	bcf	7,0	;volatile
  1299  05AB                     l2689:
  1300                           
  1301                           ;master.c: 59:         SSPBUF = 1;
  1302  05AB  3001               	movlw	1
  1303  05AC  0093               	movwf	19	;volatile
  1304  05AD                     l2691:
  1305                           
  1306                           ;master.c: 60:         if (!SSPSTATbits.BF) {
  1307  05AD  1683               	bsf	3,5	;RP0=1, select bank1
  1308  05AE  1303               	bcf	3,6	;RP1=0, select bank1
  1309  05AF  1814               	btfsc	20,0	;volatile
  1310  05B0  2DB2               	goto	u3651
  1311  05B1  2DB3               	goto	u3650
  1312  05B2                     u3651:
  1313  05B2  2DD4               	goto	l2695
  1314  05B3                     u3650:
  1315  05B3                     l2693:
  1316                           
  1317                           ;master.c: 61:             divisor = SSPBUF;
  1318  05B3  1283               	bcf	3,5	;RP0=0, select bank0
  1319  05B4  1303               	bcf	3,6	;RP1=0, select bank0
  1320  05B5  0813               	movf	19,w	;volatile
  1321  05B6  1683               	bsf	3,5	;RP0=1, select bank1
  1322  05B7  1303               	bcf	3,6	;RP1=0, select bank1
  1323  05B8  00E5               	movwf	??_main^(0+128)
  1324  05B9  01E6               	clrf	(??_main^(0+128)+1)
  1325  05BA  01E7               	clrf	(??_main^(0+128)+2)
  1326  05BB  01E8               	clrf	(??_main^(0+128)+3)
  1327  05BC  0868               	movf	(??_main+3)^(0+128),w
  1328  05BD  00F6               	movwf	___xxtofl@val+3
  1329  05BE  0867               	movf	(??_main+2)^(0+128),w
  1330  05BF  00F5               	movwf	___xxtofl@val+2
  1331  05C0  0866               	movf	(??_main+1)^(0+128),w
  1332  05C1  00F4               	movwf	___xxtofl@val+1
  1333  05C2  0865               	movf	??_main^(0+128),w
  1334  05C3  00F3               	movwf	___xxtofl@val
  1335  05C4  3000               	movlw	0
  1336  05C5  120A  118A  2732  120A  118A  	fcall	___xxtofl
  1337  05CA  0876               	movf	?___xxtofl+3,w
  1338  05CB  1683               	bsf	3,5	;RP0=1, select bank1
  1339  05CC  1303               	bcf	3,6	;RP1=0, select bank1
  1340  05CD  00B7               	movwf	(_divisor+3)^(0+128)
  1341  05CE  0875               	movf	?___xxtofl+2,w
  1342  05CF  00B6               	movwf	(_divisor+2)^(0+128)
  1343  05D0  0874               	movf	?___xxtofl+1,w
  1344  05D1  00B5               	movwf	(_divisor+1)^(0+128)
  1345  05D2  0873               	movf	?___xxtofl,w
  1346  05D3  00B4               	movwf	_divisor^(0+128)
  1347  05D4                     l2695:
  1348                           
  1349                           ;master.c: 63:         _delay((unsigned long)((2)*(8000000/4000.0)));
  1350  05D4  3006               	movlw	6
  1351  05D5  1683               	bsf	3,5	;RP0=1, select bank1
  1352  05D6  1303               	bcf	3,6	;RP1=0, select bank1
  1353  05D7  00E6               	movwf	(??_main^(0+128)+1)
  1354  05D8  302F               	movlw	47
  1355  05D9  00E5               	movwf	??_main^(0+128)
  1356  05DA                     u3707:
  1357  05DA  0BE5               	decfsz	??_main^(0+128),f
  1358  05DB  2DDA               	goto	u3707
  1359  05DC  0BE6               	decfsz	(??_main^(0+128)+1),f
  1360  05DD  2DDA               	goto	u3707
  1361  05DE  2DDF               	nop2
  1362  05DF                     l2697:
  1363                           
  1364                           ;master.c: 64:         PORTCbits.RC0 = 1;
  1365  05DF  1283               	bcf	3,5	;RP0=0, select bank0
  1366  05E0  1303               	bcf	3,6	;RP1=0, select bank0
  1367  05E1  1407               	bsf	7,0	;volatile
  1368  05E2                     l2699:
  1369                           
  1370                           ;master.c: 66:         PORTCbits.RC1 = 0;
  1371  05E2  1087               	bcf	7,1	;volatile
  1372  05E3                     l2701:
  1373                           
  1374                           ;master.c: 67:         SSPBUF = 1;
  1375  05E3  3001               	movlw	1
  1376  05E4  0093               	movwf	19	;volatile
  1377  05E5                     l2703:
  1378                           
  1379                           ;master.c: 68:         if (!SSPSTATbits.BF) {
  1380  05E5  1683               	bsf	3,5	;RP0=1, select bank1
  1381  05E6  1303               	bcf	3,6	;RP1=0, select bank1
  1382  05E7  1814               	btfsc	20,0	;volatile
  1383  05E8  2DEA               	goto	u3661
  1384  05E9  2DEB               	goto	u3660
  1385  05EA                     u3661:
  1386  05EA  2DFC               	goto	l67
  1387  05EB                     u3660:
  1388  05EB                     l2705:
  1389                           
  1390                           ;master.c: 69:             contador2 = SSPBUF;
  1391  05EB  1283               	bcf	3,5	;RP0=0, select bank0
  1392  05EC  1303               	bcf	3,6	;RP1=0, select bank0
  1393  05ED  0813               	movf	19,w	;volatile
  1394  05EE  1683               	bsf	3,5	;RP0=1, select bank1
  1395  05EF  1303               	bcf	3,6	;RP1=0, select bank1
  1396  05F0  00E5               	movwf	??_main^(0+128)
  1397  05F1  01E6               	clrf	(??_main^(0+128)+1)
  1398  05F2  0865               	movf	??_main^(0+128),w
  1399  05F3  1283               	bcf	3,5	;RP0=0, select bank0
  1400  05F4  1303               	bcf	3,6	;RP1=0, select bank0
  1401  05F5  00EA               	movwf	_contador2
  1402  05F6  1683               	bsf	3,5	;RP0=1, select bank1
  1403  05F7  1303               	bcf	3,6	;RP1=0, select bank1
  1404  05F8  0866               	movf	(??_main+1)^(0+128),w
  1405  05F9  1283               	bcf	3,5	;RP0=0, select bank0
  1406  05FA  1303               	bcf	3,6	;RP1=0, select bank0
  1407  05FB  00EB               	movwf	_contador2+1
  1408  05FC                     l67:	
  1409                           ;master.c: 70:         }
  1410                           
  1411                           
  1412                           ;master.c: 71:         _delay((unsigned long)((2)*(8000000/4000.0)));
  1413  05FC  3006               	movlw	6
  1414  05FD  1683               	bsf	3,5	;RP0=1, select bank1
  1415  05FE  1303               	bcf	3,6	;RP1=0, select bank1
  1416  05FF  00E6               	movwf	(??_main^(0+128)+1)
  1417  0600  302F               	movlw	47
  1418  0601  00E5               	movwf	??_main^(0+128)
  1419  0602                     u3717:
  1420  0602  0BE5               	decfsz	??_main^(0+128),f
  1421  0603  2E02               	goto	u3717
  1422  0604  0BE6               	decfsz	(??_main^(0+128)+1),f
  1423  0605  2E02               	goto	u3717
  1424  0606  2E07               	nop2
  1425  0607                     l2707:
  1426                           
  1427                           ;master.c: 72:         PORTCbits.RC1 = 1;
  1428  0607  1283               	bcf	3,5	;RP0=0, select bank0
  1429  0608  1303               	bcf	3,6	;RP1=0, select bank0
  1430  0609  1487               	bsf	7,1	;volatile
  1431  060A                     l2709:
  1432                           
  1433                           ;master.c: 74:         PORTCbits.RC2 = 0;
  1434  060A  1107               	bcf	7,2	;volatile
  1435                           
  1436                           ;master.c: 75:         SSPBUF = 1;
  1437  060B  3001               	movlw	1
  1438  060C  0093               	movwf	19	;volatile
  1439  060D                     l2711:
  1440                           
  1441                           ;master.c: 76:         if(!SSPSTATbits.BF){
  1442  060D  1683               	bsf	3,5	;RP0=1, select bank1
  1443  060E  1303               	bcf	3,6	;RP1=0, select bank1
  1444  060F  1814               	btfsc	20,0	;volatile
  1445  0610  2E12               	goto	u3671
  1446  0611  2E13               	goto	u3670
  1447  0612                     u3671:
  1448  0612  2E24               	goto	l68
  1449  0613                     u3670:
  1450  0613                     l2713:
  1451                           
  1452                           ;master.c: 77:             temperatura = SSPBUF;
  1453  0613  1283               	bcf	3,5	;RP0=0, select bank0
  1454  0614  1303               	bcf	3,6	;RP1=0, select bank0
  1455  0615  0813               	movf	19,w	;volatile
  1456  0616  1683               	bsf	3,5	;RP0=1, select bank1
  1457  0617  1303               	bcf	3,6	;RP1=0, select bank1
  1458  0618  00E5               	movwf	??_main^(0+128)
  1459  0619  01E6               	clrf	(??_main^(0+128)+1)
  1460  061A  0865               	movf	??_main^(0+128),w
  1461  061B  1283               	bcf	3,5	;RP0=0, select bank0
  1462  061C  1303               	bcf	3,6	;RP1=0, select bank0
  1463  061D  00E6               	movwf	_temperatura
  1464  061E  1683               	bsf	3,5	;RP0=1, select bank1
  1465  061F  1303               	bcf	3,6	;RP1=0, select bank1
  1466  0620  0866               	movf	(??_main+1)^(0+128),w
  1467  0621  1283               	bcf	3,5	;RP0=0, select bank0
  1468  0622  1303               	bcf	3,6	;RP1=0, select bank0
  1469  0623  00E7               	movwf	_temperatura+1
  1470  0624                     l68:	
  1471                           ;master.c: 78:         }
  1472                           
  1473                           
  1474                           ;master.c: 79:         _delay((unsigned long)((2)*(8000000/4000.0)));
  1475  0624  3006               	movlw	6
  1476  0625  1683               	bsf	3,5	;RP0=1, select bank1
  1477  0626  1303               	bcf	3,6	;RP1=0, select bank1
  1478  0627  00E6               	movwf	(??_main^(0+128)+1)
  1479  0628  302F               	movlw	47
  1480  0629  00E5               	movwf	??_main^(0+128)
  1481  062A                     u3727:
  1482  062A  0BE5               	decfsz	??_main^(0+128),f
  1483  062B  2E2A               	goto	u3727
  1484  062C  0BE6               	decfsz	(??_main^(0+128)+1),f
  1485  062D  2E2A               	goto	u3727
  1486  062E  2E2F               	nop2
  1487  062F                     l2715:
  1488                           
  1489                           ;master.c: 80:         PORTCbits.RC2 = 1;
  1490  062F  1283               	bcf	3,5	;RP0=0, select bank0
  1491  0630  1303               	bcf	3,6	;RP1=0, select bank0
  1492  0631  1507               	bsf	7,2	;volatile
  1493  0632                     l2717:
  1494                           
  1495                           ;master.c: 82:         voltage_int1 = (uint16_t) ((((divisor * 500) / 255)));
  1496  0632  1683               	bsf	3,5	;RP0=1, select bank1
  1497  0633  1303               	bcf	3,6	;RP1=0, select bank1
  1498  0634  0837               	movf	(_divisor+3)^(0+128),w
  1499  0635  1283               	bcf	3,5	;RP0=0, select bank0
  1500  0636  1303               	bcf	3,6	;RP1=0, select bank0
  1501  0637  00AC               	movwf	___flmul@a+3
  1502  0638  1683               	bsf	3,5	;RP0=1, select bank1
  1503  0639  1303               	bcf	3,6	;RP1=0, select bank1
  1504  063A  0836               	movf	(_divisor+2)^(0+128),w
  1505  063B  1283               	bcf	3,5	;RP0=0, select bank0
  1506  063C  1303               	bcf	3,6	;RP1=0, select bank0
  1507  063D  00AB               	movwf	___flmul@a+2
  1508  063E  1683               	bsf	3,5	;RP0=1, select bank1
  1509  063F  1303               	bcf	3,6	;RP1=0, select bank1
  1510  0640  0835               	movf	(_divisor+1)^(0+128),w
  1511  0641  1283               	bcf	3,5	;RP0=0, select bank0
  1512  0642  1303               	bcf	3,6	;RP1=0, select bank0
  1513  0643  00AA               	movwf	___flmul@a+1
  1514  0644  1683               	bsf	3,5	;RP0=1, select bank1
  1515  0645  1303               	bcf	3,6	;RP1=0, select bank1
  1516  0646  0834               	movf	_divisor^(0+128),w
  1517  0647  1283               	bcf	3,5	;RP0=0, select bank0
  1518  0648  1303               	bcf	3,6	;RP1=0, select bank0
  1519  0649  00A9               	movwf	___flmul@a
  1520  064A  3043               	movlw	67
  1521  064B  00A8               	movwf	___flmul@b+3
  1522  064C  30FA               	movlw	250
  1523  064D  00A7               	movwf	___flmul@b+2
  1524  064E  3000               	movlw	0
  1525  064F  00A6               	movwf	___flmul@b+1
  1526  0650  3000               	movlw	0
  1527  0651  00A5               	movwf	___flmul@b
  1528  0652  120A  118A  2036  120A  118A  	fcall	___flmul
  1529  0657  1283               	bcf	3,5	;RP0=0, select bank0
  1530  0658  1303               	bcf	3,6	;RP1=0, select bank0
  1531  0659  0828               	movf	?___flmul+3,w
  1532  065A  00C6               	movwf	___fldiv@b+3
  1533  065B  0827               	movf	?___flmul+2,w
  1534  065C  00C5               	movwf	___fldiv@b+2
  1535  065D  0826               	movf	?___flmul+1,w
  1536  065E  00C4               	movwf	___fldiv@b+1
  1537  065F  0825               	movf	?___flmul,w
  1538  0660  00C3               	movwf	___fldiv@b
  1539  0661  3043               	movlw	67
  1540  0662  00C2               	movwf	___fldiv@a+3
  1541  0663  307F               	movlw	127
  1542  0664  00C1               	movwf	___fldiv@a+2
  1543  0665  3000               	movlw	0
  1544  0666  00C0               	movwf	___fldiv@a+1
  1545  0667  3000               	movlw	0
  1546  0668  00BF               	movwf	___fldiv@a
  1547  0669  120A  118A  2397  120A  118A  	fcall	___fldiv
  1548  066E  1283               	bcf	3,5	;RP0=0, select bank0
  1549  066F  1303               	bcf	3,6	;RP1=0, select bank0
  1550  0670  0842               	movf	?___fldiv+3,w
  1551  0671  00DC               	movwf	___fltol@f1+3
  1552  0672  0841               	movf	?___fldiv+2,w
  1553  0673  00DB               	movwf	___fltol@f1+2
  1554  0674  0840               	movf	?___fldiv+1,w
  1555  0675  00DA               	movwf	___fltol@f1+1
  1556  0676  083F               	movf	?___fldiv,w
  1557  0677  00D9               	movwf	___fltol@f1
  1558  0678  120A  158A  255F  120A  118A  	fcall	___fltol
  1559  067D  1283               	bcf	3,5	;RP0=0, select bank0
  1560  067E  1303               	bcf	3,6	;RP1=0, select bank0
  1561  067F  085A               	movf	?___fltol+1,w
  1562  0680  00ED               	movwf	_voltage_int1+1
  1563  0681  0859               	movf	?___fltol,w
  1564  0682  00EC               	movwf	_voltage_int1
  1565  0683                     l2719:
  1566                           
  1567                           ;master.c: 83:         for (i = 0; i < 3; i++) {
  1568  0683  01E8               	clrf	_i
  1569  0684  01E9               	clrf	_i+1
  1570  0685                     l2725:
  1571                           
  1572                           ;master.c: 84:             digitos[i] = (char) (voltage_int1 % 10);
  1573  0685  300A               	movlw	10
  1574  0686  1283               	bcf	3,5	;RP0=0, select bank0
  1575  0687  1303               	bcf	3,6	;RP1=0, select bank0
  1576  0688  00A3               	movwf	___lwmod@divisor
  1577  0689  3000               	movlw	0
  1578  068A  00A4               	movwf	___lwmod@divisor+1
  1579  068B  086D               	movf	_voltage_int1+1,w
  1580  068C  00A6               	movwf	___lwmod@dividend+1
  1581  068D  086C               	movf	_voltage_int1,w
  1582  068E  00A5               	movwf	___lwmod@dividend
  1583  068F  120A  158A  2470  120A  118A  	fcall	___lwmod
  1584  0694  1283               	bcf	3,5	;RP0=0, select bank0
  1585  0695  1303               	bcf	3,6	;RP1=0, select bank0
  1586  0696  0823               	movf	?___lwmod,w
  1587  0697  00FF               	movwf	btemp+1
  1588  0698  0868               	movf	_i,w
  1589  0699  3E63               	addlw	(low (_digitos| 0))& (0+255)
  1590  069A  0084               	movwf	4
  1591  069B  087F               	movf	btemp+1,w
  1592  069C  1383               	bcf	3,7	;select IRP bank0
  1593  069D  0080               	movwf	0
  1594  069E                     l2727:
  1595                           
  1596                           ;master.c: 85:             voltage_int1 /= 10;
  1597  069E  300A               	movlw	10
  1598  069F  00F3               	movwf	___lwdiv@divisor
  1599  06A0  3000               	movlw	0
  1600  06A1  00F4               	movwf	___lwdiv@divisor+1
  1601  06A2  086D               	movf	_voltage_int1+1,w
  1602  06A3  00F6               	movwf	___lwdiv@dividend+1
  1603  06A4  086C               	movf	_voltage_int1,w
  1604  06A5  00F5               	movwf	___lwdiv@dividend
  1605  06A6  120A  158A  24AC  120A  118A  	fcall	___lwdiv
  1606  06AB  0874               	movf	?___lwdiv+1,w
  1607  06AC  1283               	bcf	3,5	;RP0=0, select bank0
  1608  06AD  1303               	bcf	3,6	;RP1=0, select bank0
  1609  06AE  00ED               	movwf	_voltage_int1+1
  1610  06AF  0873               	movf	?___lwdiv,w
  1611  06B0  00EC               	movwf	_voltage_int1
  1612  06B1                     l2729:
  1613                           
  1614                           ;master.c: 86:         }
  1615  06B1  3001               	movlw	1
  1616  06B2  07E8               	addwf	_i,f
  1617  06B3  1803               	skipnc
  1618  06B4  0AE9               	incf	_i+1,f
  1619  06B5  3000               	movlw	0
  1620  06B6  07E9               	addwf	_i+1,f
  1621  06B7                     l2731:
  1622  06B7  0869               	movf	_i+1,w
  1623  06B8  3A80               	xorlw	128
  1624  06B9  00FF               	movwf	btemp+1
  1625  06BA  3080               	movlw	128
  1626  06BB  027F               	subwf	btemp+1,w
  1627  06BC  1D03               	skipz
  1628  06BD  2EC0               	goto	u3685
  1629  06BE  3003               	movlw	3
  1630  06BF  0268               	subwf	_i,w
  1631  06C0                     u3685:
  1632  06C0  1C03               	skipc
  1633  06C1  2EC3               	goto	u3681
  1634  06C2  2EC4               	goto	u3680
  1635  06C3                     u3681:
  1636  06C3  2E85               	goto	l2725
  1637  06C4                     u3680:
  1638  06C4                     l2733:
  1639                           
  1640                           ;master.c: 87:         sprintf(datos, "%i.%i%iV %3i %3i\r\n", digitos[2], digitos[1], di
      +                          gitos[0],contador2,temperatura);
  1641  06C4  300B               	movlw	(low ((STR_1-__stringbase)| (0+32768)))& (0+255)
  1642  06C5  00FF               	movwf	btemp+1
  1643  06C6  087F               	movf	btemp+1,w
  1644  06C7  1283               	bcf	3,5	;RP0=0, select bank0
  1645  06C8  1303               	bcf	3,6	;RP1=0, select bank0
  1646  06C9  00A7               	movwf	sprintf@f
  1647  06CA  0865               	movf	_digitos+2,w
  1648  06CB  1683               	bsf	3,5	;RP0=1, select bank1
  1649  06CC  1303               	bcf	3,6	;RP1=0, select bank1
  1650  06CD  00E5               	movwf	??_main^(0+128)
  1651  06CE  01E6               	clrf	(??_main^(0+128)+1)
  1652  06CF  0865               	movf	??_main^(0+128),w
  1653  06D0  1283               	bcf	3,5	;RP0=0, select bank0
  1654  06D1  1303               	bcf	3,6	;RP1=0, select bank0
  1655  06D2  00A8               	movwf	?_sprintf+1
  1656  06D3  1683               	bsf	3,5	;RP0=1, select bank1
  1657  06D4  1303               	bcf	3,6	;RP1=0, select bank1
  1658  06D5  0866               	movf	(??_main+1)^(0+128),w
  1659  06D6  1283               	bcf	3,5	;RP0=0, select bank0
  1660  06D7  1303               	bcf	3,6	;RP1=0, select bank0
  1661  06D8  00A9               	movwf	?_sprintf+2
  1662  06D9  0864               	movf	_digitos+1,w
  1663  06DA  1683               	bsf	3,5	;RP0=1, select bank1
  1664  06DB  1303               	bcf	3,6	;RP1=0, select bank1
  1665  06DC  00E7               	movwf	(??_main+2)^(0+128)
  1666  06DD  01E8               	clrf	((??_main+2)^(0+128)+1)
  1667  06DE  0867               	movf	(??_main+2)^(0+128),w
  1668  06DF  1283               	bcf	3,5	;RP0=0, select bank0
  1669  06E0  1303               	bcf	3,6	;RP1=0, select bank0
  1670  06E1  00AA               	movwf	?_sprintf+3
  1671  06E2  1683               	bsf	3,5	;RP0=1, select bank1
  1672  06E3  1303               	bcf	3,6	;RP1=0, select bank1
  1673  06E4  0868               	movf	(??_main+3)^(0+128),w
  1674  06E5  1283               	bcf	3,5	;RP0=0, select bank0
  1675  06E6  1303               	bcf	3,6	;RP1=0, select bank0
  1676  06E7  00AB               	movwf	?_sprintf+4
  1677  06E8  0863               	movf	_digitos,w
  1678  06E9  1683               	bsf	3,5	;RP0=1, select bank1
  1679  06EA  1303               	bcf	3,6	;RP1=0, select bank1
  1680  06EB  00E9               	movwf	(??_main+4)^(0+128)
  1681  06EC  01EA               	clrf	((??_main+4)^(0+128)+1)
  1682  06ED  0869               	movf	(??_main+4)^(0+128),w
  1683  06EE  1283               	bcf	3,5	;RP0=0, select bank0
  1684  06EF  1303               	bcf	3,6	;RP1=0, select bank0
  1685  06F0  00AC               	movwf	?_sprintf+5
  1686  06F1  1683               	bsf	3,5	;RP0=1, select bank1
  1687  06F2  1303               	bcf	3,6	;RP1=0, select bank1
  1688  06F3  086A               	movf	(??_main+5)^(0+128),w
  1689  06F4  1283               	bcf	3,5	;RP0=0, select bank0
  1690  06F5  1303               	bcf	3,6	;RP1=0, select bank0
  1691  06F6  00AD               	movwf	?_sprintf+6
  1692  06F7  086B               	movf	_contador2+1,w
  1693  06F8  00AF               	movwf	?_sprintf+8
  1694  06F9  086A               	movf	_contador2,w
  1695  06FA  00AE               	movwf	?_sprintf+7
  1696  06FB  0867               	movf	_temperatura+1,w
  1697  06FC  00B1               	movwf	?_sprintf+10
  1698  06FD  0866               	movf	_temperatura,w
  1699  06FE  00B0               	movwf	?_sprintf+9
  1700  06FF  30B8               	movlw	(low (_datos| 0))& (0+255)
  1701  0700  120A  158A  2678  120A  118A  	fcall	_sprintf
  1702  0705                     l2735:
  1703                           
  1704                           ;master.c: 88:         LCDGoto(0, 0);
  1705  0705  1283               	bcf	3,5	;RP0=0, select bank0
  1706  0706  1303               	bcf	3,6	;RP1=0, select bank0
  1707  0707  01A0               	clrf	LCDGoto@ln
  1708  0708  3000               	movlw	0
  1709  0709  120A  158A  243F  120A  118A  	fcall	_LCDGoto
  1710  070E                     l2737:
  1711                           
  1712                           ;master.c: 89:         LCDStr(" S1    S2    S3 ");
  1713  070E  301E               	movlw	(low ((STR_2-__stringbase)| (0+32768)))& (0+255)
  1714  070F  1283               	bcf	3,5	;RP0=0, select bank0
  1715  0710  1303               	bcf	3,6	;RP1=0, select bank0
  1716  0711  00A0               	movwf	LCDStr@str
  1717  0712  3080               	movlw	128
  1718  0713  00A1               	movwf	LCDStr@str+1
  1719  0714  120A  158A  23E2  120A  118A  	fcall	_LCDStr
  1720                           
  1721                           ;master.c: 90:         LCDGoto(0, 1);
  1722  0719  1283               	bcf	3,5	;RP0=0, select bank0
  1723  071A  1303               	bcf	3,6	;RP1=0, select bank0
  1724  071B  01A0               	clrf	LCDGoto@ln
  1725  071C  0AA0               	incf	LCDGoto@ln,f
  1726  071D  3000               	movlw	0
  1727  071E  120A  158A  243F  120A  118A  	fcall	_LCDGoto
  1728  0723                     l2739:
  1729                           
  1730                           ;master.c: 91:         LCDStr(datos);
  1731  0723  30B8               	movlw	(low (_datos| 0))& (0+255)
  1732  0724  1283               	bcf	3,5	;RP0=0, select bank0
  1733  0725  1303               	bcf	3,6	;RP1=0, select bank0
  1734  0726  00A0               	movwf	LCDStr@str
  1735  0727  3000               	movlw	0
  1736  0728  00A1               	movwf	LCDStr@str+1
  1737  0729  120A  158A  23E2  120A  118A  	fcall	_LCDStr
  1738  072E  2DA8               	goto	l2687
  1739  072F  120A  118A  280E   	ljmp	start
  1740  0732                     __end_of_main:
  1741                           
  1742                           	psect	text1
  1743  0E78                     __ptext1:	
  1744 ;; *************** function _sprintf *****************
  1745 ;; Defined at:
  1746 ;;		line 505 in file "C:\Program Files\Microchip\xc8\v2.20\pic\sources\c90\common\doprnt.c"
  1747 ;; Parameters:    Size  Location     Type
  1748 ;;  sp              1    wreg     PTR unsigned char 
  1749 ;;		 -> datos(20), 
  1750 ;;  f               1    7[BANK0 ] PTR const unsigned char 
  1751 ;;		 -> STR_1(19), 
  1752 ;; Auto vars:     Size  Location     Type
  1753 ;;  sp              1   26[BANK0 ] PTR unsigned char 
  1754 ;;		 -> datos(20), 
  1755 ;;  tmpval          4    0        struct .
  1756 ;;  width           2   27[BANK0 ] int 
  1757 ;;  val             2   24[BANK0 ] unsigned int 
  1758 ;;  cp              2    0        PTR const unsigned char 
  1759 ;;  len             2    0        unsigned int 
  1760 ;;  c               1   29[BANK0 ] unsigned char 
  1761 ;;  flag            1   23[BANK0 ] unsigned char 
  1762 ;;  prec            1   22[BANK0 ] char 
  1763 ;;  ap              1   21[BANK0 ] PTR void [1]
  1764 ;;		 -> ?_sprintf(2), 
  1765 ;; Return value:  Size  Location     Type
  1766 ;;                  2    7[BANK0 ] int 
  1767 ;; Registers used:
  1768 ;;		wreg, fsr0l, fsr0h, status,2, status,0, btemp+1, pclath, cstack
  1769 ;; Tracked objects:
  1770 ;;		On entry : 0/0
  1771 ;;		On exit  : 0/0
  1772 ;;		Unchanged: 0/0
  1773 ;; Data sizes:     COMMON   BANK0   BANK1   BANK3   BANK2
  1774 ;;      Params:         0      11       0       0       0
  1775 ;;      Locals:         0       9       0       0       0
  1776 ;;      Temps:          0       3       0       0       0
  1777 ;;      Totals:         0      23       0       0       0
  1778 ;;Total ram usage:       23 bytes
  1779 ;; Hardware stack levels used:    1
  1780 ;; Hardware stack levels required when called:    2
  1781 ;; This function calls:
  1782 ;;		___lwdiv
  1783 ;;		___lwmod
  1784 ;;		___wmul
  1785 ;;		_isdigit
  1786 ;; This function is called by:
  1787 ;;		_main
  1788 ;; This function uses a non-reentrant model
  1789 ;;
  1790                           
  1791                           
  1792                           ;psect for function _sprintf
  1793  0E78                     _sprintf:
  1794                           
  1795                           ;incstack = 0
  1796                           ; Regs used in _sprintf: [wreg-fsr0h+status,2+status,0+btemp+1+pclath+cstack]
  1797                           ;sprintf@sp stored from wreg
  1798  0E78  1283               	bcf	3,5	;RP0=0, select bank0
  1799  0E79  1303               	bcf	3,6	;RP1=0, select bank0
  1800  0E7A  00BA               	movwf	sprintf@sp
  1801  0E7B                     l2465:
  1802                           
  1803                           ;C:\Program Files\Microchip\xc8\v2.20\pic\sources\c90\common\doprnt.c: 505: sprintf(char
      +                           * sp, const char * f, ...);C:\Program Files\Microchip\xc8\v2.20\pic\sources\c90\common\
      +                          doprnt.c: 506: {;C:\Program Files\Microchip\xc8\v2.20\pic\sources\c90\common\doprnt.c: 5
      +                          07:  va_list ap;;C:\Program Files\Microchip\xc8\v2.20\pic\sources\c90\common\doprnt.c: 5
      +                          12:  char c;;C:\Program Files\Microchip\xc8\v2.20\pic\sources\c90\common\doprnt.c: 514: 
      +                           int width;;C:\Program Files\Microchip\xc8\v2.20\pic\sources\c90\common\doprnt.c: 521:  
      +                          signed char prec;
  1804  0E7B  3028               	movlw	(low ((?_sprintf| 0+1)))& (0+255)
  1805  0E7C  00FF               	movwf	btemp+1
  1806  0E7D  087F               	movf	btemp+1,w
  1807  0E7E  00B5               	movwf	sprintf@ap
  1808                           
  1809                           ;C:\Program Files\Microchip\xc8\v2.20\pic\sources\c90\common\doprnt.c: 553:  while((c = 
      +                          *f++)) {
  1810  0E7F  2FE9               	goto	l2549
  1811  0E80                     l2467:
  1812                           
  1813                           ;C:\Program Files\Microchip\xc8\v2.20\pic\sources\c90\common\doprnt.c: 555:   if(c != '%
      +                          ')
  1814  0E80  3025               	movlw	37
  1815  0E81  063D               	xorwf	sprintf@c,w
  1816  0E82  1903               	btfsc	3,2
  1817  0E83  2E85               	goto	u3231
  1818  0E84  2E86               	goto	u3230
  1819  0E85                     u3231:
  1820  0E85  2E92               	goto	l2473
  1821  0E86                     u3230:
  1822  0E86                     l2469:
  1823                           
  1824                           ;C:\Program Files\Microchip\xc8\v2.20\pic\sources\c90\common\doprnt.c: 557:   {;C:\Progr
      +                          am Files\Microchip\xc8\v2.20\pic\sources\c90\common\doprnt.c: 558:    ((*sp++ = (c)));
  1825  0E86  083D               	movf	sprintf@c,w
  1826  0E87  00FF               	movwf	btemp+1
  1827  0E88  083A               	movf	sprintf@sp,w
  1828  0E89  0084               	movwf	4
  1829  0E8A  087F               	movf	btemp+1,w
  1830  0E8B  1383               	bcf	3,7	;select IRP bank0
  1831  0E8C  0080               	movwf	0
  1832  0E8D                     l2471:
  1833  0E8D  3001               	movlw	1
  1834  0E8E  00FF               	movwf	btemp+1
  1835  0E8F  087F               	movf	btemp+1,w
  1836  0E90  07BA               	addwf	sprintf@sp,f
  1837                           
  1838                           ;C:\Program Files\Microchip\xc8\v2.20\pic\sources\c90\common\doprnt.c: 559:    continue;
  1839  0E91  2FE9               	goto	l2549
  1840  0E92                     l2473:
  1841                           
  1842                           ;C:\Program Files\Microchip\xc8\v2.20\pic\sources\c90\common\doprnt.c: 563:   width = 0;
  1843  0E92  01BB               	clrf	sprintf@width
  1844  0E93  01BC               	clrf	sprintf@width+1
  1845                           
  1846                           ;C:\Program Files\Microchip\xc8\v2.20\pic\sources\c90\common\doprnt.c: 565:   flag = 0;
  1847  0E94  01B7               	clrf	sprintf@flag
  1848  0E95                     l2475:
  1849                           
  1850                           ;C:\Program Files\Microchip\xc8\v2.20\pic\sources\c90\common\doprnt.c: 614:   if(isdigit
      +                          ((unsigned)*f)) {
  1851  0E95  0827               	movf	sprintf@f,w
  1852  0E96  0084               	movwf	4
  1853  0E97  120A  158A  200A  120A  158A  	fcall	stringdir
  1854  0E9C  120A  118A  27EE  120A  158A  	fcall	_isdigit
  1855  0EA1  1C03               	btfss	3,0
  1856  0EA2  2EA4               	goto	u3241
  1857  0EA3  2EA5               	goto	u3240
  1858  0EA4                     u3241:
  1859  0EA4  2EE5               	goto	l2489
  1860  0EA5                     u3240:
  1861  0EA5                     l2477:
  1862                           
  1863                           ;C:\Program Files\Microchip\xc8\v2.20\pic\sources\c90\common\doprnt.c: 615:    width = 0
      +                          ;
  1864  0EA5  1283               	bcf	3,5	;RP0=0, select bank0
  1865  0EA6  1303               	bcf	3,6	;RP1=0, select bank0
  1866  0EA7  01BB               	clrf	sprintf@width
  1867  0EA8  01BC               	clrf	sprintf@width+1
  1868  0EA9                     l2479:
  1869                           
  1870                           ;C:\Program Files\Microchip\xc8\v2.20\pic\sources\c90\common\doprnt.c: 617:     width *=
      +                           10;
  1871  0EA9  300A               	movlw	10
  1872  0EAA  00F3               	movwf	___wmul@multiplier
  1873  0EAB  3000               	movlw	0
  1874  0EAC  00F4               	movwf	___wmul@multiplier+1
  1875  0EAD  1283               	bcf	3,5	;RP0=0, select bank0
  1876  0EAE  1303               	bcf	3,6	;RP1=0, select bank0
  1877  0EAF  083C               	movf	sprintf@width+1,w
  1878  0EB0  00F6               	movwf	___wmul@multiplicand+1
  1879  0EB1  083B               	movf	sprintf@width,w
  1880  0EB2  00F5               	movwf	___wmul@multiplicand
  1881  0EB3  120A  158A  23B7  120A  158A  	fcall	___wmul
  1882  0EB8  0874               	movf	?___wmul+1,w
  1883  0EB9  1283               	bcf	3,5	;RP0=0, select bank0
  1884  0EBA  1303               	bcf	3,6	;RP1=0, select bank0
  1885  0EBB  00BC               	movwf	sprintf@width+1
  1886  0EBC  0873               	movf	?___wmul,w
  1887  0EBD  00BB               	movwf	sprintf@width
  1888  0EBE                     l2481:
  1889                           
  1890                           ;C:\Program Files\Microchip\xc8\v2.20\pic\sources\c90\common\doprnt.c: 618:        width
      +                           += *f++ - '0';
  1891  0EBE  0827               	movf	sprintf@f,w
  1892  0EBF  0084               	movwf	4
  1893  0EC0  120A  158A  200A  120A  158A  	fcall	stringdir
  1894  0EC5  3ED0               	addlw	208
  1895  0EC6  00B2               	movwf	??_sprintf
  1896  0EC7  30FF               	movlw	255
  1897  0EC8  1803               	skipnc
  1898  0EC9  3000               	movlw	0
  1899  0ECA  00B3               	movwf	??_sprintf+1
  1900  0ECB  0832               	movf	??_sprintf,w
  1901  0ECC  07BB               	addwf	sprintf@width,f
  1902  0ECD  1803               	skipnc
  1903  0ECE  0ABC               	incf	sprintf@width+1,f
  1904  0ECF  0833               	movf	??_sprintf+1,w
  1905  0ED0  07BC               	addwf	sprintf@width+1,f
  1906  0ED1                     l2483:
  1907  0ED1  3001               	movlw	1
  1908  0ED2  00FF               	movwf	btemp+1
  1909  0ED3  087F               	movf	btemp+1,w
  1910  0ED4  07A7               	addwf	sprintf@f,f
  1911  0ED5                     l2485:
  1912                           
  1913                           ;C:\Program Files\Microchip\xc8\v2.20\pic\sources\c90\common\doprnt.c: 619:    } while(i
      +                          sdigit((unsigned)*f));
  1914  0ED5  0827               	movf	sprintf@f,w
  1915  0ED6  0084               	movwf	4
  1916  0ED7  120A  158A  200A  120A  158A  	fcall	stringdir
  1917  0EDC  120A  118A  27EE  120A  158A  	fcall	_isdigit
  1918  0EE1  1803               	btfsc	3,0
  1919  0EE2  2EE4               	goto	u3251
  1920  0EE3  2EE5               	goto	u3250
  1921  0EE4                     u3251:
  1922  0EE4  2EA9               	goto	l2479
  1923  0EE5                     u3250:
  1924  0EE5                     l2489:
  1925  0EE5  3001               	movlw	1
  1926  0EE6  1283               	bcf	3,5	;RP0=0, select bank0
  1927  0EE7  1303               	bcf	3,6	;RP1=0, select bank0
  1928  0EE8  07A7               	addwf	sprintf@f,f
  1929  0EE9  30FF               	movlw	-1
  1930  0EEA  0727               	addwf	sprintf@f,w
  1931  0EEB  0084               	movwf	4
  1932  0EEC  120A  158A  200A  120A  158A  	fcall	stringdir
  1933  0EF1  00BD               	movwf	sprintf@c
  1934  0EF2  00B2               	movwf	??_sprintf
  1935  0EF3  01B3               	clrf	??_sprintf+1
  1936                           
  1937                           ; Switch on 2 bytes has been partitioned into a top level switch of size 1, and 1 sub-sw
      +                          itches
  1938                           ; Switch size 1, requested type "simple"
  1939                           ; Number of cases is 1, Range of values is 0 to 0
  1940                           ; switch strategies available:
  1941                           ; Name         Instructions Cycles
  1942                           ; simple_byte            4     3 (average)
  1943                           ; direct_byte           11     8 (fixed)
  1944                           ; jumptable            260     6 (fixed)
  1945                           ;	Chosen strategy is simple_byte
  1946  0EF4  0833               	movf	??_sprintf+1,w
  1947  0EF5  3A00               	xorlw	0	; case 0
  1948  0EF6  1903               	skipnz
  1949  0EF7  2EF9               	goto	l2761
  1950  0EF8  2FE9               	goto	l2549
  1951  0EF9                     l2761:
  1952                           
  1953                           ; Switch size 1, requested type "simple"
  1954                           ; Number of cases is 3, Range of values is 0 to 105
  1955                           ; switch strategies available:
  1956                           ; Name         Instructions Cycles
  1957                           ; simple_byte           10     6 (average)
  1958                           ; jumptable            260     6 (fixed)
  1959                           ;	Chosen strategy is simple_byte
  1960  0EF9  0832               	movf	??_sprintf,w
  1961  0EFA  3A00               	xorlw	0	; case 0
  1962  0EFB  1903               	skipnz
  1963  0EFC  2FFB               	goto	l2551
  1964  0EFD  3A64               	xorlw	100	; case 100
  1965  0EFE  1903               	skipnz
  1966  0EFF  2F04               	goto	l2491
  1967  0F00  3A0D               	xorlw	13	; case 105
  1968  0F01  1903               	skipnz
  1969  0F02  2F04               	goto	l2491
  1970  0F03  2FE9               	goto	l2549
  1971  0F04                     l2491:
  1972                           
  1973                           ;C:\Program Files\Microchip\xc8\v2.20\pic\sources\c90\common\doprnt.c: 1279:   {;C:\Prog
      +                          ram Files\Microchip\xc8\v2.20\pic\sources\c90\common\doprnt.c: 1285:     val = (unsigned
      +                           int)(*(int *)__va_arg((*(int **)ap), (int)0));
  1974  0F04  0835               	movf	sprintf@ap,w
  1975  0F05  0084               	movwf	4
  1976  0F06  1383               	bcf	3,7	;select IRP bank0
  1977  0F07  0800               	movf	0,w
  1978  0F08  00B8               	movwf	sprintf@val
  1979  0F09  0A84               	incf	4,f
  1980  0F0A  0800               	movf	0,w
  1981  0F0B  00B9               	movwf	sprintf@val+1
  1982  0F0C                     l2493:
  1983  0F0C  3002               	movlw	2
  1984  0F0D  00FF               	movwf	btemp+1
  1985  0F0E  087F               	movf	btemp+1,w
  1986  0F0F  07B5               	addwf	sprintf@ap,f
  1987  0F10                     l2495:
  1988                           
  1989                           ;C:\Program Files\Microchip\xc8\v2.20\pic\sources\c90\common\doprnt.c: 1287:    if((int)
      +                          val < 0) {
  1990  0F10  1FB9               	btfss	sprintf@val+1,7
  1991  0F11  2F13               	goto	u3261
  1992  0F12  2F14               	goto	u3260
  1993  0F13                     u3261:
  1994  0F13  2F1D               	goto	l2501
  1995  0F14                     u3260:
  1996  0F14                     l2497:
  1997                           
  1998                           ;C:\Program Files\Microchip\xc8\v2.20\pic\sources\c90\common\doprnt.c: 1288:     flag |=
      +                           0x03;
  1999  0F14  3003               	movlw	3
  2000  0F15  00FF               	movwf	btemp+1
  2001  0F16  087F               	movf	btemp+1,w
  2002  0F17  04B7               	iorwf	sprintf@flag,f
  2003  0F18                     l2499:
  2004                           
  2005                           ;C:\Program Files\Microchip\xc8\v2.20\pic\sources\c90\common\doprnt.c: 1289:     val = -
      +                          val;
  2006  0F18  09B8               	comf	sprintf@val,f
  2007  0F19  09B9               	comf	sprintf@val+1,f
  2008  0F1A  0AB8               	incf	sprintf@val,f
  2009  0F1B  1903               	skipnz
  2010  0F1C  0AB9               	incf	sprintf@val+1,f
  2011  0F1D                     l2501:
  2012                           
  2013                           ;C:\Program Files\Microchip\xc8\v2.20\pic\sources\c90\common\doprnt.c: 1292:   };C:\Prog
      +                          ram Files\Microchip\xc8\v2.20\pic\sources\c90\common\doprnt.c: 1331:    for(c = 1 ; c !=
      +                           sizeof dpowers/sizeof dpowers[0] ; c++)
  2014  0F1D  01BD               	clrf	sprintf@c
  2015  0F1E  0ABD               	incf	sprintf@c,f
  2016  0F1F                     l2507:
  2017                           
  2018                           ;C:\Program Files\Microchip\xc8\v2.20\pic\sources\c90\common\doprnt.c: 1332:     if(val 
      +                          < dpowers[c])
  2019  0F1F  083D               	movf	sprintf@c,w
  2020  0F20  00B2               	movwf	??_sprintf
  2021  0F21  0732               	addwf	??_sprintf,w
  2022  0F22  3E01               	addlw	low ((_dpowers-__stringbase)| (0+32768))
  2023  0F23  0084               	movwf	4
  2024  0F24  120A  158A  200A  120A  158A  	fcall	stringdir
  2025  0F29  00B3               	movwf	??_sprintf+1
  2026  0F2A  120A  158A  200A  120A  158A  	fcall	stringdir
  2027  0F2F  00B4               	movwf	??_sprintf+2
  2028  0F30  0834               	movf	??_sprintf+2,w
  2029  0F31  0239               	subwf	sprintf@val+1,w
  2030  0F32  1D03               	skipz
  2031  0F33  2F36               	goto	u3275
  2032  0F34  0833               	movf	??_sprintf+1,w
  2033  0F35  0238               	subwf	sprintf@val,w
  2034  0F36                     u3275:
  2035  0F36  1803               	skipnc
  2036  0F37  2F39               	goto	u3271
  2037  0F38  2F3A               	goto	u3270
  2038  0F39                     u3271:
  2039  0F39  2F3B               	goto	l2511
  2040  0F3A                     u3270:
  2041  0F3A  2F45               	goto	l2515
  2042  0F3B                     l2511:
  2043  0F3B  3001               	movlw	1
  2044  0F3C  00FF               	movwf	btemp+1
  2045  0F3D  087F               	movf	btemp+1,w
  2046  0F3E  07BD               	addwf	sprintf@c,f
  2047  0F3F                     l2513:
  2048  0F3F  3005               	movlw	5
  2049  0F40  063D               	xorwf	sprintf@c,w
  2050  0F41  1D03               	btfss	3,2
  2051  0F42  2F44               	goto	u3281
  2052  0F43  2F45               	goto	u3280
  2053  0F44                     u3281:
  2054  0F44  2F1F               	goto	l2507
  2055  0F45                     u3280:
  2056  0F45                     l2515:
  2057                           
  2058                           ;C:\Program Files\Microchip\xc8\v2.20\pic\sources\c90\common\doprnt.c: 1371:   if(width 
      +                          && flag & 0x03)
  2059  0F45  083B               	movf	sprintf@width,w
  2060  0F46  043C               	iorwf	sprintf@width+1,w
  2061  0F47  1903               	btfsc	3,2
  2062  0F48  2F4A               	goto	u3291
  2063  0F49  2F4B               	goto	u3290
  2064  0F4A                     u3291:
  2065  0F4A  2F57               	goto	l273
  2066  0F4B                     u3290:
  2067  0F4B                     l2517:
  2068  0F4B  0837               	movf	sprintf@flag,w
  2069  0F4C  3903               	andlw	3
  2070  0F4D  1903               	btfsc	3,2
  2071  0F4E  2F50               	goto	u3301
  2072  0F4F  2F51               	goto	u3300
  2073  0F50                     u3301:
  2074  0F50  2F57               	goto	l273
  2075  0F51                     u3300:
  2076  0F51                     l2519:
  2077                           
  2078                           ;C:\Program Files\Microchip\xc8\v2.20\pic\sources\c90\common\doprnt.c: 1372:    width--;
  2079  0F51  30FF               	movlw	255
  2080  0F52  07BB               	addwf	sprintf@width,f
  2081  0F53  1803               	skipnc
  2082  0F54  0ABC               	incf	sprintf@width+1,f
  2083  0F55  30FF               	movlw	255
  2084  0F56  07BC               	addwf	sprintf@width+1,f
  2085  0F57                     l273:
  2086                           
  2087                           ;C:\Program Files\Microchip\xc8\v2.20\pic\sources\c90\common\doprnt.c: 1407:   if(width 
      +                          > c)
  2088  0F57  083C               	movf	sprintf@width+1,w
  2089  0F58  3A80               	xorlw	128
  2090  0F59  3C80               	sublw	128
  2091  0F5A  1D03               	skipz
  2092  0F5B  2F5E               	goto	u3315
  2093  0F5C  083B               	movf	sprintf@width,w
  2094  0F5D  023D               	subwf	sprintf@c,w
  2095  0F5E                     u3315:
  2096  0F5E  1803               	skipnc
  2097  0F5F  2F61               	goto	u3311
  2098  0F60  2F62               	goto	u3310
  2099  0F61                     u3311:
  2100  0F61  2F6E               	goto	l2523
  2101  0F62                     u3310:
  2102  0F62                     l2521:
  2103                           
  2104                           ;C:\Program Files\Microchip\xc8\v2.20\pic\sources\c90\common\doprnt.c: 1408:    width -=
      +                           c;
  2105  0F62  1283               	bcf	3,5	;RP0=0, select bank0
  2106  0F63  1303               	bcf	3,6	;RP1=0, select bank0
  2107  0F64  083D               	movf	sprintf@c,w
  2108  0F65  00B2               	movwf	??_sprintf
  2109  0F66  01B3               	clrf	??_sprintf+1
  2110  0F67  0832               	movf	??_sprintf,w
  2111  0F68  02BB               	subwf	sprintf@width,f
  2112  0F69  0833               	movf	??_sprintf+1,w
  2113  0F6A  1C03               	skipc
  2114  0F6B  03BC               	decf	sprintf@width+1,f
  2115  0F6C  02BC               	subwf	sprintf@width+1,f
  2116  0F6D  2F72               	goto	l2525
  2117  0F6E                     l2523:
  2118                           
  2119                           ;C:\Program Files\Microchip\xc8\v2.20\pic\sources\c90\common\doprnt.c: 1410:    width = 
      +                          0;
  2120  0F6E  1283               	bcf	3,5	;RP0=0, select bank0
  2121  0F6F  1303               	bcf	3,6	;RP1=0, select bank0
  2122  0F70  01BB               	clrf	sprintf@width
  2123  0F71  01BC               	clrf	sprintf@width+1
  2124  0F72                     l2525:
  2125                           
  2126                           ;C:\Program Files\Microchip\xc8\v2.20\pic\sources\c90\common\doprnt.c: 1448:   {;C:\Prog
      +                          ram Files\Microchip\xc8\v2.20\pic\sources\c90\common\doprnt.c: 1450:    if(width
  2127  0F72  083B               	movf	sprintf@width,w
  2128  0F73  043C               	iorwf	sprintf@width+1,w
  2129  0F74  1903               	btfsc	3,2
  2130  0F75  2F77               	goto	u3321
  2131  0F76  2F78               	goto	u3320
  2132  0F77                     u3321:
  2133  0F77  2F8F               	goto	l2533
  2134  0F78                     u3320:
  2135  0F78                     l2527:
  2136                           
  2137                           ;C:\Program Files\Microchip\xc8\v2.20\pic\sources\c90\common\doprnt.c: 1456:      ((*sp+
      +                          + = (' ')));
  2138  0F78  3020               	movlw	32
  2139  0F79  00FF               	movwf	btemp+1
  2140  0F7A  083A               	movf	sprintf@sp,w
  2141  0F7B  0084               	movwf	4
  2142  0F7C  087F               	movf	btemp+1,w
  2143  0F7D  1383               	bcf	3,7	;select IRP bank0
  2144  0F7E  0080               	movwf	0
  2145  0F7F                     l2529:
  2146  0F7F  3001               	movlw	1
  2147  0F80  00FF               	movwf	btemp+1
  2148  0F81  087F               	movf	btemp+1,w
  2149  0F82  07BA               	addwf	sprintf@sp,f
  2150  0F83                     l2531:
  2151  0F83  30FF               	movlw	255
  2152  0F84  07BB               	addwf	sprintf@width,f
  2153  0F85  1803               	skipnc
  2154  0F86  0ABC               	incf	sprintf@width+1,f
  2155  0F87  30FF               	movlw	255
  2156  0F88  07BC               	addwf	sprintf@width+1,f
  2157  0F89  083B               	movf	sprintf@width,w
  2158  0F8A  043C               	iorwf	sprintf@width+1,w
  2159  0F8B  1D03               	btfss	3,2
  2160  0F8C  2F8E               	goto	u3331
  2161  0F8D  2F8F               	goto	u3330
  2162  0F8E                     u3331:
  2163  0F8E  2F78               	goto	l2527
  2164  0F8F                     u3330:
  2165  0F8F                     l2533:
  2166                           
  2167                           ;C:\Program Files\Microchip\xc8\v2.20\pic\sources\c90\common\doprnt.c: 1464:    if(flag 
      +                          & 0x03)
  2168  0F8F  0837               	movf	sprintf@flag,w
  2169  0F90  3903               	andlw	3
  2170  0F91  1903               	btfsc	3,2
  2171  0F92  2F94               	goto	u3341
  2172  0F93  2F95               	goto	u3340
  2173  0F94                     u3341:
  2174  0F94  2FA0               	goto	l2539
  2175  0F95                     u3340:
  2176  0F95                     l2535:
  2177                           
  2178                           ;C:\Program Files\Microchip\xc8\v2.20\pic\sources\c90\common\doprnt.c: 1465:     ((*sp++
      +                           = ('-')));
  2179  0F95  302D               	movlw	45
  2180  0F96  00FF               	movwf	btemp+1
  2181  0F97  083A               	movf	sprintf@sp,w
  2182  0F98  0084               	movwf	4
  2183  0F99  087F               	movf	btemp+1,w
  2184  0F9A  1383               	bcf	3,7	;select IRP bank0
  2185  0F9B  0080               	movwf	0
  2186  0F9C                     l2537:
  2187  0F9C  3001               	movlw	1
  2188  0F9D  00FF               	movwf	btemp+1
  2189  0F9E  087F               	movf	btemp+1,w
  2190  0F9F  07BA               	addwf	sprintf@sp,f
  2191  0FA0                     l2539:
  2192                           
  2193                           ;C:\Program Files\Microchip\xc8\v2.20\pic\sources\c90\common\doprnt.c: 1495:   };C:\Prog
      +                          ram Files\Microchip\xc8\v2.20\pic\sources\c90\common\doprnt.c: 1498:   prec = c;
  2194  0FA0  083D               	movf	sprintf@c,w
  2195  0FA1  00FF               	movwf	btemp+1
  2196  0FA2  087F               	movf	btemp+1,w
  2197  0FA3  00B6               	movwf	sprintf@prec
  2198                           
  2199                           ;C:\Program Files\Microchip\xc8\v2.20\pic\sources\c90\common\doprnt.c: 1500:   while(pre
      +                          c--) {
  2200  0FA4  2FE0               	goto	l2547
  2201  0FA5                     l2541:
  2202                           
  2203                           ;C:\Program Files\Microchip\xc8\v2.20\pic\sources\c90\common\doprnt.c: 1504:    {;C:\Pro
      +                          gram Files\Microchip\xc8\v2.20\pic\sources\c90\common\doprnt.c: 1515:     c = (val / dpo
      +                          wers[(unsigned char)prec]) % 10 + '0';
  2204  0FA5  300A               	movlw	10
  2205  0FA6  00A3               	movwf	___lwmod@divisor
  2206  0FA7  3000               	movlw	0
  2207  0FA8  00A4               	movwf	___lwmod@divisor+1
  2208  0FA9  0836               	movf	sprintf@prec,w
  2209  0FAA  00B2               	movwf	??_sprintf
  2210  0FAB  0732               	addwf	??_sprintf,w
  2211  0FAC  3E01               	addlw	low ((_dpowers-__stringbase)| (0+32768))
  2212  0FAD  0084               	movwf	4
  2213  0FAE  120A  158A  200A  120A  158A  	fcall	stringdir
  2214  0FB3  00F3               	movwf	___lwdiv@divisor
  2215  0FB4  120A  158A  200A  120A  158A  	fcall	stringdir
  2216  0FB9  00F4               	movwf	___lwdiv@divisor+1
  2217  0FBA  0839               	movf	sprintf@val+1,w
  2218  0FBB  00F6               	movwf	___lwdiv@dividend+1
  2219  0FBC  0838               	movf	sprintf@val,w
  2220  0FBD  00F5               	movwf	___lwdiv@dividend
  2221  0FBE  120A  158A  24AC  120A  158A  	fcall	___lwdiv
  2222  0FC3  0874               	movf	?___lwdiv+1,w
  2223  0FC4  1283               	bcf	3,5	;RP0=0, select bank0
  2224  0FC5  1303               	bcf	3,6	;RP1=0, select bank0
  2225  0FC6  00A6               	movwf	___lwmod@dividend+1
  2226  0FC7  0873               	movf	?___lwdiv,w
  2227  0FC8  00A5               	movwf	___lwmod@dividend
  2228  0FC9  120A  158A  2470  120A  158A  	fcall	___lwmod
  2229  0FCE  1283               	bcf	3,5	;RP0=0, select bank0
  2230  0FCF  1303               	bcf	3,6	;RP1=0, select bank0
  2231  0FD0  0823               	movf	?___lwmod,w
  2232  0FD1  3E30               	addlw	48
  2233  0FD2  00FF               	movwf	btemp+1
  2234  0FD3  087F               	movf	btemp+1,w
  2235  0FD4  00BD               	movwf	sprintf@c
  2236  0FD5                     l2543:
  2237                           
  2238                           ;C:\Program Files\Microchip\xc8\v2.20\pic\sources\c90\common\doprnt.c: 1549:    };C:\Pro
      +                          gram Files\Microchip\xc8\v2.20\pic\sources\c90\common\doprnt.c: 1550:    ((*sp++ = (c)))
      +                          ;
  2239  0FD5  083D               	movf	sprintf@c,w
  2240  0FD6  00FF               	movwf	btemp+1
  2241  0FD7  083A               	movf	sprintf@sp,w
  2242  0FD8  0084               	movwf	4
  2243  0FD9  087F               	movf	btemp+1,w
  2244  0FDA  1383               	bcf	3,7	;select IRP bank0
  2245  0FDB  0080               	movwf	0
  2246  0FDC                     l2545:
  2247  0FDC  3001               	movlw	1
  2248  0FDD  00FF               	movwf	btemp+1
  2249  0FDE  087F               	movf	btemp+1,w
  2250  0FDF  07BA               	addwf	sprintf@sp,f
  2251  0FE0                     l2547:
  2252                           
  2253                           ;C:\Program Files\Microchip\xc8\v2.20\pic\sources\c90\common\doprnt.c: 1500:   while(pre
      +                          c--) {
  2254  0FE0  30FF               	movlw	255
  2255  0FE1  00FF               	movwf	btemp+1
  2256  0FE2  087F               	movf	btemp+1,w
  2257  0FE3  07B6               	addwf	sprintf@prec,f
  2258  0FE4  0A36               	incf	sprintf@prec,w
  2259  0FE5  1D03               	btfss	3,2
  2260  0FE6  2FE8               	goto	u3351
  2261  0FE7  2FE9               	goto	u3350
  2262  0FE8                     u3351:
  2263  0FE8  2FA5               	goto	l2541
  2264  0FE9                     u3350:
  2265  0FE9                     l2549:
  2266                           
  2267                           ;C:\Program Files\Microchip\xc8\v2.20\pic\sources\c90\common\doprnt.c: 553:  while((c = 
      +                          *f++)) {
  2268  0FE9  3001               	movlw	1
  2269  0FEA  07A7               	addwf	sprintf@f,f
  2270  0FEB  30FF               	movlw	-1
  2271  0FEC  0727               	addwf	sprintf@f,w
  2272  0FED  0084               	movwf	4
  2273  0FEE  120A  158A  200A  120A  158A  	fcall	stringdir
  2274  0FF3  00FF               	movwf	btemp+1
  2275  0FF4  087F               	movf	btemp+1,w
  2276  0FF5  00BD               	movwf	sprintf@c
  2277  0FF6  083D               	movf	sprintf@c,w
  2278  0FF7  1D03               	btfss	3,2
  2279  0FF8  2FFA               	goto	u3361
  2280  0FF9  2FFB               	goto	u3360
  2281  0FFA                     u3361:
  2282  0FFA  2E80               	goto	l2467
  2283  0FFB                     u3360:
  2284  0FFB                     l2551:
  2285                           
  2286                           ;C:\Program Files\Microchip\xc8\v2.20\pic\sources\c90\common\doprnt.c: 1564:  *sp = 0;
  2287  0FFB  083A               	movf	sprintf@sp,w
  2288  0FFC  0084               	movwf	4
  2289  0FFD  1383               	bcf	3,7	;select IRP bank0
  2290  0FFE  0180               	clrf	0
  2291  0FFF                     l284:
  2292  0FFF  0008               	return
  2293  1000                     __end_of_sprintf:
  2294                           
  2295                           	psect	text2
  2296  07EE                     __ptext2:	
  2297 ;; *************** function _isdigit *****************
  2298 ;; Defined at:
  2299 ;;		line 8 in file "C:\Program Files\Microchip\xc8\v2.20\pic\sources\c90\common\isdigit.c"
  2300 ;; Parameters:    Size  Location     Type
  2301 ;;  c               1    wreg     unsigned char 
  2302 ;; Auto vars:     Size  Location     Type
  2303 ;;  c               1    4[COMMON] unsigned char 
  2304 ;; Return value:  Size  Location     Type
  2305 ;;		None               void
  2306 ;; Registers used:
  2307 ;;		wreg, status,2, status,0
  2308 ;; Tracked objects:
  2309 ;;		On entry : 0/0
  2310 ;;		On exit  : 0/0
  2311 ;;		Unchanged: 0/0
  2312 ;; Data sizes:     COMMON   BANK0   BANK1   BANK3   BANK2
  2313 ;;      Params:         0       0       0       0       0
  2314 ;;      Locals:         2       0       0       0       0
  2315 ;;      Temps:          0       0       0       0       0
  2316 ;;      Totals:         2       0       0       0       0
  2317 ;;Total ram usage:        2 bytes
  2318 ;; Hardware stack levels used:    1
  2319 ;; Hardware stack levels required when called:    1
  2320 ;; This function calls:
  2321 ;;		Nothing
  2322 ;; This function is called by:
  2323 ;;		_sprintf
  2324 ;; This function uses a non-reentrant model
  2325 ;;
  2326                           
  2327                           
  2328                           ;psect for function _isdigit
  2329  07EE                     _isdigit:
  2330                           
  2331                           ;incstack = 0
  2332                           ; Regs used in _isdigit: [wreg+status,2+status,0]
  2333                           ;isdigit@c stored from wreg
  2334  07EE  00F4               	movwf	isdigit@c
  2335  07EF                     l1589:
  2336  07EF  01F3               	clrf	_isdigit$907
  2337  07F0                     l1591:
  2338  07F0  303A               	movlw	58
  2339  07F1  0274               	subwf	isdigit@c,w
  2340  07F2  1803               	skipnc
  2341  07F3  2FF5               	goto	u1501
  2342  07F4  2FF6               	goto	u1500
  2343  07F5                     u1501:
  2344  07F5  2FFE               	goto	l1597
  2345  07F6                     u1500:
  2346  07F6                     l1593:
  2347  07F6  3030               	movlw	48
  2348  07F7  0274               	subwf	isdigit@c,w
  2349  07F8  1C03               	skipc
  2350  07F9  2FFB               	goto	u1511
  2351  07FA  2FFC               	goto	u1510
  2352  07FB                     u1511:
  2353  07FB  2FFE               	goto	l1597
  2354  07FC                     u1510:
  2355  07FC                     l1595:
  2356  07FC  01F3               	clrf	_isdigit$907
  2357  07FD  0AF3               	incf	_isdigit$907,f
  2358  07FE                     l1597:
  2359  07FE  0C73               	rrf	_isdigit$907,w
  2360  07FF                     l741:
  2361  07FF  0008               	return
  2362  0800                     __end_of_isdigit:
  2363                           
  2364                           	psect	text3
  2365  0BB7                     __ptext3:	
  2366 ;; *************** function ___wmul *****************
  2367 ;; Defined at:
  2368 ;;		line 15 in file "C:\Program Files\Microchip\xc8\v2.20\pic\sources\c90\common\Umul16.c"
  2369 ;; Parameters:    Size  Location     Type
  2370 ;;  multiplier      2    3[COMMON] unsigned int 
  2371 ;;  multiplicand    2    5[COMMON] unsigned int 
  2372 ;; Auto vars:     Size  Location     Type
  2373 ;;  product         2    0[BANK0 ] unsigned int 
  2374 ;; Return value:  Size  Location     Type
  2375 ;;                  2    3[COMMON] unsigned int 
  2376 ;; Registers used:
  2377 ;;		wreg, status,2, status,0
  2378 ;; Tracked objects:
  2379 ;;		On entry : 0/0
  2380 ;;		On exit  : 0/0
  2381 ;;		Unchanged: 0/0
  2382 ;; Data sizes:     COMMON   BANK0   BANK1   BANK3   BANK2
  2383 ;;      Params:         4       0       0       0       0
  2384 ;;      Locals:         0       2       0       0       0
  2385 ;;      Temps:          0       0       0       0       0
  2386 ;;      Totals:         4       2       0       0       0
  2387 ;;Total ram usage:        6 bytes
  2388 ;; Hardware stack levels used:    1
  2389 ;; Hardware stack levels required when called:    1
  2390 ;; This function calls:
  2391 ;;		Nothing
  2392 ;; This function is called by:
  2393 ;;		_sprintf
  2394 ;; This function uses a non-reentrant model
  2395 ;;
  2396                           
  2397                           
  2398                           ;psect for function ___wmul
  2399  0BB7                     ___wmul:
  2400  0BB7                     l2361:	
  2401                           ;incstack = 0
  2402                           ; Regs used in ___wmul: [wreg+status,2+status,0]
  2403                           
  2404  0BB7  1283               	bcf	3,5	;RP0=0, select bank0
  2405  0BB8  1303               	bcf	3,6	;RP1=0, select bank0
  2406  0BB9  01A0               	clrf	___wmul@product
  2407  0BBA  01A1               	clrf	___wmul@product+1
  2408  0BBB                     l2363:
  2409  0BBB  1C73               	btfss	___wmul@multiplier,0
  2410  0BBC  2BBE               	goto	u2991
  2411  0BBD  2BBF               	goto	u2990
  2412  0BBE                     u2991:
  2413  0BBE  2BC7               	goto	l288
  2414  0BBF                     u2990:
  2415  0BBF                     l2365:
  2416  0BBF  0875               	movf	___wmul@multiplicand,w
  2417  0BC0  1283               	bcf	3,5	;RP0=0, select bank0
  2418  0BC1  1303               	bcf	3,6	;RP1=0, select bank0
  2419  0BC2  07A0               	addwf	___wmul@product,f
  2420  0BC3  1803               	skipnc
  2421  0BC4  0AA1               	incf	___wmul@product+1,f
  2422  0BC5  0876               	movf	___wmul@multiplicand+1,w
  2423  0BC6  07A1               	addwf	___wmul@product+1,f
  2424  0BC7                     l288:
  2425  0BC7  3001               	movlw	1
  2426  0BC8                     u3005:
  2427  0BC8  1003               	clrc
  2428  0BC9  0DF5               	rlf	___wmul@multiplicand,f
  2429  0BCA  0DF6               	rlf	___wmul@multiplicand+1,f
  2430  0BCB  3EFF               	addlw	-1
  2431  0BCC  1D03               	skipz
  2432  0BCD  2BC8               	goto	u3005
  2433  0BCE                     l2367:
  2434  0BCE  3001               	movlw	1
  2435  0BCF                     u3015:
  2436  0BCF  1003               	clrc
  2437  0BD0  0CF4               	rrf	___wmul@multiplier+1,f
  2438  0BD1  0CF3               	rrf	___wmul@multiplier,f
  2439  0BD2  3EFF               	addlw	-1
  2440  0BD3  1D03               	skipz
  2441  0BD4  2BCF               	goto	u3015
  2442  0BD5                     l2369:
  2443  0BD5  0873               	movf	___wmul@multiplier,w
  2444  0BD6  0474               	iorwf	___wmul@multiplier+1,w
  2445  0BD7  1D03               	btfss	3,2
  2446  0BD8  2BDA               	goto	u3021
  2447  0BD9  2BDB               	goto	u3020
  2448  0BDA                     u3021:
  2449  0BDA  2BBB               	goto	l2363
  2450  0BDB                     u3020:
  2451  0BDB                     l2371:
  2452  0BDB  1283               	bcf	3,5	;RP0=0, select bank0
  2453  0BDC  1303               	bcf	3,6	;RP1=0, select bank0
  2454  0BDD  0821               	movf	___wmul@product+1,w
  2455  0BDE  00F4               	movwf	?___wmul+1
  2456  0BDF  0820               	movf	___wmul@product,w
  2457  0BE0  00F3               	movwf	?___wmul
  2458  0BE1                     l290:
  2459  0BE1  0008               	return
  2460  0BE2                     __end_of___wmul:
  2461                           
  2462                           	psect	text4
  2463  0C70                     __ptext4:	
  2464 ;; *************** function ___lwmod *****************
  2465 ;; Defined at:
  2466 ;;		line 5 in file "C:\Program Files\Microchip\xc8\v2.20\pic\sources\c90\common\lwmod.c"
  2467 ;; Parameters:    Size  Location     Type
  2468 ;;  divisor         2    3[BANK0 ] unsigned int 
  2469 ;;  dividend        2    5[BANK0 ] unsigned int 
  2470 ;; Auto vars:     Size  Location     Type
  2471 ;;  counter         1    7[COMMON] unsigned char 
  2472 ;; Return value:  Size  Location     Type
  2473 ;;                  2    3[BANK0 ] unsigned int 
  2474 ;; Registers used:
  2475 ;;		wreg, status,2, status,0, btemp+1
  2476 ;; Tracked objects:
  2477 ;;		On entry : 0/0
  2478 ;;		On exit  : 0/0
  2479 ;;		Unchanged: 0/0
  2480 ;; Data sizes:     COMMON   BANK0   BANK1   BANK3   BANK2
  2481 ;;      Params:         0       4       0       0       0
  2482 ;;      Locals:         1       0       0       0       0
  2483 ;;      Temps:          0       0       0       0       0
  2484 ;;      Totals:         1       4       0       0       0
  2485 ;;Total ram usage:        5 bytes
  2486 ;; Hardware stack levels used:    1
  2487 ;; Hardware stack levels required when called:    1
  2488 ;; This function calls:
  2489 ;;		Nothing
  2490 ;; This function is called by:
  2491 ;;		_main
  2492 ;;		_sprintf
  2493 ;; This function uses a non-reentrant model
  2494 ;;
  2495                           
  2496                           
  2497                           ;psect for function ___lwmod
  2498  0C70                     ___lwmod:
  2499  0C70                     l1683:	
  2500                           ;incstack = 0
  2501                           ; Regs used in ___lwmod: [wreg+status,2+status,0+btemp+1]
  2502                           
  2503  0C70  1283               	bcf	3,5	;RP0=0, select bank0
  2504  0C71  1303               	bcf	3,6	;RP1=0, select bank0
  2505  0C72  0823               	movf	___lwmod@divisor,w
  2506  0C73  0424               	iorwf	___lwmod@divisor+1,w
  2507  0C74  1903               	btfsc	3,2
  2508  0C75  2C77               	goto	u1731
  2509  0C76  2C78               	goto	u1730
  2510  0C77                     u1731:
  2511  0C77  2CA7               	goto	l1701
  2512  0C78                     u1730:
  2513  0C78                     l1685:
  2514  0C78  01F7               	clrf	___lwmod@counter
  2515  0C79  0AF7               	incf	___lwmod@counter,f
  2516  0C7A  2C86               	goto	l1691
  2517  0C7B                     l1687:
  2518  0C7B  3001               	movlw	1
  2519  0C7C                     u1745:
  2520  0C7C  1003               	clrc
  2521  0C7D  0DA3               	rlf	___lwmod@divisor,f
  2522  0C7E  0DA4               	rlf	___lwmod@divisor+1,f
  2523  0C7F  3EFF               	addlw	-1
  2524  0C80  1D03               	skipz
  2525  0C81  2C7C               	goto	u1745
  2526  0C82                     l1689:
  2527  0C82  3001               	movlw	1
  2528  0C83  00FF               	movwf	btemp+1
  2529  0C84  087F               	movf	btemp+1,w
  2530  0C85  07F7               	addwf	___lwmod@counter,f
  2531  0C86                     l1691:
  2532  0C86  1FA4               	btfss	___lwmod@divisor+1,7
  2533  0C87  2C89               	goto	u1751
  2534  0C88  2C8A               	goto	u1750
  2535  0C89                     u1751:
  2536  0C89  2C7B               	goto	l1687
  2537  0C8A                     u1750:
  2538  0C8A                     l1693:
  2539  0C8A  0824               	movf	___lwmod@divisor+1,w
  2540  0C8B  0226               	subwf	___lwmod@dividend+1,w
  2541  0C8C  1D03               	skipz
  2542  0C8D  2C90               	goto	u1765
  2543  0C8E  0823               	movf	___lwmod@divisor,w
  2544  0C8F  0225               	subwf	___lwmod@dividend,w
  2545  0C90                     u1765:
  2546  0C90  1C03               	skipc
  2547  0C91  2C93               	goto	u1761
  2548  0C92  2C94               	goto	u1760
  2549  0C93                     u1761:
  2550  0C93  2C9A               	goto	l1697
  2551  0C94                     u1760:
  2552  0C94                     l1695:
  2553  0C94  0823               	movf	___lwmod@divisor,w
  2554  0C95  02A5               	subwf	___lwmod@dividend,f
  2555  0C96  0824               	movf	___lwmod@divisor+1,w
  2556  0C97  1C03               	skipc
  2557  0C98  03A6               	decf	___lwmod@dividend+1,f
  2558  0C99  02A6               	subwf	___lwmod@dividend+1,f
  2559  0C9A                     l1697:
  2560  0C9A  3001               	movlw	1
  2561  0C9B                     u1775:
  2562  0C9B  1003               	clrc
  2563  0C9C  0CA4               	rrf	___lwmod@divisor+1,f
  2564  0C9D  0CA3               	rrf	___lwmod@divisor,f
  2565  0C9E  3EFF               	addlw	-1
  2566  0C9F  1D03               	skipz
  2567  0CA0  2C9B               	goto	u1775
  2568  0CA1                     l1699:
  2569  0CA1  3001               	movlw	1
  2570  0CA2  02F7               	subwf	___lwmod@counter,f
  2571  0CA3  1D03               	btfss	3,2
  2572  0CA4  2CA6               	goto	u1781
  2573  0CA5  2CA7               	goto	u1780
  2574  0CA6                     u1781:
  2575  0CA6  2C8A               	goto	l1693
  2576  0CA7                     u1780:
  2577  0CA7                     l1701:
  2578  0CA7  0826               	movf	___lwmod@dividend+1,w
  2579  0CA8  00A4               	movwf	?___lwmod+1
  2580  0CA9  0825               	movf	___lwmod@dividend,w
  2581  0CAA  00A3               	movwf	?___lwmod
  2582  0CAB                     l570:
  2583  0CAB  0008               	return
  2584  0CAC                     __end_of___lwmod:
  2585                           
  2586                           	psect	text5
  2587  0CAC                     __ptext5:	
  2588 ;; *************** function ___lwdiv *****************
  2589 ;; Defined at:
  2590 ;;		line 5 in file "C:\Program Files\Microchip\xc8\v2.20\pic\sources\c90\common\lwdiv.c"
  2591 ;; Parameters:    Size  Location     Type
  2592 ;;  divisor         2    3[COMMON] unsigned int 
  2593 ;;  dividend        2    5[COMMON] unsigned int 
  2594 ;; Auto vars:     Size  Location     Type
  2595 ;;  quotient        2    1[BANK0 ] unsigned int 
  2596 ;;  counter         1    0[BANK0 ] unsigned char 
  2597 ;; Return value:  Size  Location     Type
  2598 ;;                  2    3[COMMON] unsigned int 
  2599 ;; Registers used:
  2600 ;;		wreg, status,2, status,0, btemp+1
  2601 ;; Tracked objects:
  2602 ;;		On entry : 0/0
  2603 ;;		On exit  : 0/0
  2604 ;;		Unchanged: 0/0
  2605 ;; Data sizes:     COMMON   BANK0   BANK1   BANK3   BANK2
  2606 ;;      Params:         4       0       0       0       0
  2607 ;;      Locals:         0       3       0       0       0
  2608 ;;      Temps:          0       0       0       0       0
  2609 ;;      Totals:         4       3       0       0       0
  2610 ;;Total ram usage:        7 bytes
  2611 ;; Hardware stack levels used:    1
  2612 ;; Hardware stack levels required when called:    1
  2613 ;; This function calls:
  2614 ;;		Nothing
  2615 ;; This function is called by:
  2616 ;;		_main
  2617 ;;		_sprintf
  2618 ;; This function uses a non-reentrant model
  2619 ;;
  2620                           
  2621                           
  2622                           ;psect for function ___lwdiv
  2623  0CAC                     ___lwdiv:
  2624  0CAC                     l2417:	
  2625                           ;incstack = 0
  2626                           ; Regs used in ___lwdiv: [wreg+status,2+status,0+btemp+1]
  2627                           
  2628  0CAC  1283               	bcf	3,5	;RP0=0, select bank0
  2629  0CAD  1303               	bcf	3,6	;RP1=0, select bank0
  2630  0CAE  01A1               	clrf	___lwdiv@quotient
  2631  0CAF  01A2               	clrf	___lwdiv@quotient+1
  2632  0CB0                     l2419:
  2633  0CB0  0873               	movf	___lwdiv@divisor,w
  2634  0CB1  0474               	iorwf	___lwdiv@divisor+1,w
  2635  0CB2  1903               	btfsc	3,2
  2636  0CB3  2CB5               	goto	u3131
  2637  0CB4  2CB6               	goto	u3130
  2638  0CB5                     u3131:
  2639  0CB5  2CED               	goto	l2439
  2640  0CB6                     u3130:
  2641  0CB6                     l2421:
  2642  0CB6  01A0               	clrf	___lwdiv@counter
  2643  0CB7  0AA0               	incf	___lwdiv@counter,f
  2644  0CB8  2CC4               	goto	l2427
  2645  0CB9                     l2423:
  2646  0CB9  3001               	movlw	1
  2647  0CBA                     u3145:
  2648  0CBA  1003               	clrc
  2649  0CBB  0DF3               	rlf	___lwdiv@divisor,f
  2650  0CBC  0DF4               	rlf	___lwdiv@divisor+1,f
  2651  0CBD  3EFF               	addlw	-1
  2652  0CBE  1D03               	skipz
  2653  0CBF  2CBA               	goto	u3145
  2654  0CC0                     l2425:
  2655  0CC0  3001               	movlw	1
  2656  0CC1  00FF               	movwf	btemp+1
  2657  0CC2  087F               	movf	btemp+1,w
  2658  0CC3  07A0               	addwf	___lwdiv@counter,f
  2659  0CC4                     l2427:
  2660  0CC4  1FF4               	btfss	___lwdiv@divisor+1,7
  2661  0CC5  2CC7               	goto	u3151
  2662  0CC6  2CC8               	goto	u3150
  2663  0CC7                     u3151:
  2664  0CC7  2CB9               	goto	l2423
  2665  0CC8                     u3150:
  2666  0CC8                     l2429:
  2667  0CC8  3001               	movlw	1
  2668  0CC9                     u3165:
  2669  0CC9  1003               	clrc
  2670  0CCA  0DA1               	rlf	___lwdiv@quotient,f
  2671  0CCB  0DA2               	rlf	___lwdiv@quotient+1,f
  2672  0CCC  3EFF               	addlw	-1
  2673  0CCD  1D03               	skipz
  2674  0CCE  2CC9               	goto	u3165
  2675  0CCF  0874               	movf	___lwdiv@divisor+1,w
  2676  0CD0  0276               	subwf	___lwdiv@dividend+1,w
  2677  0CD1  1D03               	skipz
  2678  0CD2  2CD5               	goto	u3175
  2679  0CD3  0873               	movf	___lwdiv@divisor,w
  2680  0CD4  0275               	subwf	___lwdiv@dividend,w
  2681  0CD5                     u3175:
  2682  0CD5  1C03               	skipc
  2683  0CD6  2CD8               	goto	u3171
  2684  0CD7  2CD9               	goto	u3170
  2685  0CD8                     u3171:
  2686  0CD8  2CE0               	goto	l2435
  2687  0CD9                     u3170:
  2688  0CD9                     l2431:
  2689  0CD9  0873               	movf	___lwdiv@divisor,w
  2690  0CDA  02F5               	subwf	___lwdiv@dividend,f
  2691  0CDB  0874               	movf	___lwdiv@divisor+1,w
  2692  0CDC  1C03               	skipc
  2693  0CDD  03F6               	decf	___lwdiv@dividend+1,f
  2694  0CDE  02F6               	subwf	___lwdiv@dividend+1,f
  2695  0CDF                     l2433:
  2696  0CDF  1421               	bsf	___lwdiv@quotient,0
  2697  0CE0                     l2435:
  2698  0CE0  3001               	movlw	1
  2699  0CE1                     u3185:
  2700  0CE1  1003               	clrc
  2701  0CE2  0CF4               	rrf	___lwdiv@divisor+1,f
  2702  0CE3  0CF3               	rrf	___lwdiv@divisor,f
  2703  0CE4  3EFF               	addlw	-1
  2704  0CE5  1D03               	skipz
  2705  0CE6  2CE1               	goto	u3185
  2706  0CE7                     l2437:
  2707  0CE7  3001               	movlw	1
  2708  0CE8  02A0               	subwf	___lwdiv@counter,f
  2709  0CE9  1D03               	btfss	3,2
  2710  0CEA  2CEC               	goto	u3191
  2711  0CEB  2CED               	goto	u3190
  2712  0CEC                     u3191:
  2713  0CEC  2CC8               	goto	l2429
  2714  0CED                     u3190:
  2715  0CED                     l2439:
  2716  0CED  0822               	movf	___lwdiv@quotient+1,w
  2717  0CEE  00F4               	movwf	?___lwdiv+1
  2718  0CEF  0821               	movf	___lwdiv@quotient,w
  2719  0CF0  00F3               	movwf	?___lwdiv
  2720  0CF1                     l560:
  2721  0CF1  0008               	return
  2722  0CF2                     __end_of___lwdiv:
  2723                           
  2724                           	psect	text6
  2725  0AEB                     __ptext6:	
  2726 ;; *************** function _spiconm *****************
  2727 ;; Defined at:
  2728 ;;		line 3 in file "spimaster.c"
  2729 ;; Parameters:    Size  Location     Type
  2730 ;;		None
  2731 ;; Auto vars:     Size  Location     Type
  2732 ;;		None
  2733 ;; Return value:  Size  Location     Type
  2734 ;;                  1    wreg      void 
  2735 ;; Registers used:
  2736 ;;		wreg, status,2
  2737 ;; Tracked objects:
  2738 ;;		On entry : 0/0
  2739 ;;		On exit  : 0/0
  2740 ;;		Unchanged: 0/0
  2741 ;; Data sizes:     COMMON   BANK0   BANK1   BANK3   BANK2
  2742 ;;      Params:         0       0       0       0       0
  2743 ;;      Locals:         0       0       0       0       0
  2744 ;;      Temps:          0       0       0       0       0
  2745 ;;      Totals:         0       0       0       0       0
  2746 ;;Total ram usage:        0 bytes
  2747 ;; Hardware stack levels used:    1
  2748 ;; Hardware stack levels required when called:    1
  2749 ;; This function calls:
  2750 ;;		Nothing
  2751 ;; This function is called by:
  2752 ;;		_main
  2753 ;; This function uses a non-reentrant model
  2754 ;;
  2755                           
  2756                           
  2757                           ;psect for function _spiconm
  2758  0AEB                     _spiconm:
  2759  0AEB                     l1745:	
  2760                           ;incstack = 0
  2761                           ; Regs used in _spiconm: [wreg+status,2]
  2762                           
  2763                           
  2764                           ;spimaster.c: 4:     TRISCbits.TRISC3=0;
  2765  0AEB  1683               	bsf	3,5	;RP0=1, select bank1
  2766  0AEC  1303               	bcf	3,6	;RP1=0, select bank1
  2767  0AED  1187               	bcf	7,3	;volatile
  2768                           
  2769                           ;spimaster.c: 5:     TRISCbits.TRISC5=0;
  2770  0AEE  1287               	bcf	7,5	;volatile
  2771  0AEF                     l1747:
  2772                           
  2773                           ;spimaster.c: 6:     SSPCON = 0B00100000;
  2774  0AEF  3020               	movlw	32
  2775  0AF0  1283               	bcf	3,5	;RP0=0, select bank0
  2776  0AF1  1303               	bcf	3,6	;RP1=0, select bank0
  2777  0AF2  0094               	movwf	20	;volatile
  2778  0AF3                     l1749:
  2779                           
  2780                           ;spimaster.c: 7:     SSPSTAT =0;
  2781  0AF3  1683               	bsf	3,5	;RP0=1, select bank1
  2782  0AF4  1303               	bcf	3,6	;RP1=0, select bank1
  2783  0AF5  0194               	clrf	20	;volatile
  2784  0AF6                     l163:
  2785  0AF6  0008               	return
  2786  0AF7                     __end_of_spiconm:
  2787                           
  2788                           	psect	text7
  2789  0B07                     __ptext7:	
  2790 ;; *************** function _setupm1 *****************
  2791 ;; Defined at:
  2792 ;;		line 26 in file "configuracion.c"
  2793 ;; Parameters:    Size  Location     Type
  2794 ;;		None
  2795 ;; Auto vars:     Size  Location     Type
  2796 ;;		None
  2797 ;; Return value:  Size  Location     Type
  2798 ;;                  1    wreg      void 
  2799 ;; Registers used:
  2800 ;;		status,2
  2801 ;; Tracked objects:
  2802 ;;		On entry : 0/0
  2803 ;;		On exit  : 0/0
  2804 ;;		Unchanged: 0/0
  2805 ;; Data sizes:     COMMON   BANK0   BANK1   BANK3   BANK2
  2806 ;;      Params:         0       0       0       0       0
  2807 ;;      Locals:         0       0       0       0       0
  2808 ;;      Temps:          0       0       0       0       0
  2809 ;;      Totals:         0       0       0       0       0
  2810 ;;Total ram usage:        0 bytes
  2811 ;; Hardware stack levels used:    1
  2812 ;; Hardware stack levels required when called:    1
  2813 ;; This function calls:
  2814 ;;		Nothing
  2815 ;; This function is called by:
  2816 ;;		_main
  2817 ;; This function uses a non-reentrant model
  2818 ;;
  2819                           
  2820                           
  2821                           ;psect for function _setupm1
  2822  0B07                     _setupm1:
  2823  0B07                     l1719:	
  2824                           ;incstack = 0
  2825                           ; Regs used in _setupm1: [status,2]
  2826                           
  2827  0B07  1683               	bsf	3,5	;RP0=1, select bank3
  2828  0B08  1703               	bsf	3,6	;RP1=1, select bank3
  2829  0B09  0188               	clrf	8	;volatile
  2830  0B0A  0189               	clrf	9	;volatile
  2831  0B0B  1683               	bsf	3,5	;RP0=1, select bank1
  2832  0B0C  1303               	bcf	3,6	;RP1=0, select bank1
  2833  0B0D  0185               	clrf	5	;volatile
  2834  0B0E  0189               	clrf	9	;volatile
  2835  0B0F  0186               	clrf	6	;volatile
  2836  0B10  0188               	clrf	8	;volatile
  2837  0B11  1283               	bcf	3,5	;RP0=0, select bank0
  2838  0B12  1303               	bcf	3,6	;RP1=0, select bank0
  2839  0B13  0185               	clrf	5	;volatile
  2840  0B14  0186               	clrf	6	;volatile
  2841  0B15  0188               	clrf	8	;volatile
  2842  0B16  0189               	clrf	9	;volatile
  2843  0B17                     l151:
  2844  0B17  0008               	return
  2845  0B18                     __end_of_setupm1:
  2846                           
  2847                           	psect	text8
  2848  0AE1                     __ptext8:	
  2849 ;; *************** function _inter *****************
  2850 ;; Defined at:
  2851 ;;		line 38 in file "configuracion.c"
  2852 ;; Parameters:    Size  Location     Type
  2853 ;;		None
  2854 ;; Auto vars:     Size  Location     Type
  2855 ;;		None
  2856 ;; Return value:  Size  Location     Type
  2857 ;;                  1    wreg      void 
  2858 ;; Registers used:
  2859 ;;		None
  2860 ;; Tracked objects:
  2861 ;;		On entry : 0/0
  2862 ;;		On exit  : 0/0
  2863 ;;		Unchanged: 0/0
  2864 ;; Data sizes:     COMMON   BANK0   BANK1   BANK3   BANK2
  2865 ;;      Params:         0       0       0       0       0
  2866 ;;      Locals:         0       0       0       0       0
  2867 ;;      Temps:          0       0       0       0       0
  2868 ;;      Totals:         0       0       0       0       0
  2869 ;;Total ram usage:        0 bytes
  2870 ;; Hardware stack levels used:    1
  2871 ;; Hardware stack levels required when called:    1
  2872 ;; This function calls:
  2873 ;;		Nothing
  2874 ;; This function is called by:
  2875 ;;		_main
  2876 ;; This function uses a non-reentrant model
  2877 ;;
  2878                           
  2879                           
  2880                           ;psect for function _inter
  2881  0AE1                     _inter:
  2882  0AE1                     l1721:	
  2883                           ;incstack = 0
  2884                           ; Regs used in _inter: []
  2885                           
  2886  0AE1  178B               	bsf	11,7	;volatile
  2887  0AE2  170B               	bsf	11,6	;volatile
  2888  0AE3  1683               	bsf	3,5	;RP0=1, select bank1
  2889  0AE4  1303               	bcf	3,6	;RP1=0, select bank1
  2890  0AE5  168C               	bsf	12,5	;volatile
  2891  0AE6  160C               	bsf	12,4	;volatile
  2892  0AE7  1283               	bcf	3,5	;RP0=0, select bank0
  2893  0AE8  1303               	bcf	3,6	;RP1=0, select bank0
  2894  0AE9  128C               	bcf	12,5	;volatile
  2895  0AEA                     l154:
  2896  0AEA  0008               	return
  2897  0AEB                     __end_of_inter:
  2898                           
  2899                           	psect	text9
  2900  0732                     __ptext9:	
  2901 ;; *************** function ___xxtofl *****************
  2902 ;; Defined at:
  2903 ;;		line 10 in file "C:\Program Files\Microchip\xc8\v2.20\pic\sources\c90\common\xxtofl.c"
  2904 ;; Parameters:    Size  Location     Type
  2905 ;;  sign            1    wreg     unsigned char 
  2906 ;;  val             4    3[COMMON] long 
  2907 ;; Auto vars:     Size  Location     Type
  2908 ;;  sign            1    4[BANK0 ] unsigned char 
  2909 ;;  arg             4    6[BANK0 ] unsigned long 
  2910 ;;  exp             1    5[BANK0 ] unsigned char 
  2911 ;; Return value:  Size  Location     Type
  2912 ;;                  4    3[COMMON] unsigned char 
  2913 ;; Registers used:
  2914 ;;		wreg, status,2, status,0, btemp+1
  2915 ;; Tracked objects:
  2916 ;;		On entry : 0/0
  2917 ;;		On exit  : 0/0
  2918 ;;		Unchanged: 0/0
  2919 ;; Data sizes:     COMMON   BANK0   BANK1   BANK3   BANK2
  2920 ;;      Params:         4       0       0       0       0
  2921 ;;      Locals:         0       6       0       0       0
  2922 ;;      Temps:          0       4       0       0       0
  2923 ;;      Totals:         4      10       0       0       0
  2924 ;;Total ram usage:       14 bytes
  2925 ;; Hardware stack levels used:    1
  2926 ;; Hardware stack levels required when called:    1
  2927 ;; This function calls:
  2928 ;;		Nothing
  2929 ;; This function is called by:
  2930 ;;		_main
  2931 ;; This function uses a non-reentrant model
  2932 ;;
  2933                           
  2934                           
  2935                           ;psect for function ___xxtofl
  2936  0732                     ___xxtofl:
  2937                           
  2938                           ;incstack = 0
  2939                           ; Regs used in ___xxtofl: [wreg+status,2+status,0+btemp+1]
  2940                           ;___xxtofl@sign stored from wreg
  2941  0732  1283               	bcf	3,5	;RP0=0, select bank0
  2942  0733  1303               	bcf	3,6	;RP1=0, select bank0
  2943  0734  00A4               	movwf	___xxtofl@sign
  2944  0735                     l2619:
  2945  0735  0824               	movf	___xxtofl@sign,w
  2946  0736  1903               	btfsc	3,2
  2947  0737  2F39               	goto	u3511
  2948  0738  2F3A               	goto	u3510
  2949  0739                     u3511:
  2950  0739  2F4E               	goto	l2625
  2951  073A                     u3510:
  2952  073A                     l2621:
  2953  073A  1FF6               	btfss	___xxtofl@val+3,7
  2954  073B  2F3D               	goto	u3521
  2955  073C  2F3E               	goto	u3520
  2956  073D                     u3521:
  2957  073D  2F4E               	goto	l2625
  2958  073E                     u3520:
  2959  073E                     l2623:
  2960  073E  0973               	comf	___xxtofl@val,w
  2961  073F  00A6               	movwf	___xxtofl@arg
  2962  0740  0974               	comf	___xxtofl@val+1,w
  2963  0741  00A7               	movwf	___xxtofl@arg+1
  2964  0742  0975               	comf	___xxtofl@val+2,w
  2965  0743  00A8               	movwf	___xxtofl@arg+2
  2966  0744  0976               	comf	___xxtofl@val+3,w
  2967  0745  00A9               	movwf	___xxtofl@arg+3
  2968  0746  0AA6               	incf	___xxtofl@arg,f
  2969  0747  1903               	skipnz
  2970  0748  0AA7               	incf	___xxtofl@arg+1,f
  2971  0749  1903               	skipnz
  2972  074A  0AA8               	incf	___xxtofl@arg+2,f
  2973  074B  1903               	skipnz
  2974  074C  0AA9               	incf	___xxtofl@arg+3,f
  2975  074D  2F56               	goto	l721
  2976  074E                     l2625:
  2977  074E  0876               	movf	___xxtofl@val+3,w
  2978  074F  00A9               	movwf	___xxtofl@arg+3
  2979  0750  0875               	movf	___xxtofl@val+2,w
  2980  0751  00A8               	movwf	___xxtofl@arg+2
  2981  0752  0874               	movf	___xxtofl@val+1,w
  2982  0753  00A7               	movwf	___xxtofl@arg+1
  2983  0754  0873               	movf	___xxtofl@val,w
  2984  0755  00A6               	movwf	___xxtofl@arg
  2985  0756                     l721:
  2986  0756  0876               	movf	___xxtofl@val+3,w
  2987  0757  0475               	iorwf	___xxtofl@val+2,w
  2988  0758  0474               	iorwf	___xxtofl@val+1,w
  2989  0759  0473               	iorwf	___xxtofl@val,w
  2990  075A  1D03               	skipz
  2991  075B  2F5D               	goto	u3531
  2992  075C  2F5E               	goto	u3530
  2993  075D                     u3531:
  2994  075D  2F67               	goto	l2631
  2995  075E                     u3530:
  2996  075E                     l2627:
  2997  075E  3000               	movlw	0
  2998  075F  00F6               	movwf	?___xxtofl+3
  2999  0760  3000               	movlw	0
  3000  0761  00F5               	movwf	?___xxtofl+2
  3001  0762  3000               	movlw	0
  3002  0763  00F4               	movwf	?___xxtofl+1
  3003  0764  3000               	movlw	0
  3004  0765  00F3               	movwf	?___xxtofl
  3005  0766  2FED               	goto	l723
  3006  0767                     l2631:
  3007  0767  3096               	movlw	150
  3008  0768  00FF               	movwf	btemp+1
  3009  0769  087F               	movf	btemp+1,w
  3010  076A  00A5               	movwf	___xxtofl@exp
  3011  076B  2F79               	goto	l2637
  3012  076C                     l2633:
  3013  076C  3001               	movlw	1
  3014  076D  00FF               	movwf	btemp+1
  3015  076E  087F               	movf	btemp+1,w
  3016  076F  07A5               	addwf	___xxtofl@exp,f
  3017  0770                     l2635:
  3018  0770  3001               	movlw	1
  3019  0771                     u3545:
  3020  0771  1003               	clrc
  3021  0772  0CA9               	rrf	___xxtofl@arg+3,f
  3022  0773  0CA8               	rrf	___xxtofl@arg+2,f
  3023  0774  0CA7               	rrf	___xxtofl@arg+1,f
  3024  0775  0CA6               	rrf	___xxtofl@arg,f
  3025  0776  3EFF               	addlw	-1
  3026  0777  1D03               	skipz
  3027  0778  2F71               	goto	u3545
  3028  0779                     l2637:
  3029  0779  30FE               	movlw	254
  3030  077A  0529               	andwf	___xxtofl@arg+3,w
  3031  077B  1D03               	btfss	3,2
  3032  077C  2F7E               	goto	u3551
  3033  077D  2F7F               	goto	u3550
  3034  077E                     u3551:
  3035  077E  2F6C               	goto	l2633
  3036  077F                     u3550:
  3037  077F  2F9B               	goto	l2645
  3038  0780                     l2639:
  3039  0780  3001               	movlw	1
  3040  0781  00FF               	movwf	btemp+1
  3041  0782  087F               	movf	btemp+1,w
  3042  0783  07A5               	addwf	___xxtofl@exp,f
  3043  0784                     l2641:
  3044  0784  3001               	movlw	1
  3045  0785  07A6               	addwf	___xxtofl@arg,f
  3046  0786  3000               	movlw	0
  3047  0787  1803               	skipnc
  3048  0788  3001               	movlw	1
  3049  0789  07A7               	addwf	___xxtofl@arg+1,f
  3050  078A  3000               	movlw	0
  3051  078B  1803               	skipnc
  3052  078C  3001               	movlw	1
  3053  078D  07A8               	addwf	___xxtofl@arg+2,f
  3054  078E  3000               	movlw	0
  3055  078F  1803               	skipnc
  3056  0790  3001               	movlw	1
  3057  0791  07A9               	addwf	___xxtofl@arg+3,f
  3058  0792                     l2643:
  3059  0792  3001               	movlw	1
  3060  0793                     u3565:
  3061  0793  1003               	clrc
  3062  0794  0CA9               	rrf	___xxtofl@arg+3,f
  3063  0795  0CA8               	rrf	___xxtofl@arg+2,f
  3064  0796  0CA7               	rrf	___xxtofl@arg+1,f
  3065  0797  0CA6               	rrf	___xxtofl@arg,f
  3066  0798  3EFF               	addlw	-1
  3067  0799  1D03               	skipz
  3068  079A  2F93               	goto	u3565
  3069  079B                     l2645:
  3070  079B  30FF               	movlw	255
  3071  079C  0529               	andwf	___xxtofl@arg+3,w
  3072  079D  1D03               	btfss	3,2
  3073  079E  2FA0               	goto	u3571
  3074  079F  2FA1               	goto	u3570
  3075  07A0                     u3571:
  3076  07A0  2F80               	goto	l2639
  3077  07A1                     u3570:
  3078  07A1  2FAD               	goto	l2649
  3079  07A2                     l2647:
  3080  07A2  3001               	movlw	1
  3081  07A3  02A5               	subwf	___xxtofl@exp,f
  3082  07A4  3001               	movlw	1
  3083  07A5  00A0               	movwf	??___xxtofl
  3084  07A6                     u3585:
  3085  07A6  1003               	clrc
  3086  07A7  0DA6               	rlf	___xxtofl@arg,f
  3087  07A8  0DA7               	rlf	___xxtofl@arg+1,f
  3088  07A9  0DA8               	rlf	___xxtofl@arg+2,f
  3089  07AA  0DA9               	rlf	___xxtofl@arg+3,f
  3090  07AB  0BA0               	decfsz	??___xxtofl,f
  3091  07AC  2FA6               	goto	u3585
  3092  07AD                     l2649:
  3093  07AD  1BA8               	btfsc	___xxtofl@arg+2,7
  3094  07AE  2FB0               	goto	u3591
  3095  07AF  2FB1               	goto	u3590
  3096  07B0                     u3591:
  3097  07B0  2FB7               	goto	l734
  3098  07B1                     u3590:
  3099  07B1                     l2651:
  3100  07B1  3002               	movlw	2
  3101  07B2  0225               	subwf	___xxtofl@exp,w
  3102  07B3  1803               	skipnc
  3103  07B4  2FB6               	goto	u3601
  3104  07B5  2FB7               	goto	u3600
  3105  07B6                     u3601:
  3106  07B6  2FA2               	goto	l2647
  3107  07B7                     u3600:
  3108  07B7                     l734:
  3109  07B7  1825               	btfsc	___xxtofl@exp,0
  3110  07B8  2FBA               	goto	u3611
  3111  07B9  2FBB               	goto	u3610
  3112  07BA                     u3611:
  3113  07BA  2FC3               	goto	l735
  3114  07BB                     u3610:
  3115  07BB                     l2653:
  3116  07BB  30FF               	movlw	255
  3117  07BC  05A6               	andwf	___xxtofl@arg,f
  3118  07BD  30FF               	movlw	255
  3119  07BE  05A7               	andwf	___xxtofl@arg+1,f
  3120  07BF  307F               	movlw	127
  3121  07C0  05A8               	andwf	___xxtofl@arg+2,f
  3122  07C1  30FF               	movlw	255
  3123  07C2  05A9               	andwf	___xxtofl@arg+3,f
  3124  07C3                     l735:
  3125  07C3  1003               	clrc
  3126  07C4  0CA5               	rrf	___xxtofl@exp,f
  3127  07C5                     l2655:
  3128  07C5  0825               	movf	___xxtofl@exp,w
  3129  07C6  00A0               	movwf	??___xxtofl
  3130  07C7  01A1               	clrf	??___xxtofl+1
  3131  07C8  01A2               	clrf	??___xxtofl+2
  3132  07C9  01A3               	clrf	??___xxtofl+3
  3133  07CA  3018               	movlw	24
  3134  07CB                     u3625:
  3135  07CB  1003               	clrc
  3136  07CC  0DA0               	rlf	??___xxtofl,f
  3137  07CD  0DA1               	rlf	??___xxtofl+1,f
  3138  07CE  0DA2               	rlf	??___xxtofl+2,f
  3139  07CF  0DA3               	rlf	??___xxtofl+3,f
  3140  07D0                     u3620:
  3141  07D0  3EFF               	addlw	-1
  3142  07D1  1D03               	skipz
  3143  07D2  2FCB               	goto	u3625
  3144  07D3  0820               	movf	??___xxtofl,w
  3145  07D4  04A6               	iorwf	___xxtofl@arg,f
  3146  07D5  0821               	movf	??___xxtofl+1,w
  3147  07D6  04A7               	iorwf	___xxtofl@arg+1,f
  3148  07D7  0822               	movf	??___xxtofl+2,w
  3149  07D8  04A8               	iorwf	___xxtofl@arg+2,f
  3150  07D9  0823               	movf	??___xxtofl+3,w
  3151  07DA  04A9               	iorwf	___xxtofl@arg+3,f
  3152  07DB                     l2657:
  3153  07DB  0824               	movf	___xxtofl@sign,w
  3154  07DC  1903               	btfsc	3,2
  3155  07DD  2FDF               	goto	u3631
  3156  07DE  2FE0               	goto	u3630
  3157  07DF                     u3631:
  3158  07DF  2FE5               	goto	l2663
  3159  07E0                     u3630:
  3160  07E0                     l2659:
  3161  07E0  1FF6               	btfss	___xxtofl@val+3,7
  3162  07E1  2FE3               	goto	u3641
  3163  07E2  2FE4               	goto	u3640
  3164  07E3                     u3641:
  3165  07E3  2FE5               	goto	l2663
  3166  07E4                     u3640:
  3167  07E4                     l2661:
  3168  07E4  17A9               	bsf	___xxtofl@arg+3,7
  3169  07E5                     l2663:
  3170  07E5  0829               	movf	___xxtofl@arg+3,w
  3171  07E6  00F6               	movwf	?___xxtofl+3
  3172  07E7  0828               	movf	___xxtofl@arg+2,w
  3173  07E8  00F5               	movwf	?___xxtofl+2
  3174  07E9  0827               	movf	___xxtofl@arg+1,w
  3175  07EA  00F4               	movwf	?___xxtofl+1
  3176  07EB  0826               	movf	___xxtofl@arg,w
  3177  07EC  00F3               	movwf	?___xxtofl
  3178  07ED                     l723:
  3179  07ED  0008               	return
  3180  07EE                     __end_of___xxtofl:
  3181                           
  3182                           	psect	text10
  3183  0D5F                     __ptext10:	
  3184 ;; *************** function ___fltol *****************
  3185 ;; Defined at:
  3186 ;;		line 43 in file "C:\Program Files\Microchip\xc8\v2.20\pic\sources\c90\common\fltol.c"
  3187 ;; Parameters:    Size  Location     Type
  3188 ;;  f1              4   57[BANK0 ] unsigned char 
  3189 ;; Auto vars:     Size  Location     Type
  3190 ;;  exp1            1   66[BANK0 ] unsigned char 
  3191 ;;  sign1           1   65[BANK0 ] unsigned char 
  3192 ;; Return value:  Size  Location     Type
  3193 ;;                  4   57[BANK0 ] long 
  3194 ;; Registers used:
  3195 ;;		wreg, status,2, status,0, btemp+1
  3196 ;; Tracked objects:
  3197 ;;		On entry : 0/0
  3198 ;;		On exit  : 0/0
  3199 ;;		Unchanged: 0/0
  3200 ;; Data sizes:     COMMON   BANK0   BANK1   BANK3   BANK2
  3201 ;;      Params:         0       4       0       0       0
  3202 ;;      Locals:         0       2       0       0       0
  3203 ;;      Temps:          0       4       0       0       0
  3204 ;;      Totals:         0      10       0       0       0
  3205 ;;Total ram usage:       10 bytes
  3206 ;; Hardware stack levels used:    1
  3207 ;; Hardware stack levels required when called:    1
  3208 ;; This function calls:
  3209 ;;		Nothing
  3210 ;; This function is called by:
  3211 ;;		_main
  3212 ;; This function uses a non-reentrant model
  3213 ;;
  3214                           
  3215                           
  3216                           ;psect for function ___fltol
  3217  0D5F                     ___fltol:
  3218  0D5F                     l2581:	
  3219                           ;incstack = 0
  3220                           ; Regs used in ___fltol: [wreg+status,2+status,0+btemp+1]
  3221                           
  3222  0D5F  1003               	clrc
  3223  0D60  1283               	bcf	3,5	;RP0=0, select bank0
  3224  0D61  1303               	bcf	3,6	;RP1=0, select bank0
  3225  0D62  0D5B               	rlf	___fltol@f1+2,w
  3226  0D63  0D5C               	rlf	___fltol@f1+3,w
  3227  0D64  00FF               	movwf	btemp+1
  3228  0D65  087F               	movf	btemp+1,w
  3229  0D66  00E2               	movwf	___fltol@exp1
  3230  0D67  0862               	movf	___fltol@exp1,w
  3231  0D68  1D03               	btfss	3,2
  3232  0D69  2D6B               	goto	u3411
  3233  0D6A  2D6C               	goto	u3410
  3234  0D6B                     u3411:
  3235  0D6B  2D75               	goto	l2587
  3236  0D6C                     u3410:
  3237  0D6C                     l2583:
  3238  0D6C  3000               	movlw	0
  3239  0D6D  00DC               	movwf	?___fltol+3
  3240  0D6E  3000               	movlw	0
  3241  0D6F  00DB               	movwf	?___fltol+2
  3242  0D70  3000               	movlw	0
  3243  0D71  00DA               	movwf	?___fltol+1
  3244  0D72  3000               	movlw	0
  3245  0D73  00D9               	movwf	?___fltol
  3246  0D74  2DDA               	goto	l474
  3247  0D75                     l2587:
  3248  0D75  0859               	movf	___fltol@f1,w
  3249  0D76  00DD               	movwf	??___fltol
  3250  0D77  085A               	movf	___fltol@f1+1,w
  3251  0D78  00DE               	movwf	??___fltol+1
  3252  0D79  085B               	movf	___fltol@f1+2,w
  3253  0D7A  00DF               	movwf	??___fltol+2
  3254  0D7B  085C               	movf	___fltol@f1+3,w
  3255  0D7C  00E0               	movwf	??___fltol+3
  3256  0D7D  301F               	movlw	31
  3257  0D7E                     u3425:
  3258  0D7E  1003               	clrc
  3259  0D7F  0CE0               	rrf	??___fltol+3,f
  3260  0D80  0CDF               	rrf	??___fltol+2,f
  3261  0D81  0CDE               	rrf	??___fltol+1,f
  3262  0D82  0CDD               	rrf	??___fltol,f
  3263  0D83                     u3420:
  3264  0D83  3EFF               	addlw	-1
  3265  0D84  1D03               	skipz
  3266  0D85  2D7E               	goto	u3425
  3267  0D86  085D               	movf	??___fltol,w
  3268  0D87  00FF               	movwf	btemp+1
  3269  0D88  087F               	movf	btemp+1,w
  3270  0D89  00E1               	movwf	___fltol@sign1
  3271  0D8A                     l2589:
  3272  0D8A  17DB               	bsf	___fltol@f1+2,7
  3273  0D8B                     l2591:
  3274  0D8B  30FF               	movlw	255
  3275  0D8C  05D9               	andwf	___fltol@f1,f
  3276  0D8D  30FF               	movlw	255
  3277  0D8E  05DA               	andwf	___fltol@f1+1,f
  3278  0D8F  30FF               	movlw	255
  3279  0D90  05DB               	andwf	___fltol@f1+2,f
  3280  0D91  3000               	movlw	0
  3281  0D92  05DC               	andwf	___fltol@f1+3,f
  3282  0D93                     l2593:
  3283  0D93  3096               	movlw	150
  3284  0D94  02E2               	subwf	___fltol@exp1,f
  3285  0D95                     l2595:
  3286  0D95  1FE2               	btfss	___fltol@exp1,7
  3287  0D96  2D98               	goto	u3431
  3288  0D97  2D99               	goto	u3430
  3289  0D98                     u3431:
  3290  0D98  2DB3               	goto	l2607
  3291  0D99                     u3430:
  3292  0D99                     l2597:
  3293  0D99  0862               	movf	___fltol@exp1,w
  3294  0D9A  3A80               	xorlw	128
  3295  0D9B  3E97               	addlw	151
  3296  0D9C  1803               	skipnc
  3297  0D9D  2D9F               	goto	u3441
  3298  0D9E  2DA0               	goto	u3440
  3299  0D9F                     u3441:
  3300  0D9F  2DA1               	goto	l2603
  3301  0DA0                     u3440:
  3302  0DA0  2D6C               	goto	l2583
  3303  0DA1                     l2603:
  3304  0DA1  3001               	movlw	1
  3305  0DA2                     u3455:
  3306  0DA2  1003               	clrc
  3307  0DA3  0CDC               	rrf	___fltol@f1+3,f
  3308  0DA4  0CDB               	rrf	___fltol@f1+2,f
  3309  0DA5  0CDA               	rrf	___fltol@f1+1,f
  3310  0DA6  0CD9               	rrf	___fltol@f1,f
  3311  0DA7  3EFF               	addlw	-1
  3312  0DA8  1D03               	skipz
  3313  0DA9  2DA2               	goto	u3455
  3314  0DAA                     l2605:
  3315  0DAA  3001               	movlw	1
  3316  0DAB  00FF               	movwf	btemp+1
  3317  0DAC  087F               	movf	btemp+1,w
  3318  0DAD  07E2               	addwf	___fltol@exp1,f
  3319  0DAE  1D03               	btfss	3,2
  3320  0DAF  2DB1               	goto	u3461
  3321  0DB0  2DB2               	goto	u3460
  3322  0DB1                     u3461:
  3323  0DB1  2DA1               	goto	l2603
  3324  0DB2                     u3460:
  3325  0DB2  2DCA               	goto	l2615
  3326  0DB3                     l2607:
  3327  0DB3  3020               	movlw	32
  3328  0DB4  0262               	subwf	___fltol@exp1,w
  3329  0DB5  1C03               	skipc
  3330  0DB6  2DB8               	goto	u3471
  3331  0DB7  2DB9               	goto	u3470
  3332  0DB8                     u3471:
  3333  0DB8  2DC5               	goto	l481
  3334  0DB9                     u3470:
  3335  0DB9  2D6C               	goto	l2583
  3336  0DBA                     l2613:
  3337  0DBA  3001               	movlw	1
  3338  0DBB  00DD               	movwf	??___fltol
  3339  0DBC                     u3485:
  3340  0DBC  1003               	clrc
  3341  0DBD  0DD9               	rlf	___fltol@f1,f
  3342  0DBE  0DDA               	rlf	___fltol@f1+1,f
  3343  0DBF  0DDB               	rlf	___fltol@f1+2,f
  3344  0DC0  0DDC               	rlf	___fltol@f1+3,f
  3345  0DC1  0BDD               	decfsz	??___fltol,f
  3346  0DC2  2DBC               	goto	u3485
  3347  0DC3  3001               	movlw	1
  3348  0DC4  02E2               	subwf	___fltol@exp1,f
  3349  0DC5                     l481:
  3350  0DC5  0862               	movf	___fltol@exp1,w
  3351  0DC6  1D03               	btfss	3,2
  3352  0DC7  2DC9               	goto	u3491
  3353  0DC8  2DCA               	goto	u3490
  3354  0DC9                     u3491:
  3355  0DC9  2DBA               	goto	l2613
  3356  0DCA                     u3490:
  3357  0DCA                     l2615:
  3358  0DCA  0861               	movf	___fltol@sign1,w
  3359  0DCB  1903               	btfsc	3,2
  3360  0DCC  2DCE               	goto	u3501
  3361  0DCD  2DCF               	goto	u3500
  3362  0DCE                     u3501:
  3363  0DCE  2DDA               	goto	l484
  3364  0DCF                     u3500:
  3365  0DCF                     l2617:
  3366  0DCF  09D9               	comf	___fltol@f1,f
  3367  0DD0  09DA               	comf	___fltol@f1+1,f
  3368  0DD1  09DB               	comf	___fltol@f1+2,f
  3369  0DD2  09DC               	comf	___fltol@f1+3,f
  3370  0DD3  0AD9               	incf	___fltol@f1,f
  3371  0DD4  1903               	skipnz
  3372  0DD5  0ADA               	incf	___fltol@f1+1,f
  3373  0DD6  1903               	skipnz
  3374  0DD7  0ADB               	incf	___fltol@f1+2,f
  3375  0DD8  1903               	skipnz
  3376  0DD9  0ADC               	incf	___fltol@f1+3,f
  3377  0DDA                     l484:
  3378  0DDA                     l474:
  3379  0DDA  0008               	return
  3380  0DDB                     __end_of___fltol:
  3381                           
  3382                           	psect	text11
  3383  0036                     __ptext11:	
  3384 ;; *************** function ___flmul *****************
  3385 ;; Defined at:
  3386 ;;		line 8 in file "C:\Program Files\Microchip\xc8\v2.20\pic\sources\c90\common\sprcmul.c"
  3387 ;; Parameters:    Size  Location     Type
  3388 ;;  b               4    5[BANK0 ] long 
  3389 ;;  a               4    9[BANK0 ] long 
  3390 ;; Auto vars:     Size  Location     Type
  3391 ;;  prod            4   25[BANK0 ] struct .
  3392 ;;  grs             4   19[BANK0 ] unsigned long 
  3393 ;;  temp            2   29[BANK0 ] struct .
  3394 ;;  bexp            1   24[BANK0 ] unsigned char 
  3395 ;;  aexp            1   23[BANK0 ] unsigned char 
  3396 ;;  sign            1   18[BANK0 ] unsigned char 
  3397 ;; Return value:  Size  Location     Type
  3398 ;;                  4    5[BANK0 ] unsigned char 
  3399 ;; Registers used:
  3400 ;;		wreg, status,2, status,0, btemp+1, pclath, cstack
  3401 ;; Tracked objects:
  3402 ;;		On entry : 0/0
  3403 ;;		On exit  : 0/0
  3404 ;;		Unchanged: 0/0
  3405 ;; Data sizes:     COMMON   BANK0   BANK1   BANK3   BANK2
  3406 ;;      Params:         0       8       0       0       0
  3407 ;;      Locals:         0      13       0       0       0
  3408 ;;      Temps:          0       5       0       0       0
  3409 ;;      Totals:         0      26       0       0       0
  3410 ;;Total ram usage:       26 bytes
  3411 ;; Hardware stack levels used:    1
  3412 ;; Hardware stack levels required when called:    2
  3413 ;; This function calls:
  3414 ;;		__Umul8_16
  3415 ;; This function is called by:
  3416 ;;		_main
  3417 ;; This function uses a non-reentrant model
  3418 ;;
  3419                           
  3420                           
  3421                           ;psect for function ___flmul
  3422  0036                     ___flmul:
  3423  0036                     l2049:	
  3424                           ;incstack = 0
  3425                           ; Regs used in ___flmul: [wreg+status,2+status,0+btemp+1+pclath+cstack]
  3426                           
  3427  0036  1283               	bcf	3,5	;RP0=0, select bank0
  3428  0037  1303               	bcf	3,6	;RP1=0, select bank0
  3429  0038  0828               	movf	___flmul@b+3,w
  3430  0039  3980               	andlw	128
  3431  003A  00FF               	movwf	btemp+1
  3432  003B  087F               	movf	btemp+1,w
  3433  003C  00B2               	movwf	___flmul@sign
  3434  003D                     l2051:
  3435  003D  0828               	movf	___flmul@b+3,w
  3436  003E  00AD               	movwf	??___flmul
  3437  003F  072D               	addwf	??___flmul,w
  3438  0040  00FF               	movwf	btemp+1
  3439  0041  087F               	movf	btemp+1,w
  3440  0042  00B8               	movwf	___flmul@bexp
  3441  0043                     l2053:
  3442  0043  1FA7               	btfss	___flmul@b+2,7
  3443  0044  2846               	goto	u2421
  3444  0045  2847               	goto	u2420
  3445  0046                     u2421:
  3446  0046  2848               	goto	l2057
  3447  0047                     u2420:
  3448  0047                     l2055:
  3449  0047  1438               	bsf	___flmul@bexp,0
  3450  0048                     l2057:
  3451  0048  0838               	movf	___flmul@bexp,w
  3452  0049  1903               	btfsc	3,2
  3453  004A  284C               	goto	u2431
  3454  004B  284D               	goto	u2430
  3455  004C                     u2431:
  3456  004C  285C               	goto	l2065
  3457  004D                     u2430:
  3458  004D                     l2059:
  3459  004D  0A38               	incf	___flmul@bexp,w
  3460  004E  1D03               	btfss	3,2
  3461  004F  2851               	goto	u2441
  3462  0050  2852               	goto	u2440
  3463  0051                     u2441:
  3464  0051  285A               	goto	l2063
  3465  0052                     u2440:
  3466  0052                     l2061:
  3467  0052  3000               	movlw	0
  3468  0053  00A8               	movwf	___flmul@b+3
  3469  0054  3000               	movlw	0
  3470  0055  00A7               	movwf	___flmul@b+2
  3471  0056  3000               	movlw	0
  3472  0057  00A6               	movwf	___flmul@b+1
  3473  0058  3000               	movlw	0
  3474  0059  00A5               	movwf	___flmul@b
  3475  005A                     l2063:
  3476  005A  17A7               	bsf	___flmul@b+2,7
  3477  005B  2864               	goto	l2067
  3478  005C                     l2065:
  3479  005C  3000               	movlw	0
  3480  005D  00A8               	movwf	___flmul@b+3
  3481  005E  3000               	movlw	0
  3482  005F  00A7               	movwf	___flmul@b+2
  3483  0060  3000               	movlw	0
  3484  0061  00A6               	movwf	___flmul@b+1
  3485  0062  3000               	movlw	0
  3486  0063  00A5               	movwf	___flmul@b
  3487  0064                     l2067:
  3488  0064  082C               	movf	___flmul@a+3,w
  3489  0065  3980               	andlw	128
  3490  0066  00FF               	movwf	btemp+1
  3491  0067  087F               	movf	btemp+1,w
  3492  0068  06B2               	xorwf	___flmul@sign,f
  3493  0069                     l2069:
  3494  0069  082C               	movf	___flmul@a+3,w
  3495  006A  00AD               	movwf	??___flmul
  3496  006B  072D               	addwf	??___flmul,w
  3497  006C  00FF               	movwf	btemp+1
  3498  006D  087F               	movf	btemp+1,w
  3499  006E  00B7               	movwf	___flmul@aexp
  3500  006F                     l2071:
  3501  006F  1FAB               	btfss	___flmul@a+2,7
  3502  0070  2872               	goto	u2451
  3503  0071  2873               	goto	u2450
  3504  0072                     u2451:
  3505  0072  2874               	goto	l2075
  3506  0073                     u2450:
  3507  0073                     l2073:
  3508  0073  1437               	bsf	___flmul@aexp,0
  3509  0074                     l2075:
  3510  0074  0837               	movf	___flmul@aexp,w
  3511  0075  1903               	btfsc	3,2
  3512  0076  2878               	goto	u2461
  3513  0077  2879               	goto	u2460
  3514  0078                     u2461:
  3515  0078  2888               	goto	l2083
  3516  0079                     u2460:
  3517  0079                     l2077:
  3518  0079  0A37               	incf	___flmul@aexp,w
  3519  007A  1D03               	btfss	3,2
  3520  007B  287D               	goto	u2471
  3521  007C  287E               	goto	u2470
  3522  007D                     u2471:
  3523  007D  2886               	goto	l2081
  3524  007E                     u2470:
  3525  007E                     l2079:
  3526  007E  3000               	movlw	0
  3527  007F  00AC               	movwf	___flmul@a+3
  3528  0080  3000               	movlw	0
  3529  0081  00AB               	movwf	___flmul@a+2
  3530  0082  3000               	movlw	0
  3531  0083  00AA               	movwf	___flmul@a+1
  3532  0084  3000               	movlw	0
  3533  0085  00A9               	movwf	___flmul@a
  3534  0086                     l2081:
  3535  0086  17AB               	bsf	___flmul@a+2,7
  3536  0087  2890               	goto	l2085
  3537  0088                     l2083:
  3538  0088  3000               	movlw	0
  3539  0089  00AC               	movwf	___flmul@a+3
  3540  008A  3000               	movlw	0
  3541  008B  00AB               	movwf	___flmul@a+2
  3542  008C  3000               	movlw	0
  3543  008D  00AA               	movwf	___flmul@a+1
  3544  008E  3000               	movlw	0
  3545  008F  00A9               	movwf	___flmul@a
  3546  0090                     l2085:
  3547  0090  0837               	movf	___flmul@aexp,w
  3548  0091  1903               	btfsc	3,2
  3549  0092  2894               	goto	u2481
  3550  0093  2895               	goto	u2480
  3551  0094                     u2481:
  3552  0094  289A               	goto	l2089
  3553  0095                     u2480:
  3554  0095                     l2087:
  3555  0095  0838               	movf	___flmul@bexp,w
  3556  0096  1D03               	btfss	3,2
  3557  0097  2899               	goto	u2491
  3558  0098  289A               	goto	u2490
  3559  0099                     u2491:
  3560  0099  28A3               	goto	l2093
  3561  009A                     u2490:
  3562  009A                     l2089:
  3563  009A  3000               	movlw	0
  3564  009B  00A8               	movwf	?___flmul+3
  3565  009C  3000               	movlw	0
  3566  009D  00A7               	movwf	?___flmul+2
  3567  009E  3000               	movlw	0
  3568  009F  00A6               	movwf	?___flmul+1
  3569  00A0  3000               	movlw	0
  3570  00A1  00A5               	movwf	?___flmul
  3571  00A2  2B96               	goto	l677
  3572  00A3                     l2093:
  3573  00A3  0825               	movf	___flmul@b,w
  3574  00A4  00FF               	movwf	btemp+1
  3575  00A5  087F               	movf	btemp+1,w
  3576  00A6  00F3               	movwf	__Umul8_16@multiplicand
  3577  00A7  082B               	movf	___flmul@a+2,w
  3578  00A8  120A  158A  238E  120A  118A  	fcall	__Umul8_16
  3579  00AD  0874               	movf	?__Umul8_16+1,w
  3580  00AE  1283               	bcf	3,5	;RP0=0, select bank0
  3581  00AF  1303               	bcf	3,6	;RP1=0, select bank0
  3582  00B0  00BE               	movwf	___flmul@temp+1
  3583  00B1  0873               	movf	?__Umul8_16,w
  3584  00B2  00BD               	movwf	___flmul@temp
  3585  00B3                     l2095:
  3586  00B3  083D               	movf	___flmul@temp,w
  3587  00B4  00AD               	movwf	??___flmul
  3588  00B5  01AE               	clrf	??___flmul+1
  3589  00B6  01AF               	clrf	??___flmul+2
  3590  00B7  01B0               	clrf	??___flmul+3
  3591  00B8  0830               	movf	??___flmul+3,w
  3592  00B9  00B6               	movwf	___flmul@grs+3
  3593  00BA  082F               	movf	??___flmul+2,w
  3594  00BB  00B5               	movwf	___flmul@grs+2
  3595  00BC  082E               	movf	??___flmul+1,w
  3596  00BD  00B4               	movwf	___flmul@grs+1
  3597  00BE  082D               	movf	??___flmul,w
  3598  00BF  00B3               	movwf	___flmul@grs
  3599  00C0                     l2097:
  3600  00C0  083E               	movf	___flmul@temp+1,w
  3601  00C1  00AD               	movwf	??___flmul
  3602  00C2  01AE               	clrf	??___flmul+1
  3603  00C3  01AF               	clrf	??___flmul+2
  3604  00C4  01B0               	clrf	??___flmul+3
  3605  00C5  0830               	movf	??___flmul+3,w
  3606  00C6  00BC               	movwf	___flmul@prod+3
  3607  00C7  082F               	movf	??___flmul+2,w
  3608  00C8  00BB               	movwf	___flmul@prod+2
  3609  00C9  082E               	movf	??___flmul+1,w
  3610  00CA  00BA               	movwf	___flmul@prod+1
  3611  00CB  082D               	movf	??___flmul,w
  3612  00CC  00B9               	movwf	___flmul@prod
  3613  00CD  0826               	movf	___flmul@b+1,w
  3614  00CE  00FF               	movwf	btemp+1
  3615  00CF  087F               	movf	btemp+1,w
  3616  00D0  00F3               	movwf	__Umul8_16@multiplicand
  3617  00D1  082A               	movf	___flmul@a+1,w
  3618  00D2  120A  158A  238E  120A  118A  	fcall	__Umul8_16
  3619  00D7  0874               	movf	?__Umul8_16+1,w
  3620  00D8  1283               	bcf	3,5	;RP0=0, select bank0
  3621  00D9  1303               	bcf	3,6	;RP1=0, select bank0
  3622  00DA  00BE               	movwf	___flmul@temp+1
  3623  00DB  0873               	movf	?__Umul8_16,w
  3624  00DC  00BD               	movwf	___flmul@temp
  3625  00DD                     l2099:
  3626  00DD  083D               	movf	___flmul@temp,w
  3627  00DE  00AD               	movwf	??___flmul
  3628  00DF  01AE               	clrf	??___flmul+1
  3629  00E0  01AF               	clrf	??___flmul+2
  3630  00E1  01B0               	clrf	??___flmul+3
  3631  00E2  082D               	movf	??___flmul,w
  3632  00E3  07B3               	addwf	___flmul@grs,f
  3633  00E4  082E               	movf	??___flmul+1,w
  3634  00E5  1103               	clrz
  3635  00E6  1803               	skipnc
  3636  00E7  3E01               	addlw	1
  3637  00E8  1903               	skipnz
  3638  00E9  28EB               	goto	u2501
  3639  00EA  07B4               	addwf	___flmul@grs+1,f
  3640  00EB                     u2501:
  3641  00EB  082F               	movf	??___flmul+2,w
  3642  00EC  1103               	clrz
  3643  00ED  1803               	skipnc
  3644  00EE  3E01               	addlw	1
  3645  00EF  1903               	skipnz
  3646  00F0  28F2               	goto	u2502
  3647  00F1  07B5               	addwf	___flmul@grs+2,f
  3648  00F2                     u2502:
  3649  00F2  0830               	movf	??___flmul+3,w
  3650  00F3  1103               	clrz
  3651  00F4  1803               	skipnc
  3652  00F5  3E01               	addlw	1
  3653  00F6  1903               	skipnz
  3654  00F7  28F9               	goto	u2503
  3655  00F8  07B6               	addwf	___flmul@grs+3,f
  3656  00F9                     u2503:
  3657  00F9                     l2101:
  3658  00F9  083E               	movf	___flmul@temp+1,w
  3659  00FA  00AD               	movwf	??___flmul
  3660  00FB  01AE               	clrf	??___flmul+1
  3661  00FC  01AF               	clrf	??___flmul+2
  3662  00FD  01B0               	clrf	??___flmul+3
  3663  00FE  082D               	movf	??___flmul,w
  3664  00FF  07B9               	addwf	___flmul@prod,f
  3665  0100  082E               	movf	??___flmul+1,w
  3666  0101  1103               	clrz
  3667  0102  1803               	skipnc
  3668  0103  3E01               	addlw	1
  3669  0104  1903               	skipnz
  3670  0105  2907               	goto	u2511
  3671  0106  07BA               	addwf	___flmul@prod+1,f
  3672  0107                     u2511:
  3673  0107  082F               	movf	??___flmul+2,w
  3674  0108  1103               	clrz
  3675  0109  1803               	skipnc
  3676  010A  3E01               	addlw	1
  3677  010B  1903               	skipnz
  3678  010C  290E               	goto	u2512
  3679  010D  07BB               	addwf	___flmul@prod+2,f
  3680  010E                     u2512:
  3681  010E  0830               	movf	??___flmul+3,w
  3682  010F  1103               	clrz
  3683  0110  1803               	skipnc
  3684  0111  3E01               	addlw	1
  3685  0112  1903               	skipnz
  3686  0113  2915               	goto	u2513
  3687  0114  07BC               	addwf	___flmul@prod+3,f
  3688  0115                     u2513:
  3689  0115  0827               	movf	___flmul@b+2,w
  3690  0116  00FF               	movwf	btemp+1
  3691  0117  087F               	movf	btemp+1,w
  3692  0118  00F3               	movwf	__Umul8_16@multiplicand
  3693  0119  0829               	movf	___flmul@a,w
  3694  011A  120A  158A  238E  120A  118A  	fcall	__Umul8_16
  3695  011F  0874               	movf	?__Umul8_16+1,w
  3696  0120  1283               	bcf	3,5	;RP0=0, select bank0
  3697  0121  1303               	bcf	3,6	;RP1=0, select bank0
  3698  0122  00BE               	movwf	___flmul@temp+1
  3699  0123  0873               	movf	?__Umul8_16,w
  3700  0124  00BD               	movwf	___flmul@temp
  3701  0125                     l2103:
  3702  0125  083D               	movf	___flmul@temp,w
  3703  0126  00AD               	movwf	??___flmul
  3704  0127  01AE               	clrf	??___flmul+1
  3705  0128  01AF               	clrf	??___flmul+2
  3706  0129  01B0               	clrf	??___flmul+3
  3707  012A  082D               	movf	??___flmul,w
  3708  012B  07B3               	addwf	___flmul@grs,f
  3709  012C  082E               	movf	??___flmul+1,w
  3710  012D  1103               	clrz
  3711  012E  1803               	skipnc
  3712  012F  3E01               	addlw	1
  3713  0130  1903               	skipnz
  3714  0131  2933               	goto	u2521
  3715  0132  07B4               	addwf	___flmul@grs+1,f
  3716  0133                     u2521:
  3717  0133  082F               	movf	??___flmul+2,w
  3718  0134  1103               	clrz
  3719  0135  1803               	skipnc
  3720  0136  3E01               	addlw	1
  3721  0137  1903               	skipnz
  3722  0138  293A               	goto	u2522
  3723  0139  07B5               	addwf	___flmul@grs+2,f
  3724  013A                     u2522:
  3725  013A  0830               	movf	??___flmul+3,w
  3726  013B  1103               	clrz
  3727  013C  1803               	skipnc
  3728  013D  3E01               	addlw	1
  3729  013E  1903               	skipnz
  3730  013F  2941               	goto	u2523
  3731  0140  07B6               	addwf	___flmul@grs+3,f
  3732  0141                     u2523:
  3733  0141                     l2105:
  3734  0141  083E               	movf	___flmul@temp+1,w
  3735  0142  00AD               	movwf	??___flmul
  3736  0143  01AE               	clrf	??___flmul+1
  3737  0144  01AF               	clrf	??___flmul+2
  3738  0145  01B0               	clrf	??___flmul+3
  3739  0146  082D               	movf	??___flmul,w
  3740  0147  07B9               	addwf	___flmul@prod,f
  3741  0148  082E               	movf	??___flmul+1,w
  3742  0149  1103               	clrz
  3743  014A  1803               	skipnc
  3744  014B  3E01               	addlw	1
  3745  014C  1903               	skipnz
  3746  014D  294F               	goto	u2531
  3747  014E  07BA               	addwf	___flmul@prod+1,f
  3748  014F                     u2531:
  3749  014F  082F               	movf	??___flmul+2,w
  3750  0150  1103               	clrz
  3751  0151  1803               	skipnc
  3752  0152  3E01               	addlw	1
  3753  0153  1903               	skipnz
  3754  0154  2956               	goto	u2532
  3755  0155  07BB               	addwf	___flmul@prod+2,f
  3756  0156                     u2532:
  3757  0156  0830               	movf	??___flmul+3,w
  3758  0157  1103               	clrz
  3759  0158  1803               	skipnc
  3760  0159  3E01               	addlw	1
  3761  015A  1903               	skipnz
  3762  015B  295D               	goto	u2533
  3763  015C  07BC               	addwf	___flmul@prod+3,f
  3764  015D                     u2533:
  3765  015D                     l2107:
  3766  015D  3008               	movlw	8
  3767  015E  00AD               	movwf	??___flmul
  3768  015F                     u2545:
  3769  015F  1003               	clrc
  3770  0160  0DB3               	rlf	___flmul@grs,f
  3771  0161  0DB4               	rlf	___flmul@grs+1,f
  3772  0162  0DB5               	rlf	___flmul@grs+2,f
  3773  0163  0DB6               	rlf	___flmul@grs+3,f
  3774  0164  0BAD               	decfsz	??___flmul,f
  3775  0165  295F               	goto	u2545
  3776  0166                     l2109:
  3777  0166  0826               	movf	___flmul@b+1,w
  3778  0167  00FF               	movwf	btemp+1
  3779  0168  087F               	movf	btemp+1,w
  3780  0169  00F3               	movwf	__Umul8_16@multiplicand
  3781  016A  0829               	movf	___flmul@a,w
  3782  016B  120A  158A  238E  120A  118A  	fcall	__Umul8_16
  3783  0170  0874               	movf	?__Umul8_16+1,w
  3784  0171  1283               	bcf	3,5	;RP0=0, select bank0
  3785  0172  1303               	bcf	3,6	;RP1=0, select bank0
  3786  0173  00BE               	movwf	___flmul@temp+1
  3787  0174  0873               	movf	?__Umul8_16,w
  3788  0175  00BD               	movwf	___flmul@temp
  3789  0176                     l2111:
  3790  0176  083D               	movf	___flmul@temp,w
  3791  0177  00AD               	movwf	??___flmul
  3792  0178  083E               	movf	___flmul@temp+1,w
  3793  0179  00AE               	movwf	??___flmul+1
  3794  017A  01AF               	clrf	??___flmul+2
  3795  017B  01B0               	clrf	??___flmul+3
  3796  017C  082D               	movf	??___flmul,w
  3797  017D  07B3               	addwf	___flmul@grs,f
  3798  017E  082E               	movf	??___flmul+1,w
  3799  017F  1103               	clrz
  3800  0180  1803               	skipnc
  3801  0181  3E01               	addlw	1
  3802  0182  1903               	skipnz
  3803  0183  2985               	goto	u2551
  3804  0184  07B4               	addwf	___flmul@grs+1,f
  3805  0185                     u2551:
  3806  0185  082F               	movf	??___flmul+2,w
  3807  0186  1103               	clrz
  3808  0187  1803               	skipnc
  3809  0188  3E01               	addlw	1
  3810  0189  1903               	skipnz
  3811  018A  298C               	goto	u2552
  3812  018B  07B5               	addwf	___flmul@grs+2,f
  3813  018C                     u2552:
  3814  018C  0830               	movf	??___flmul+3,w
  3815  018D  1103               	clrz
  3816  018E  1803               	skipnc
  3817  018F  3E01               	addlw	1
  3818  0190  1903               	skipnz
  3819  0191  2993               	goto	u2553
  3820  0192  07B6               	addwf	___flmul@grs+3,f
  3821  0193                     u2553:
  3822  0193                     l2113:
  3823  0193  0825               	movf	___flmul@b,w
  3824  0194  00FF               	movwf	btemp+1
  3825  0195  087F               	movf	btemp+1,w
  3826  0196  00F3               	movwf	__Umul8_16@multiplicand
  3827  0197  082A               	movf	___flmul@a+1,w
  3828  0198  120A  158A  238E  120A  118A  	fcall	__Umul8_16
  3829  019D  0874               	movf	?__Umul8_16+1,w
  3830  019E  1283               	bcf	3,5	;RP0=0, select bank0
  3831  019F  1303               	bcf	3,6	;RP1=0, select bank0
  3832  01A0  00BE               	movwf	___flmul@temp+1
  3833  01A1  0873               	movf	?__Umul8_16,w
  3834  01A2  00BD               	movwf	___flmul@temp
  3835  01A3                     l2115:
  3836  01A3  083D               	movf	___flmul@temp,w
  3837  01A4  00AD               	movwf	??___flmul
  3838  01A5  083E               	movf	___flmul@temp+1,w
  3839  01A6  00AE               	movwf	??___flmul+1
  3840  01A7  01AF               	clrf	??___flmul+2
  3841  01A8  01B0               	clrf	??___flmul+3
  3842  01A9  082D               	movf	??___flmul,w
  3843  01AA  07B3               	addwf	___flmul@grs,f
  3844  01AB  082E               	movf	??___flmul+1,w
  3845  01AC  1103               	clrz
  3846  01AD  1803               	skipnc
  3847  01AE  3E01               	addlw	1
  3848  01AF  1903               	skipnz
  3849  01B0  29B2               	goto	u2561
  3850  01B1  07B4               	addwf	___flmul@grs+1,f
  3851  01B2                     u2561:
  3852  01B2  082F               	movf	??___flmul+2,w
  3853  01B3  1103               	clrz
  3854  01B4  1803               	skipnc
  3855  01B5  3E01               	addlw	1
  3856  01B6  1903               	skipnz
  3857  01B7  29B9               	goto	u2562
  3858  01B8  07B5               	addwf	___flmul@grs+2,f
  3859  01B9                     u2562:
  3860  01B9  0830               	movf	??___flmul+3,w
  3861  01BA  1103               	clrz
  3862  01BB  1803               	skipnc
  3863  01BC  3E01               	addlw	1
  3864  01BD  1903               	skipnz
  3865  01BE  29C0               	goto	u2563
  3866  01BF  07B6               	addwf	___flmul@grs+3,f
  3867  01C0                     u2563:
  3868  01C0                     l2117:
  3869  01C0  3008               	movlw	8
  3870  01C1  00AD               	movwf	??___flmul
  3871  01C2                     u2575:
  3872  01C2  1003               	clrc
  3873  01C3  0DB3               	rlf	___flmul@grs,f
  3874  01C4  0DB4               	rlf	___flmul@grs+1,f
  3875  01C5  0DB5               	rlf	___flmul@grs+2,f
  3876  01C6  0DB6               	rlf	___flmul@grs+3,f
  3877  01C7  0BAD               	decfsz	??___flmul,f
  3878  01C8  29C2               	goto	u2575
  3879  01C9  0825               	movf	___flmul@b,w
  3880  01CA  00FF               	movwf	btemp+1
  3881  01CB  087F               	movf	btemp+1,w
  3882  01CC  00F3               	movwf	__Umul8_16@multiplicand
  3883  01CD  0829               	movf	___flmul@a,w
  3884  01CE  120A  158A  238E  120A  118A  	fcall	__Umul8_16
  3885  01D3  0874               	movf	?__Umul8_16+1,w
  3886  01D4  1283               	bcf	3,5	;RP0=0, select bank0
  3887  01D5  1303               	bcf	3,6	;RP1=0, select bank0
  3888  01D6  00BE               	movwf	___flmul@temp+1
  3889  01D7  0873               	movf	?__Umul8_16,w
  3890  01D8  00BD               	movwf	___flmul@temp
  3891  01D9                     l2119:
  3892  01D9  083D               	movf	___flmul@temp,w
  3893  01DA  00AD               	movwf	??___flmul
  3894  01DB  083E               	movf	___flmul@temp+1,w
  3895  01DC  00AE               	movwf	??___flmul+1
  3896  01DD  01AF               	clrf	??___flmul+2
  3897  01DE  01B0               	clrf	??___flmul+3
  3898  01DF  082D               	movf	??___flmul,w
  3899  01E0  07B3               	addwf	___flmul@grs,f
  3900  01E1  082E               	movf	??___flmul+1,w
  3901  01E2  1103               	clrz
  3902  01E3  1803               	skipnc
  3903  01E4  3E01               	addlw	1
  3904  01E5  1903               	skipnz
  3905  01E6  29E8               	goto	u2581
  3906  01E7  07B4               	addwf	___flmul@grs+1,f
  3907  01E8                     u2581:
  3908  01E8  082F               	movf	??___flmul+2,w
  3909  01E9  1103               	clrz
  3910  01EA  1803               	skipnc
  3911  01EB  3E01               	addlw	1
  3912  01EC  1903               	skipnz
  3913  01ED  29EF               	goto	u2582
  3914  01EE  07B5               	addwf	___flmul@grs+2,f
  3915  01EF                     u2582:
  3916  01EF  0830               	movf	??___flmul+3,w
  3917  01F0  1103               	clrz
  3918  01F1  1803               	skipnc
  3919  01F2  3E01               	addlw	1
  3920  01F3  1903               	skipnz
  3921  01F4  29F6               	goto	u2583
  3922  01F5  07B6               	addwf	___flmul@grs+3,f
  3923  01F6                     u2583:
  3924  01F6                     l2121:
  3925  01F6  0826               	movf	___flmul@b+1,w
  3926  01F7  00FF               	movwf	btemp+1
  3927  01F8  087F               	movf	btemp+1,w
  3928  01F9  00F3               	movwf	__Umul8_16@multiplicand
  3929  01FA  082B               	movf	___flmul@a+2,w
  3930  01FB  120A  158A  238E  120A  118A  	fcall	__Umul8_16
  3931  0200  0874               	movf	?__Umul8_16+1,w
  3932  0201  1283               	bcf	3,5	;RP0=0, select bank0
  3933  0202  1303               	bcf	3,6	;RP1=0, select bank0
  3934  0203  00BE               	movwf	___flmul@temp+1
  3935  0204  0873               	movf	?__Umul8_16,w
  3936  0205  00BD               	movwf	___flmul@temp
  3937  0206  083D               	movf	___flmul@temp,w
  3938  0207  00AD               	movwf	??___flmul
  3939  0208  083E               	movf	___flmul@temp+1,w
  3940  0209  00AE               	movwf	??___flmul+1
  3941  020A  01AF               	clrf	??___flmul+2
  3942  020B  01B0               	clrf	??___flmul+3
  3943  020C  082D               	movf	??___flmul,w
  3944  020D  07B9               	addwf	___flmul@prod,f
  3945  020E  082E               	movf	??___flmul+1,w
  3946  020F  1103               	clrz
  3947  0210  1803               	skipnc
  3948  0211  3E01               	addlw	1
  3949  0212  1903               	skipnz
  3950  0213  2A15               	goto	u2591
  3951  0214  07BA               	addwf	___flmul@prod+1,f
  3952  0215                     u2591:
  3953  0215  082F               	movf	??___flmul+2,w
  3954  0216  1103               	clrz
  3955  0217  1803               	skipnc
  3956  0218  3E01               	addlw	1
  3957  0219  1903               	skipnz
  3958  021A  2A1C               	goto	u2592
  3959  021B  07BB               	addwf	___flmul@prod+2,f
  3960  021C                     u2592:
  3961  021C  0830               	movf	??___flmul+3,w
  3962  021D  1103               	clrz
  3963  021E  1803               	skipnc
  3964  021F  3E01               	addlw	1
  3965  0220  1903               	skipnz
  3966  0221  2A23               	goto	u2593
  3967  0222  07BC               	addwf	___flmul@prod+3,f
  3968  0223                     u2593:
  3969  0223                     l2123:
  3970  0223  0827               	movf	___flmul@b+2,w
  3971  0224  00FF               	movwf	btemp+1
  3972  0225  087F               	movf	btemp+1,w
  3973  0226  00F3               	movwf	__Umul8_16@multiplicand
  3974  0227  082A               	movf	___flmul@a+1,w
  3975  0228  120A  158A  238E  120A  118A  	fcall	__Umul8_16
  3976  022D  0874               	movf	?__Umul8_16+1,w
  3977  022E  1283               	bcf	3,5	;RP0=0, select bank0
  3978  022F  1303               	bcf	3,6	;RP1=0, select bank0
  3979  0230  00BE               	movwf	___flmul@temp+1
  3980  0231  0873               	movf	?__Umul8_16,w
  3981  0232  00BD               	movwf	___flmul@temp
  3982  0233                     l2125:
  3983  0233  083D               	movf	___flmul@temp,w
  3984  0234  00AD               	movwf	??___flmul
  3985  0235  083E               	movf	___flmul@temp+1,w
  3986  0236  00AE               	movwf	??___flmul+1
  3987  0237  01AF               	clrf	??___flmul+2
  3988  0238  01B0               	clrf	??___flmul+3
  3989  0239  082D               	movf	??___flmul,w
  3990  023A  07B9               	addwf	___flmul@prod,f
  3991  023B  082E               	movf	??___flmul+1,w
  3992  023C  1103               	clrz
  3993  023D  1803               	skipnc
  3994  023E  3E01               	addlw	1
  3995  023F  1903               	skipnz
  3996  0240  2A42               	goto	u2601
  3997  0241  07BA               	addwf	___flmul@prod+1,f
  3998  0242                     u2601:
  3999  0242  082F               	movf	??___flmul+2,w
  4000  0243  1103               	clrz
  4001  0244  1803               	skipnc
  4002  0245  3E01               	addlw	1
  4003  0246  1903               	skipnz
  4004  0247  2A49               	goto	u2602
  4005  0248  07BB               	addwf	___flmul@prod+2,f
  4006  0249                     u2602:
  4007  0249  0830               	movf	??___flmul+3,w
  4008  024A  1103               	clrz
  4009  024B  1803               	skipnc
  4010  024C  3E01               	addlw	1
  4011  024D  1903               	skipnz
  4012  024E  2A50               	goto	u2603
  4013  024F  07BC               	addwf	___flmul@prod+3,f
  4014  0250                     u2603:
  4015  0250  0827               	movf	___flmul@b+2,w
  4016  0251  00FF               	movwf	btemp+1
  4017  0252  087F               	movf	btemp+1,w
  4018  0253  00F3               	movwf	__Umul8_16@multiplicand
  4019  0254  082B               	movf	___flmul@a+2,w
  4020  0255  120A  158A  238E  120A  118A  	fcall	__Umul8_16
  4021  025A  0874               	movf	?__Umul8_16+1,w
  4022  025B  1283               	bcf	3,5	;RP0=0, select bank0
  4023  025C  1303               	bcf	3,6	;RP1=0, select bank0
  4024  025D  00BE               	movwf	___flmul@temp+1
  4025  025E  0873               	movf	?__Umul8_16,w
  4026  025F  00BD               	movwf	___flmul@temp
  4027  0260                     l2127:
  4028  0260  083D               	movf	___flmul@temp,w
  4029  0261  00AD               	movwf	??___flmul
  4030  0262  083E               	movf	___flmul@temp+1,w
  4031  0263  00AE               	movwf	??___flmul+1
  4032  0264  01AF               	clrf	??___flmul+2
  4033  0265  01B0               	clrf	??___flmul+3
  4034  0266  3008               	movlw	8
  4035  0267                     u2615:
  4036  0267  1003               	clrc
  4037  0268  0DAD               	rlf	??___flmul,f
  4038  0269  0DAE               	rlf	??___flmul+1,f
  4039  026A  0DAF               	rlf	??___flmul+2,f
  4040  026B  0DB0               	rlf	??___flmul+3,f
  4041  026C                     u2610:
  4042  026C  3EFF               	addlw	-1
  4043  026D  1D03               	skipz
  4044  026E  2A67               	goto	u2615
  4045  026F  082D               	movf	??___flmul,w
  4046  0270  07B9               	addwf	___flmul@prod,f
  4047  0271  082E               	movf	??___flmul+1,w
  4048  0272  1103               	clrz
  4049  0273  1803               	skipnc
  4050  0274  3E01               	addlw	1
  4051  0275  1903               	skipnz
  4052  0276  2A78               	goto	u2621
  4053  0277  07BA               	addwf	___flmul@prod+1,f
  4054  0278                     u2621:
  4055  0278  082F               	movf	??___flmul+2,w
  4056  0279  1103               	clrz
  4057  027A  1803               	skipnc
  4058  027B  3E01               	addlw	1
  4059  027C  1903               	skipnz
  4060  027D  2A7F               	goto	u2622
  4061  027E  07BB               	addwf	___flmul@prod+2,f
  4062  027F                     u2622:
  4063  027F  0830               	movf	??___flmul+3,w
  4064  0280  1103               	clrz
  4065  0281  1803               	skipnc
  4066  0282  3E01               	addlw	1
  4067  0283  1903               	skipnz
  4068  0284  2A86               	goto	u2623
  4069  0285  07BC               	addwf	___flmul@prod+3,f
  4070  0286                     u2623:
  4071  0286                     l2129:
  4072  0286  0833               	movf	___flmul@grs,w
  4073  0287  00AD               	movwf	??___flmul
  4074  0288  0834               	movf	___flmul@grs+1,w
  4075  0289  00AE               	movwf	??___flmul+1
  4076  028A  0835               	movf	___flmul@grs+2,w
  4077  028B  00AF               	movwf	??___flmul+2
  4078  028C  0836               	movf	___flmul@grs+3,w
  4079  028D  00B0               	movwf	??___flmul+3
  4080  028E  3018               	movlw	24
  4081  028F                     u2635:
  4082  028F  1003               	clrc
  4083  0290  0CB0               	rrf	??___flmul+3,f
  4084  0291  0CAF               	rrf	??___flmul+2,f
  4085  0292  0CAE               	rrf	??___flmul+1,f
  4086  0293  0CAD               	rrf	??___flmul,f
  4087  0294                     u2630:
  4088  0294  3EFF               	addlw	-1
  4089  0295  1D03               	skipz
  4090  0296  2A8F               	goto	u2635
  4091  0297  082D               	movf	??___flmul,w
  4092  0298  07B9               	addwf	___flmul@prod,f
  4093  0299  082E               	movf	??___flmul+1,w
  4094  029A  1103               	clrz
  4095  029B  1803               	skipnc
  4096  029C  3E01               	addlw	1
  4097  029D  1903               	skipnz
  4098  029E  2AA0               	goto	u2641
  4099  029F  07BA               	addwf	___flmul@prod+1,f
  4100  02A0                     u2641:
  4101  02A0  082F               	movf	??___flmul+2,w
  4102  02A1  1103               	clrz
  4103  02A2  1803               	skipnc
  4104  02A3  3E01               	addlw	1
  4105  02A4  1903               	skipnz
  4106  02A5  2AA7               	goto	u2642
  4107  02A6  07BB               	addwf	___flmul@prod+2,f
  4108  02A7                     u2642:
  4109  02A7  0830               	movf	??___flmul+3,w
  4110  02A8  1103               	clrz
  4111  02A9  1803               	skipnc
  4112  02AA  3E01               	addlw	1
  4113  02AB  1903               	skipnz
  4114  02AC  2AAE               	goto	u2643
  4115  02AD  07BC               	addwf	___flmul@prod+3,f
  4116  02AE                     u2643:
  4117  02AE                     l2131:
  4118  02AE  3008               	movlw	8
  4119  02AF  00AD               	movwf	??___flmul
  4120  02B0                     u2655:
  4121  02B0  1003               	clrc
  4122  02B1  0DB3               	rlf	___flmul@grs,f
  4123  02B2  0DB4               	rlf	___flmul@grs+1,f
  4124  02B3  0DB5               	rlf	___flmul@grs+2,f
  4125  02B4  0DB6               	rlf	___flmul@grs+3,f
  4126  02B5  0BAD               	decfsz	??___flmul,f
  4127  02B6  2AB0               	goto	u2655
  4128  02B7                     l2133:
  4129  02B7  0838               	movf	___flmul@bexp,w
  4130  02B8  0737               	addwf	___flmul@aexp,w
  4131  02B9  00AD               	movwf	??___flmul
  4132  02BA  01AE               	clrf	??___flmul+1
  4133  02BB  0DAE               	rlf	??___flmul+1,f
  4134  02BC  082D               	movf	??___flmul,w
  4135  02BD  3E82               	addlw	130
  4136  02BE  00BD               	movwf	___flmul@temp
  4137  02BF  082E               	movf	??___flmul+1,w
  4138  02C0  1803               	skipnc
  4139  02C1  3E01               	addlw	1
  4140  02C2  3EFF               	addlw	255
  4141  02C3  00BE               	movwf	___flmul@temp+1
  4142  02C4  2AE2               	goto	l2145
  4143  02C5                     l2135:
  4144  02C5  3001               	movlw	1
  4145  02C6  00AD               	movwf	??___flmul
  4146  02C7                     u2665:
  4147  02C7  1003               	clrc
  4148  02C8  0DB9               	rlf	___flmul@prod,f
  4149  02C9  0DBA               	rlf	___flmul@prod+1,f
  4150  02CA  0DBB               	rlf	___flmul@prod+2,f
  4151  02CB  0DBC               	rlf	___flmul@prod+3,f
  4152  02CC  0BAD               	decfsz	??___flmul,f
  4153  02CD  2AC7               	goto	u2665
  4154  02CE                     l2137:
  4155  02CE  1FB6               	btfss	___flmul@grs+3,7
  4156  02CF  2AD1               	goto	u2671
  4157  02D0  2AD2               	goto	u2670
  4158  02D1                     u2671:
  4159  02D1  2AD3               	goto	l2141
  4160  02D2                     u2670:
  4161  02D2                     l2139:
  4162  02D2  1439               	bsf	___flmul@prod,0
  4163  02D3                     l2141:
  4164  02D3  3001               	movlw	1
  4165  02D4  00AD               	movwf	??___flmul
  4166  02D5                     u2685:
  4167  02D5  1003               	clrc
  4168  02D6  0DB3               	rlf	___flmul@grs,f
  4169  02D7  0DB4               	rlf	___flmul@grs+1,f
  4170  02D8  0DB5               	rlf	___flmul@grs+2,f
  4171  02D9  0DB6               	rlf	___flmul@grs+3,f
  4172  02DA  0BAD               	decfsz	??___flmul,f
  4173  02DB  2AD5               	goto	u2685
  4174  02DC                     l2143:
  4175  02DC  30FF               	movlw	255
  4176  02DD  07BD               	addwf	___flmul@temp,f
  4177  02DE  1803               	skipnc
  4178  02DF  0ABE               	incf	___flmul@temp+1,f
  4179  02E0  30FF               	movlw	255
  4180  02E1  07BE               	addwf	___flmul@temp+1,f
  4181  02E2                     l2145:
  4182  02E2  1FBB               	btfss	___flmul@prod+2,7
  4183  02E3  2AE5               	goto	u2691
  4184  02E4  2AE6               	goto	u2690
  4185  02E5                     u2691:
  4186  02E5  2AC5               	goto	l2135
  4187  02E6                     u2690:
  4188  02E6                     l2147:
  4189  02E6  01B7               	clrf	___flmul@aexp
  4190  02E7                     l2149:
  4191  02E7  1FB6               	btfss	___flmul@grs+3,7
  4192  02E8  2AEA               	goto	u2701
  4193  02E9  2AEB               	goto	u2700
  4194  02EA                     u2701:
  4195  02EA  2B07               	goto	l2157
  4196  02EB                     u2700:
  4197  02EB                     l2151:
  4198  02EB  30FF               	movlw	255
  4199  02EC  0533               	andwf	___flmul@grs,w
  4200  02ED  00AD               	movwf	??___flmul
  4201  02EE  30FF               	movlw	255
  4202  02EF  0534               	andwf	___flmul@grs+1,w
  4203  02F0  00AE               	movwf	??___flmul+1
  4204  02F1  30FF               	movlw	255
  4205  02F2  0535               	andwf	___flmul@grs+2,w
  4206  02F3  00AF               	movwf	??___flmul+2
  4207  02F4  307F               	movlw	127
  4208  02F5  0536               	andwf	___flmul@grs+3,w
  4209  02F6  00B0               	movwf	??___flmul+3
  4210  02F7  0830               	movf	??___flmul+3,w
  4211  02F8  042F               	iorwf	??___flmul+2,w
  4212  02F9  042E               	iorwf	??___flmul+1,w
  4213  02FA  042D               	iorwf	??___flmul,w
  4214  02FB  1903               	skipnz
  4215  02FC  2AFE               	goto	u2711
  4216  02FD  2AFF               	goto	u2710
  4217  02FE                     u2711:
  4218  02FE  2B02               	goto	l683
  4219  02FF                     u2710:
  4220  02FF                     l2153:
  4221  02FF  01B7               	clrf	___flmul@aexp
  4222  0300  0AB7               	incf	___flmul@aexp,f
  4223  0301  2B07               	goto	l2157
  4224  0302                     l683:
  4225  0302  1C39               	btfss	___flmul@prod,0
  4226  0303  2B05               	goto	u2721
  4227  0304  2B06               	goto	u2720
  4228  0305                     u2721:
  4229  0305  2B07               	goto	l2157
  4230  0306                     u2720:
  4231  0306  2AFF               	goto	l2153
  4232  0307                     l2157:
  4233  0307  0837               	movf	___flmul@aexp,w
  4234  0308  1903               	btfsc	3,2
  4235  0309  2B0B               	goto	u2731
  4236  030A  2B0C               	goto	u2730
  4237  030B                     u2731:
  4238  030B  2B3D               	goto	l2167
  4239  030C                     u2730:
  4240  030C                     l2159:
  4241  030C  3001               	movlw	1
  4242  030D  07B9               	addwf	___flmul@prod,f
  4243  030E  3000               	movlw	0
  4244  030F  1803               	skipnc
  4245  0310  3001               	movlw	1
  4246  0311  07BA               	addwf	___flmul@prod+1,f
  4247  0312  3000               	movlw	0
  4248  0313  1803               	skipnc
  4249  0314  3001               	movlw	1
  4250  0315  07BB               	addwf	___flmul@prod+2,f
  4251  0316  3000               	movlw	0
  4252  0317  1803               	skipnc
  4253  0318  3001               	movlw	1
  4254  0319  07BC               	addwf	___flmul@prod+3,f
  4255  031A                     l2161:
  4256  031A  1C3C               	btfss	___flmul@prod+3,0
  4257  031B  2B1D               	goto	u2741
  4258  031C  2B1E               	goto	u2740
  4259  031D                     u2741:
  4260  031D  2B3D               	goto	l2167
  4261  031E                     u2740:
  4262  031E                     l2163:
  4263  031E  0839               	movf	___flmul@prod,w
  4264  031F  00AD               	movwf	??___flmul
  4265  0320  083A               	movf	___flmul@prod+1,w
  4266  0321  00AE               	movwf	??___flmul+1
  4267  0322  083B               	movf	___flmul@prod+2,w
  4268  0323  00AF               	movwf	??___flmul+2
  4269  0324  083C               	movf	___flmul@prod+3,w
  4270  0325  00B0               	movwf	??___flmul+3
  4271  0326  3001               	movlw	1
  4272  0327  00B1               	movwf	??___flmul+4
  4273  0328                     u2755:
  4274  0328  0D30               	rlf	??___flmul+3,w
  4275  0329  0CB0               	rrf	??___flmul+3,f
  4276  032A  0CAF               	rrf	??___flmul+2,f
  4277  032B  0CAE               	rrf	??___flmul+1,f
  4278  032C  0CAD               	rrf	??___flmul,f
  4279  032D                     u2750:
  4280  032D  0BB1               	decfsz	??___flmul+4,f
  4281  032E  2B28               	goto	u2755
  4282  032F  0830               	movf	??___flmul+3,w
  4283  0330  00BC               	movwf	___flmul@prod+3
  4284  0331  082F               	movf	??___flmul+2,w
  4285  0332  00BB               	movwf	___flmul@prod+2
  4286  0333  082E               	movf	??___flmul+1,w
  4287  0334  00BA               	movwf	___flmul@prod+1
  4288  0335  082D               	movf	??___flmul,w
  4289  0336  00B9               	movwf	___flmul@prod
  4290  0337                     l2165:
  4291  0337  3001               	movlw	1
  4292  0338  07BD               	addwf	___flmul@temp,f
  4293  0339  1803               	skipnc
  4294  033A  0ABE               	incf	___flmul@temp+1,f
  4295  033B  3000               	movlw	0
  4296  033C  07BE               	addwf	___flmul@temp+1,f
  4297  033D                     l2167:
  4298  033D  083E               	movf	___flmul@temp+1,w
  4299  033E  3A80               	xorlw	128
  4300  033F  00FF               	movwf	btemp+1
  4301  0340  3080               	movlw	128
  4302  0341  027F               	subwf	btemp+1,w
  4303  0342  1D03               	skipz
  4304  0343  2B46               	goto	u2765
  4305  0344  30FF               	movlw	255
  4306  0345  023D               	subwf	___flmul@temp,w
  4307  0346                     u2765:
  4308  0346  1C03               	skipc
  4309  0347  2B49               	goto	u2761
  4310  0348  2B4A               	goto	u2760
  4311  0349                     u2761:
  4312  0349  2B55               	goto	l2171
  4313  034A                     u2760:
  4314  034A                     l2169:
  4315  034A  307F               	movlw	127
  4316  034B  1283               	bcf	3,5	;RP0=0, select bank0
  4317  034C  1303               	bcf	3,6	;RP1=0, select bank0
  4318  034D  00BC               	movwf	___flmul@prod+3
  4319  034E  3080               	movlw	128
  4320  034F  00BB               	movwf	___flmul@prod+2
  4321  0350  3000               	movlw	0
  4322  0351  00BA               	movwf	___flmul@prod+1
  4323  0352  3000               	movlw	0
  4324  0353  00B9               	movwf	___flmul@prod
  4325  0354  2B8A               	goto	l689
  4326  0355                     l2171:
  4327  0355  1283               	bcf	3,5	;RP0=0, select bank0
  4328  0356  1303               	bcf	3,6	;RP1=0, select bank0
  4329  0357  083E               	movf	___flmul@temp+1,w
  4330  0358  3A80               	xorlw	128
  4331  0359  00FF               	movwf	btemp+1
  4332  035A  3080               	movlw	128
  4333  035B  027F               	subwf	btemp+1,w
  4334  035C  1D03               	skipz
  4335  035D  2B60               	goto	u2775
  4336  035E  3001               	movlw	1
  4337  035F  023D               	subwf	___flmul@temp,w
  4338  0360                     u2775:
  4339  0360  1803               	skipnc
  4340  0361  2B63               	goto	u2771
  4341  0362  2B64               	goto	u2770
  4342  0363                     u2771:
  4343  0363  2B70               	goto	l2177
  4344  0364                     u2770:
  4345  0364                     l2173:
  4346  0364  3000               	movlw	0
  4347  0365  1283               	bcf	3,5	;RP0=0, select bank0
  4348  0366  1303               	bcf	3,6	;RP1=0, select bank0
  4349  0367  00BC               	movwf	___flmul@prod+3
  4350  0368  3000               	movlw	0
  4351  0369  00BB               	movwf	___flmul@prod+2
  4352  036A  3000               	movlw	0
  4353  036B  00BA               	movwf	___flmul@prod+1
  4354  036C  3000               	movlw	0
  4355  036D  00B9               	movwf	___flmul@prod
  4356  036E                     l2175:
  4357  036E  01B2               	clrf	___flmul@sign
  4358  036F  2B8A               	goto	l689
  4359  0370                     l2177:
  4360  0370  1283               	bcf	3,5	;RP0=0, select bank0
  4361  0371  1303               	bcf	3,6	;RP1=0, select bank0
  4362  0372  083D               	movf	___flmul@temp,w
  4363  0373  00FF               	movwf	btemp+1
  4364  0374  087F               	movf	btemp+1,w
  4365  0375  00B8               	movwf	___flmul@bexp
  4366  0376                     l2179:
  4367  0376  30FF               	movlw	255
  4368  0377  05B9               	andwf	___flmul@prod,f
  4369  0378  30FF               	movlw	255
  4370  0379  05BA               	andwf	___flmul@prod+1,f
  4371  037A  307F               	movlw	127
  4372  037B  05BB               	andwf	___flmul@prod+2,f
  4373  037C  3000               	movlw	0
  4374  037D  05BC               	andwf	___flmul@prod+3,f
  4375  037E                     l2181:
  4376  037E  1C38               	btfss	___flmul@bexp,0
  4377  037F  2B81               	goto	u2781
  4378  0380  2B82               	goto	u2780
  4379  0381                     u2781:
  4380  0381  2B83               	goto	l2185
  4381  0382                     u2780:
  4382  0382                     l2183:
  4383  0382  17BB               	bsf	___flmul@prod+2,7
  4384  0383                     l2185:
  4385  0383  0838               	movf	___flmul@bexp,w
  4386  0384  00AD               	movwf	??___flmul
  4387  0385  1003               	clrc
  4388  0386  0C2D               	rrf	??___flmul,w
  4389  0387  00FF               	movwf	btemp+1
  4390  0388  087F               	movf	btemp+1,w
  4391  0389  00BC               	movwf	___flmul@prod+3
  4392  038A                     l689:
  4393  038A  0832               	movf	___flmul@sign,w
  4394  038B  00FF               	movwf	btemp+1
  4395  038C  087F               	movf	btemp+1,w
  4396  038D  04BC               	iorwf	___flmul@prod+3,f
  4397  038E                     l2187:
  4398  038E  083C               	movf	___flmul@prod+3,w
  4399  038F  00A8               	movwf	?___flmul+3
  4400  0390  083B               	movf	___flmul@prod+2,w
  4401  0391  00A7               	movwf	?___flmul+2
  4402  0392  083A               	movf	___flmul@prod+1,w
  4403  0393  00A6               	movwf	?___flmul+1
  4404  0394  0839               	movf	___flmul@prod,w
  4405  0395  00A5               	movwf	?___flmul
  4406  0396                     l677:
  4407  0396  0008               	return
  4408  0397                     __end_of___flmul:
  4409                           
  4410                           	psect	text12
  4411  0B8E                     __ptext12:	
  4412 ;; *************** function __Umul8_16 *****************
  4413 ;; Defined at:
  4414 ;;		line 4 in file "C:\Program Files\Microchip\xc8\v2.20\pic\sources\c90\common\Umul8_16.c"
  4415 ;; Parameters:    Size  Location     Type
  4416 ;;  multiplier      1    wreg     unsigned char 
  4417 ;;  multiplicand    1    3[COMMON] unsigned char 
  4418 ;; Auto vars:     Size  Location     Type
  4419 ;;  multiplier      1    4[BANK0 ] unsigned char 
  4420 ;;  word_mpld       2    2[BANK0 ] unsigned int 
  4421 ;;  product         2    0[BANK0 ] unsigned int 
  4422 ;; Return value:  Size  Location     Type
  4423 ;;                  2    3[COMMON] unsigned int 
  4424 ;; Registers used:
  4425 ;;		wreg, status,2, status,0
  4426 ;; Tracked objects:
  4427 ;;		On entry : 0/0
  4428 ;;		On exit  : 0/0
  4429 ;;		Unchanged: 0/0
  4430 ;; Data sizes:     COMMON   BANK0   BANK1   BANK3   BANK2
  4431 ;;      Params:         2       0       0       0       0
  4432 ;;      Locals:         0       5       0       0       0
  4433 ;;      Temps:          2       0       0       0       0
  4434 ;;      Totals:         4       5       0       0       0
  4435 ;;Total ram usage:        9 bytes
  4436 ;; Hardware stack levels used:    1
  4437 ;; Hardware stack levels required when called:    1
  4438 ;; This function calls:
  4439 ;;		Nothing
  4440 ;; This function is called by:
  4441 ;;		___flmul
  4442 ;; This function uses a non-reentrant model
  4443 ;;
  4444                           
  4445                           
  4446                           ;psect for function __Umul8_16
  4447  0B8E                     __Umul8_16:
  4448                           
  4449                           ;incstack = 0
  4450                           ; Regs used in __Umul8_16: [wreg+status,2+status,0]
  4451                           ;__Umul8_16@multiplier stored from wreg
  4452  0B8E  1283               	bcf	3,5	;RP0=0, select bank0
  4453  0B8F  1303               	bcf	3,6	;RP1=0, select bank0
  4454  0B90  00A4               	movwf	__Umul8_16@multiplier
  4455  0B91                     l1705:
  4456  0B91  01A0               	clrf	__Umul8_16@product
  4457  0B92  01A1               	clrf	__Umul8_16@product+1
  4458  0B93                     l1707:
  4459  0B93  0873               	movf	__Umul8_16@multiplicand,w
  4460  0B94  00F5               	movwf	??__Umul8_16
  4461  0B95  01F6               	clrf	??__Umul8_16+1
  4462  0B96  0875               	movf	??__Umul8_16,w
  4463  0B97  00A2               	movwf	__Umul8_16@word_mpld
  4464  0B98  0876               	movf	??__Umul8_16+1,w
  4465  0B99  00A3               	movwf	__Umul8_16@word_mpld+1
  4466  0B9A                     l1709:
  4467  0B9A  1C24               	btfss	__Umul8_16@multiplier,0
  4468  0B9B  2B9D               	goto	u1791
  4469  0B9C  2B9E               	goto	u1790
  4470  0B9D                     u1791:
  4471  0B9D  2BA4               	goto	l696
  4472  0B9E                     u1790:
  4473  0B9E                     l1711:
  4474  0B9E  0822               	movf	__Umul8_16@word_mpld,w
  4475  0B9F  07A0               	addwf	__Umul8_16@product,f
  4476  0BA0  1803               	skipnc
  4477  0BA1  0AA1               	incf	__Umul8_16@product+1,f
  4478  0BA2  0823               	movf	__Umul8_16@word_mpld+1,w
  4479  0BA3  07A1               	addwf	__Umul8_16@product+1,f
  4480  0BA4                     l696:
  4481  0BA4  3001               	movlw	1
  4482  0BA5                     u1805:
  4483  0BA5  1003               	clrc
  4484  0BA6  0DA2               	rlf	__Umul8_16@word_mpld,f
  4485  0BA7  0DA3               	rlf	__Umul8_16@word_mpld+1,f
  4486  0BA8  3EFF               	addlw	-1
  4487  0BA9  1D03               	skipz
  4488  0BAA  2BA5               	goto	u1805
  4489  0BAB  1003               	clrc
  4490  0BAC  0CA4               	rrf	__Umul8_16@multiplier,f
  4491  0BAD                     l1713:
  4492  0BAD  0824               	movf	__Umul8_16@multiplier,w
  4493  0BAE  1D03               	btfss	3,2
  4494  0BAF  2BB1               	goto	u1811
  4495  0BB0  2BB2               	goto	u1810
  4496  0BB1                     u1811:
  4497  0BB1  2B9A               	goto	l1709
  4498  0BB2                     u1810:
  4499  0BB2                     l1715:
  4500  0BB2  0821               	movf	__Umul8_16@product+1,w
  4501  0BB3  00F4               	movwf	?__Umul8_16+1
  4502  0BB4  0820               	movf	__Umul8_16@product,w
  4503  0BB5  00F3               	movwf	?__Umul8_16
  4504  0BB6                     l698:
  4505  0BB6  0008               	return
  4506  0BB7                     __end_of__Umul8_16:
  4507                           
  4508                           	psect	text13
  4509  0397                     __ptext13:	
  4510 ;; *************** function ___fldiv *****************
  4511 ;; Defined at:
  4512 ;;		line 8 in file "C:\Program Files\Microchip\xc8\v2.20\pic\sources\c90\common\sprcdiv.c"
  4513 ;; Parameters:    Size  Location     Type
  4514 ;;  a               4   31[BANK0 ] unsigned int 
  4515 ;;  b               4   35[BANK0 ] unsigned int 
  4516 ;; Auto vars:     Size  Location     Type
  4517 ;;  grs             4   51[BANK0 ] unsigned long 
  4518 ;;  rem             4   44[BANK0 ] unsigned long 
  4519 ;;  new_exp         2   49[BANK0 ] int 
  4520 ;;  aexp            1   56[BANK0 ] unsigned char 
  4521 ;;  bexp            1   55[BANK0 ] unsigned char 
  4522 ;;  sign            1   48[BANK0 ] unsigned char 
  4523 ;; Return value:  Size  Location     Type
  4524 ;;                  4   31[BANK0 ] unsigned char 
  4525 ;; Registers used:
  4526 ;;		wreg, status,2, status,0, btemp+1
  4527 ;; Tracked objects:
  4528 ;;		On entry : 0/0
  4529 ;;		On exit  : 0/0
  4530 ;;		Unchanged: 0/0
  4531 ;; Data sizes:     COMMON   BANK0   BANK1   BANK3   BANK2
  4532 ;;      Params:         0       8       0       0       0
  4533 ;;      Locals:         0      13       0       0       0
  4534 ;;      Temps:          0       5       0       0       0
  4535 ;;      Totals:         0      26       0       0       0
  4536 ;;Total ram usage:       26 bytes
  4537 ;; Hardware stack levels used:    1
  4538 ;; Hardware stack levels required when called:    1
  4539 ;; This function calls:
  4540 ;;		Nothing
  4541 ;; This function is called by:
  4542 ;;		_main
  4543 ;; This function uses a non-reentrant model
  4544 ;;
  4545                           
  4546                           
  4547                           ;psect for function ___fldiv
  4548  0397                     ___fldiv:
  4549  0397                     l1905:	
  4550                           ;incstack = 0
  4551                           ; Regs used in ___fldiv: [wreg+status,2+status,0+btemp+1]
  4552                           
  4553  0397  1283               	bcf	3,5	;RP0=0, select bank0
  4554  0398  1303               	bcf	3,6	;RP1=0, select bank0
  4555  0399  0846               	movf	___fldiv@b+3,w
  4556  039A  3980               	andlw	128
  4557  039B  00FF               	movwf	btemp+1
  4558  039C  087F               	movf	btemp+1,w
  4559  039D  00D0               	movwf	___fldiv@sign
  4560  039E                     l1907:
  4561  039E  0846               	movf	___fldiv@b+3,w
  4562  039F  00C7               	movwf	??___fldiv
  4563  03A0  0747               	addwf	??___fldiv,w
  4564  03A1  00FF               	movwf	btemp+1
  4565  03A2  087F               	movf	btemp+1,w
  4566  03A3  00D7               	movwf	___fldiv@bexp
  4567  03A4                     l1909:
  4568  03A4  1FC5               	btfss	___fldiv@b+2,7
  4569  03A5  2BA7               	goto	u2131
  4570  03A6  2BA8               	goto	u2130
  4571  03A7                     u2131:
  4572  03A7  2BA9               	goto	l1913
  4573  03A8                     u2130:
  4574  03A8                     l1911:
  4575  03A8  1457               	bsf	___fldiv@bexp,0
  4576  03A9                     l1913:
  4577  03A9  0857               	movf	___fldiv@bexp,w
  4578  03AA  1903               	btfsc	3,2
  4579  03AB  2BAD               	goto	u2141
  4580  03AC  2BAE               	goto	u2140
  4581  03AD                     u2141:
  4582  03AD  2BBE               	goto	l1923
  4583  03AE                     u2140:
  4584  03AE                     l1915:
  4585  03AE  0A57               	incf	___fldiv@bexp,w
  4586  03AF  1D03               	btfss	3,2
  4587  03B0  2BB2               	goto	u2151
  4588  03B1  2BB3               	goto	u2150
  4589  03B2                     u2151:
  4590  03B2  2BBB               	goto	l1919
  4591  03B3                     u2150:
  4592  03B3                     l1917:
  4593  03B3  3000               	movlw	0
  4594  03B4  00C6               	movwf	___fldiv@b+3
  4595  03B5  3000               	movlw	0
  4596  03B6  00C5               	movwf	___fldiv@b+2
  4597  03B7  3000               	movlw	0
  4598  03B8  00C4               	movwf	___fldiv@b+1
  4599  03B9  3000               	movlw	0
  4600  03BA  00C3               	movwf	___fldiv@b
  4601  03BB                     l1919:
  4602  03BB  17C5               	bsf	___fldiv@b+2,7
  4603  03BC                     l1921:
  4604  03BC  01C6               	clrf	___fldiv@b+3
  4605  03BD  2BC6               	goto	l1925
  4606  03BE                     l1923:
  4607  03BE  3000               	movlw	0
  4608  03BF  00C6               	movwf	___fldiv@b+3
  4609  03C0  3000               	movlw	0
  4610  03C1  00C5               	movwf	___fldiv@b+2
  4611  03C2  3000               	movlw	0
  4612  03C3  00C4               	movwf	___fldiv@b+1
  4613  03C4  3000               	movlw	0
  4614  03C5  00C3               	movwf	___fldiv@b
  4615  03C6                     l1925:
  4616  03C6  0842               	movf	___fldiv@a+3,w
  4617  03C7  3980               	andlw	128
  4618  03C8  00FF               	movwf	btemp+1
  4619  03C9  087F               	movf	btemp+1,w
  4620  03CA  06D0               	xorwf	___fldiv@sign,f
  4621  03CB                     l1927:
  4622  03CB  0842               	movf	___fldiv@a+3,w
  4623  03CC  00C7               	movwf	??___fldiv
  4624  03CD  0747               	addwf	??___fldiv,w
  4625  03CE  00FF               	movwf	btemp+1
  4626  03CF  087F               	movf	btemp+1,w
  4627  03D0  00D8               	movwf	___fldiv@aexp
  4628  03D1                     l1929:
  4629  03D1  1FC1               	btfss	___fldiv@a+2,7
  4630  03D2  2BD4               	goto	u2161
  4631  03D3  2BD5               	goto	u2160
  4632  03D4                     u2161:
  4633  03D4  2BD6               	goto	l1933
  4634  03D5                     u2160:
  4635  03D5                     l1931:
  4636  03D5  1458               	bsf	___fldiv@aexp,0
  4637  03D6                     l1933:
  4638  03D6  0858               	movf	___fldiv@aexp,w
  4639  03D7  1903               	btfsc	3,2
  4640  03D8  2BDA               	goto	u2171
  4641  03D9  2BDB               	goto	u2170
  4642  03DA                     u2171:
  4643  03DA  2BEB               	goto	l1943
  4644  03DB                     u2170:
  4645  03DB                     l1935:
  4646  03DB  0A58               	incf	___fldiv@aexp,w
  4647  03DC  1D03               	btfss	3,2
  4648  03DD  2BDF               	goto	u2181
  4649  03DE  2BE0               	goto	u2180
  4650  03DF                     u2181:
  4651  03DF  2BE8               	goto	l1939
  4652  03E0                     u2180:
  4653  03E0                     l1937:
  4654  03E0  3000               	movlw	0
  4655  03E1  00C2               	movwf	___fldiv@a+3
  4656  03E2  3000               	movlw	0
  4657  03E3  00C1               	movwf	___fldiv@a+2
  4658  03E4  3000               	movlw	0
  4659  03E5  00C0               	movwf	___fldiv@a+1
  4660  03E6  3000               	movlw	0
  4661  03E7  00BF               	movwf	___fldiv@a
  4662  03E8                     l1939:
  4663  03E8  17C1               	bsf	___fldiv@a+2,7
  4664  03E9                     l1941:
  4665  03E9  01C2               	clrf	___fldiv@a+3
  4666  03EA  2BF3               	goto	l637
  4667  03EB                     l1943:
  4668  03EB  3000               	movlw	0
  4669  03EC  00C2               	movwf	___fldiv@a+3
  4670  03ED  3000               	movlw	0
  4671  03EE  00C1               	movwf	___fldiv@a+2
  4672  03EF  3000               	movlw	0
  4673  03F0  00C0               	movwf	___fldiv@a+1
  4674  03F1  3000               	movlw	0
  4675  03F2  00BF               	movwf	___fldiv@a
  4676  03F3                     l637:
  4677  03F3  0842               	movf	___fldiv@a+3,w
  4678  03F4  0441               	iorwf	___fldiv@a+2,w
  4679  03F5  0440               	iorwf	___fldiv@a+1,w
  4680  03F6  043F               	iorwf	___fldiv@a,w
  4681  03F7  1D03               	skipz
  4682  03F8  2BFA               	goto	u2191
  4683  03F9  2BFB               	goto	u2190
  4684  03FA                     u2191:
  4685  03FA  2C14               	goto	l1953
  4686  03FB                     u2190:
  4687  03FB                     l1945:
  4688  03FB  3000               	movlw	0
  4689  03FC  00C6               	movwf	___fldiv@b+3
  4690  03FD  3000               	movlw	0
  4691  03FE  00C5               	movwf	___fldiv@b+2
  4692  03FF  3000               	movlw	0
  4693  0400  00C4               	movwf	___fldiv@b+1
  4694  0401  3000               	movlw	0
  4695  0402  00C3               	movwf	___fldiv@b
  4696  0403  3080               	movlw	128
  4697  0404  04C5               	iorwf	___fldiv@b+2,f
  4698  0405  307F               	movlw	127
  4699  0406  04C6               	iorwf	___fldiv@b+3,f
  4700  0407                     l1947:
  4701  0407  0850               	movf	___fldiv@sign,w
  4702  0408  00FF               	movwf	btemp+1
  4703  0409  087F               	movf	btemp+1,w
  4704  040A  04C6               	iorwf	___fldiv@b+3,f
  4705  040B                     l1949:
  4706  040B  0846               	movf	___fldiv@b+3,w
  4707  040C  00C2               	movwf	?___fldiv+3
  4708  040D  0845               	movf	___fldiv@b+2,w
  4709  040E  00C1               	movwf	?___fldiv+2
  4710  040F  0844               	movf	___fldiv@b+1,w
  4711  0410  00C0               	movwf	?___fldiv+1
  4712  0411  0843               	movf	___fldiv@b,w
  4713  0412  00BF               	movwf	?___fldiv
  4714  0413  2D73               	goto	l639
  4715  0414                     l1953:
  4716  0414  0857               	movf	___fldiv@bexp,w
  4717  0415  1D03               	btfss	3,2
  4718  0416  2C18               	goto	u2201
  4719  0417  2C19               	goto	u2200
  4720  0418                     u2201:
  4721  0418  2C22               	goto	l1959
  4722  0419                     u2200:
  4723  0419                     l1955:
  4724  0419  3000               	movlw	0
  4725  041A  00C2               	movwf	?___fldiv+3
  4726  041B  3000               	movlw	0
  4727  041C  00C1               	movwf	?___fldiv+2
  4728  041D  3000               	movlw	0
  4729  041E  00C0               	movwf	?___fldiv+1
  4730  041F  3000               	movlw	0
  4731  0420  00BF               	movwf	?___fldiv
  4732  0421  2D73               	goto	l639
  4733  0422                     l1959:
  4734  0422  0857               	movf	___fldiv@bexp,w
  4735  0423  00C7               	movwf	??___fldiv
  4736  0424  01C8               	clrf	??___fldiv+1
  4737  0425  0848               	movf	??___fldiv+1,w
  4738  0426  00CA               	movwf	??___fldiv+3
  4739  0427  0858               	movf	___fldiv@aexp,w
  4740  0428  0247               	subwf	??___fldiv,w
  4741  0429  00C9               	movwf	??___fldiv+2
  4742  042A  1C03               	skipc
  4743  042B  03CA               	decf	??___fldiv+3,f
  4744  042C  0849               	movf	??___fldiv+2,w
  4745  042D  3E7F               	addlw	127
  4746  042E  00D1               	movwf	___fldiv@new_exp
  4747  042F  084A               	movf	??___fldiv+3,w
  4748  0430  1803               	skipnc
  4749  0431  3E01               	addlw	1
  4750  0432  3E00               	addlw	0
  4751  0433  00D2               	movwf	___fldiv@new_exp+1
  4752  0434                     l1961:
  4753  0434  0846               	movf	___fldiv@b+3,w
  4754  0435  00CF               	movwf	___fldiv@rem+3
  4755  0436  0845               	movf	___fldiv@b+2,w
  4756  0437  00CE               	movwf	___fldiv@rem+2
  4757  0438  0844               	movf	___fldiv@b+1,w
  4758  0439  00CD               	movwf	___fldiv@rem+1
  4759  043A  0843               	movf	___fldiv@b,w
  4760  043B  00CC               	movwf	___fldiv@rem
  4761  043C                     l1963:
  4762  043C  3000               	movlw	0
  4763  043D  00C6               	movwf	___fldiv@b+3
  4764  043E  3000               	movlw	0
  4765  043F  00C5               	movwf	___fldiv@b+2
  4766  0440  3000               	movlw	0
  4767  0441  00C4               	movwf	___fldiv@b+1
  4768  0442  3000               	movlw	0
  4769  0443  00C3               	movwf	___fldiv@b
  4770  0444                     l1965:
  4771  0444  3000               	movlw	0
  4772  0445  00D6               	movwf	___fldiv@grs+3
  4773  0446  3000               	movlw	0
  4774  0447  00D5               	movwf	___fldiv@grs+2
  4775  0448  3000               	movlw	0
  4776  0449  00D4               	movwf	___fldiv@grs+1
  4777  044A  3000               	movlw	0
  4778  044B  00D3               	movwf	___fldiv@grs
  4779  044C                     l1967:
  4780  044C  01D8               	clrf	___fldiv@aexp
  4781  044D  2C98               	goto	l1987
  4782  044E                     l1969:
  4783  044E  0858               	movf	___fldiv@aexp,w
  4784  044F  1903               	btfsc	3,2
  4785  0450  2C52               	goto	u2211
  4786  0451  2C53               	goto	u2210
  4787  0452                     u2211:
  4788  0452  2C73               	goto	l1979
  4789  0453                     u2210:
  4790  0453                     l1971:
  4791  0453  3001               	movlw	1
  4792  0454  00C7               	movwf	??___fldiv
  4793  0455                     u2225:
  4794  0455  1003               	clrc
  4795  0456  0DCC               	rlf	___fldiv@rem,f
  4796  0457  0DCD               	rlf	___fldiv@rem+1,f
  4797  0458  0DCE               	rlf	___fldiv@rem+2,f
  4798  0459  0DCF               	rlf	___fldiv@rem+3,f
  4799  045A  0BC7               	decfsz	??___fldiv,f
  4800  045B  2C55               	goto	u2225
  4801  045C  3001               	movlw	1
  4802  045D  00C7               	movwf	??___fldiv
  4803  045E                     u2235:
  4804  045E  1003               	clrc
  4805  045F  0DC3               	rlf	___fldiv@b,f
  4806  0460  0DC4               	rlf	___fldiv@b+1,f
  4807  0461  0DC5               	rlf	___fldiv@b+2,f
  4808  0462  0DC6               	rlf	___fldiv@b+3,f
  4809  0463  0BC7               	decfsz	??___fldiv,f
  4810  0464  2C5E               	goto	u2235
  4811  0465                     l1973:
  4812  0465  1FD6               	btfss	___fldiv@grs+3,7
  4813  0466  2C68               	goto	u2241
  4814  0467  2C69               	goto	u2240
  4815  0468                     u2241:
  4816  0468  2C6A               	goto	l1977
  4817  0469                     u2240:
  4818  0469                     l1975:
  4819  0469  1443               	bsf	___fldiv@b,0
  4820  046A                     l1977:
  4821  046A  3001               	movlw	1
  4822  046B  00C7               	movwf	??___fldiv
  4823  046C                     u2255:
  4824  046C  1003               	clrc
  4825  046D  0DD3               	rlf	___fldiv@grs,f
  4826  046E  0DD4               	rlf	___fldiv@grs+1,f
  4827  046F  0DD5               	rlf	___fldiv@grs+2,f
  4828  0470  0DD6               	rlf	___fldiv@grs+3,f
  4829  0471  0BC7               	decfsz	??___fldiv,f
  4830  0472  2C6C               	goto	u2255
  4831  0473                     l1979:
  4832  0473  0842               	movf	___fldiv@a+3,w
  4833  0474  024F               	subwf	___fldiv@rem+3,w
  4834  0475  1D03               	skipz
  4835  0476  2C81               	goto	u2265
  4836  0477  0841               	movf	___fldiv@a+2,w
  4837  0478  024E               	subwf	___fldiv@rem+2,w
  4838  0479  1D03               	skipz
  4839  047A  2C81               	goto	u2265
  4840  047B  0840               	movf	___fldiv@a+1,w
  4841  047C  024D               	subwf	___fldiv@rem+1,w
  4842  047D  1D03               	skipz
  4843  047E  2C81               	goto	u2265
  4844  047F  083F               	movf	___fldiv@a,w
  4845  0480  024C               	subwf	___fldiv@rem,w
  4846  0481                     u2265:
  4847  0481  1C03               	skipc
  4848  0482  2C84               	goto	u2261
  4849  0483  2C85               	goto	u2260
  4850  0484                     u2261:
  4851  0484  2C94               	goto	l1985
  4852  0485                     u2260:
  4853  0485                     l1981:
  4854  0485  1756               	bsf	___fldiv@grs+3,6
  4855  0486                     l1983:
  4856  0486  083F               	movf	___fldiv@a,w
  4857  0487  02CC               	subwf	___fldiv@rem,f
  4858  0488  0840               	movf	___fldiv@a+1,w
  4859  0489  1C03               	skipc
  4860  048A  0F40               	incfsz	___fldiv@a+1,w
  4861  048B  02CD               	subwf	___fldiv@rem+1,f
  4862  048C  0841               	movf	___fldiv@a+2,w
  4863  048D  1C03               	skipc
  4864  048E  0F41               	incfsz	___fldiv@a+2,w
  4865  048F  02CE               	subwf	___fldiv@rem+2,f
  4866  0490  0842               	movf	___fldiv@a+3,w
  4867  0491  1C03               	skipc
  4868  0492  0F42               	incfsz	___fldiv@a+3,w
  4869  0493  02CF               	subwf	___fldiv@rem+3,f
  4870  0494                     l1985:
  4871  0494  3001               	movlw	1
  4872  0495  00FF               	movwf	btemp+1
  4873  0496  087F               	movf	btemp+1,w
  4874  0497  07D8               	addwf	___fldiv@aexp,f
  4875  0498                     l1987:
  4876  0498  301A               	movlw	26
  4877  0499  0258               	subwf	___fldiv@aexp,w
  4878  049A  1C03               	skipc
  4879  049B  2C9D               	goto	u2271
  4880  049C  2C9E               	goto	u2270
  4881  049D                     u2271:
  4882  049D  2C4E               	goto	l1969
  4883  049E                     u2270:
  4884  049E                     l1989:
  4885  049E  084F               	movf	___fldiv@rem+3,w
  4886  049F  044E               	iorwf	___fldiv@rem+2,w
  4887  04A0  044D               	iorwf	___fldiv@rem+1,w
  4888  04A1  044C               	iorwf	___fldiv@rem,w
  4889  04A2  1903               	skipnz
  4890  04A3  2CA5               	goto	u2281
  4891  04A4  2CA6               	goto	u2280
  4892  04A5                     u2281:
  4893  04A5  2CC5               	goto	l2003
  4894  04A6                     u2280:
  4895  04A6                     l1991:
  4896  04A6  1453               	bsf	___fldiv@grs,0
  4897  04A7  2CC5               	goto	l2003
  4898  04A8                     l1993:
  4899  04A8  3001               	movlw	1
  4900  04A9  00C7               	movwf	??___fldiv
  4901  04AA                     u2295:
  4902  04AA  1003               	clrc
  4903  04AB  0DC3               	rlf	___fldiv@b,f
  4904  04AC  0DC4               	rlf	___fldiv@b+1,f
  4905  04AD  0DC5               	rlf	___fldiv@b+2,f
  4906  04AE  0DC6               	rlf	___fldiv@b+3,f
  4907  04AF  0BC7               	decfsz	??___fldiv,f
  4908  04B0  2CAA               	goto	u2295
  4909  04B1                     l1995:
  4910  04B1  1FD6               	btfss	___fldiv@grs+3,7
  4911  04B2  2CB4               	goto	u2301
  4912  04B3  2CB5               	goto	u2300
  4913  04B4                     u2301:
  4914  04B4  2CB6               	goto	l1999
  4915  04B5                     u2300:
  4916  04B5                     l1997:
  4917  04B5  1443               	bsf	___fldiv@b,0
  4918  04B6                     l1999:
  4919  04B6  3001               	movlw	1
  4920  04B7  00C7               	movwf	??___fldiv
  4921  04B8                     u2315:
  4922  04B8  1003               	clrc
  4923  04B9  0DD3               	rlf	___fldiv@grs,f
  4924  04BA  0DD4               	rlf	___fldiv@grs+1,f
  4925  04BB  0DD5               	rlf	___fldiv@grs+2,f
  4926  04BC  0DD6               	rlf	___fldiv@grs+3,f
  4927  04BD  0BC7               	decfsz	??___fldiv,f
  4928  04BE  2CB8               	goto	u2315
  4929  04BF                     l2001:
  4930  04BF  30FF               	movlw	255
  4931  04C0  07D1               	addwf	___fldiv@new_exp,f
  4932  04C1  1803               	skipnc
  4933  04C2  0AD2               	incf	___fldiv@new_exp+1,f
  4934  04C3  30FF               	movlw	255
  4935  04C4  07D2               	addwf	___fldiv@new_exp+1,f
  4936  04C5                     l2003:
  4937  04C5  1FC5               	btfss	___fldiv@b+2,7
  4938  04C6  2CC8               	goto	u2321
  4939  04C7  2CC9               	goto	u2320
  4940  04C8                     u2321:
  4941  04C8  2CA8               	goto	l1993
  4942  04C9                     u2320:
  4943  04C9                     l2005:
  4944  04C9  01D8               	clrf	___fldiv@aexp
  4945  04CA                     l2007:
  4946  04CA  1FD6               	btfss	___fldiv@grs+3,7
  4947  04CB  2CCD               	goto	u2331
  4948  04CC  2CCE               	goto	u2330
  4949  04CD                     u2331:
  4950  04CD  2CEA               	goto	l2015
  4951  04CE                     u2330:
  4952  04CE                     l2009:
  4953  04CE  30FF               	movlw	255
  4954  04CF  0553               	andwf	___fldiv@grs,w
  4955  04D0  00C7               	movwf	??___fldiv
  4956  04D1  30FF               	movlw	255
  4957  04D2  0554               	andwf	___fldiv@grs+1,w
  4958  04D3  00C8               	movwf	??___fldiv+1
  4959  04D4  30FF               	movlw	255
  4960  04D5  0555               	andwf	___fldiv@grs+2,w
  4961  04D6  00C9               	movwf	??___fldiv+2
  4962  04D7  307F               	movlw	127
  4963  04D8  0556               	andwf	___fldiv@grs+3,w
  4964  04D9  00CA               	movwf	??___fldiv+3
  4965  04DA  084A               	movf	??___fldiv+3,w
  4966  04DB  0449               	iorwf	??___fldiv+2,w
  4967  04DC  0448               	iorwf	??___fldiv+1,w
  4968  04DD  0447               	iorwf	??___fldiv,w
  4969  04DE  1903               	skipnz
  4970  04DF  2CE1               	goto	u2341
  4971  04E0  2CE2               	goto	u2340
  4972  04E1                     u2341:
  4973  04E1  2CE5               	goto	l653
  4974  04E2                     u2340:
  4975  04E2                     l2011:
  4976  04E2  01D8               	clrf	___fldiv@aexp
  4977  04E3  0AD8               	incf	___fldiv@aexp,f
  4978  04E4  2CEA               	goto	l2015
  4979  04E5                     l653:
  4980  04E5  1C43               	btfss	___fldiv@b,0
  4981  04E6  2CE8               	goto	u2351
  4982  04E7  2CE9               	goto	u2350
  4983  04E8                     u2351:
  4984  04E8  2CEA               	goto	l2015
  4985  04E9                     u2350:
  4986  04E9  2CE2               	goto	l2011
  4987  04EA                     l2015:
  4988  04EA  0858               	movf	___fldiv@aexp,w
  4989  04EB  1903               	btfsc	3,2
  4990  04EC  2CEE               	goto	u2361
  4991  04ED  2CEF               	goto	u2360
  4992  04EE                     u2361:
  4993  04EE  2D20               	goto	l2025
  4994  04EF                     u2360:
  4995  04EF                     l2017:
  4996  04EF  3001               	movlw	1
  4997  04F0  07C3               	addwf	___fldiv@b,f
  4998  04F1  3000               	movlw	0
  4999  04F2  1803               	skipnc
  5000  04F3  3001               	movlw	1
  5001  04F4  07C4               	addwf	___fldiv@b+1,f
  5002  04F5  3000               	movlw	0
  5003  04F6  1803               	skipnc
  5004  04F7  3001               	movlw	1
  5005  04F8  07C5               	addwf	___fldiv@b+2,f
  5006  04F9  3000               	movlw	0
  5007  04FA  1803               	skipnc
  5008  04FB  3001               	movlw	1
  5009  04FC  07C6               	addwf	___fldiv@b+3,f
  5010  04FD                     l2019:
  5011  04FD  1C46               	btfss	___fldiv@b+3,0
  5012  04FE  2D00               	goto	u2371
  5013  04FF  2D01               	goto	u2370
  5014  0500                     u2371:
  5015  0500  2D20               	goto	l2025
  5016  0501                     u2370:
  5017  0501                     l2021:
  5018  0501  0843               	movf	___fldiv@b,w
  5019  0502  00C7               	movwf	??___fldiv
  5020  0503  0844               	movf	___fldiv@b+1,w
  5021  0504  00C8               	movwf	??___fldiv+1
  5022  0505  0845               	movf	___fldiv@b+2,w
  5023  0506  00C9               	movwf	??___fldiv+2
  5024  0507  0846               	movf	___fldiv@b+3,w
  5025  0508  00CA               	movwf	??___fldiv+3
  5026  0509  3001               	movlw	1
  5027  050A  00CB               	movwf	??___fldiv+4
  5028  050B                     u2385:
  5029  050B  0D4A               	rlf	??___fldiv+3,w
  5030  050C  0CCA               	rrf	??___fldiv+3,f
  5031  050D  0CC9               	rrf	??___fldiv+2,f
  5032  050E  0CC8               	rrf	??___fldiv+1,f
  5033  050F  0CC7               	rrf	??___fldiv,f
  5034  0510                     u2380:
  5035  0510  0BCB               	decfsz	??___fldiv+4,f
  5036  0511  2D0B               	goto	u2385
  5037  0512  084A               	movf	??___fldiv+3,w
  5038  0513  00C6               	movwf	___fldiv@b+3
  5039  0514  0849               	movf	??___fldiv+2,w
  5040  0515  00C5               	movwf	___fldiv@b+2
  5041  0516  0848               	movf	??___fldiv+1,w
  5042  0517  00C4               	movwf	___fldiv@b+1
  5043  0518  0847               	movf	??___fldiv,w
  5044  0519  00C3               	movwf	___fldiv@b
  5045  051A                     l2023:
  5046  051A  3001               	movlw	1
  5047  051B  07D1               	addwf	___fldiv@new_exp,f
  5048  051C  1803               	skipnc
  5049  051D  0AD2               	incf	___fldiv@new_exp+1,f
  5050  051E  3000               	movlw	0
  5051  051F  07D2               	addwf	___fldiv@new_exp+1,f
  5052  0520                     l2025:
  5053  0520  0852               	movf	___fldiv@new_exp+1,w
  5054  0521  3A80               	xorlw	128
  5055  0522  00FF               	movwf	btemp+1
  5056  0523  3080               	movlw	128
  5057  0524  027F               	subwf	btemp+1,w
  5058  0525  1D03               	skipz
  5059  0526  2D29               	goto	u2395
  5060  0527  30FF               	movlw	255
  5061  0528  0251               	subwf	___fldiv@new_exp,w
  5062  0529                     u2395:
  5063  0529  1C03               	skipc
  5064  052A  2D2C               	goto	u2391
  5065  052B  2D2D               	goto	u2390
  5066  052C                     u2391:
  5067  052C  2D3B               	goto	l2029
  5068  052D                     u2390:
  5069  052D                     l2027:
  5070  052D  30FF               	movlw	255
  5071  052E  1283               	bcf	3,5	;RP0=0, select bank0
  5072  052F  1303               	bcf	3,6	;RP1=0, select bank0
  5073  0530  00D1               	movwf	___fldiv@new_exp
  5074  0531  3000               	movlw	0
  5075  0532  00D2               	movwf	___fldiv@new_exp+1
  5076  0533  3000               	movlw	0
  5077  0534  00C6               	movwf	___fldiv@b+3
  5078  0535  3000               	movlw	0
  5079  0536  00C5               	movwf	___fldiv@b+2
  5080  0537  3000               	movlw	0
  5081  0538  00C4               	movwf	___fldiv@b+1
  5082  0539  3000               	movlw	0
  5083  053A  00C3               	movwf	___fldiv@b
  5084  053B                     l2029:
  5085  053B  1283               	bcf	3,5	;RP0=0, select bank0
  5086  053C  1303               	bcf	3,6	;RP1=0, select bank0
  5087  053D  0852               	movf	___fldiv@new_exp+1,w
  5088  053E  3A80               	xorlw	128
  5089  053F  00FF               	movwf	btemp+1
  5090  0540  3080               	movlw	128
  5091  0541  027F               	subwf	btemp+1,w
  5092  0542  1D03               	skipz
  5093  0543  2D46               	goto	u2405
  5094  0544  3001               	movlw	1
  5095  0545  0251               	subwf	___fldiv@new_exp,w
  5096  0546                     u2405:
  5097  0546  1803               	skipnc
  5098  0547  2D49               	goto	u2401
  5099  0548  2D4A               	goto	u2400
  5100  0549                     u2401:
  5101  0549  2D57               	goto	l2037
  5102  054A                     u2400:
  5103  054A                     l2031:
  5104  054A  1283               	bcf	3,5	;RP0=0, select bank0
  5105  054B  1303               	bcf	3,6	;RP1=0, select bank0
  5106  054C  01D1               	clrf	___fldiv@new_exp
  5107  054D  01D2               	clrf	___fldiv@new_exp+1
  5108  054E                     l2033:
  5109  054E  3000               	movlw	0
  5110  054F  00C6               	movwf	___fldiv@b+3
  5111  0550  3000               	movlw	0
  5112  0551  00C5               	movwf	___fldiv@b+2
  5113  0552  3000               	movlw	0
  5114  0553  00C4               	movwf	___fldiv@b+1
  5115  0554  3000               	movlw	0
  5116  0555  00C3               	movwf	___fldiv@b
  5117  0556                     l2035:
  5118  0556  01D0               	clrf	___fldiv@sign
  5119  0557                     l2037:
  5120  0557  1283               	bcf	3,5	;RP0=0, select bank0
  5121  0558  1303               	bcf	3,6	;RP1=0, select bank0
  5122  0559  0851               	movf	___fldiv@new_exp,w
  5123  055A  00FF               	movwf	btemp+1
  5124  055B  087F               	movf	btemp+1,w
  5125  055C  00D7               	movwf	___fldiv@bexp
  5126  055D                     l2039:
  5127  055D  1C57               	btfss	___fldiv@bexp,0
  5128  055E  2D60               	goto	u2411
  5129  055F  2D61               	goto	u2410
  5130  0560                     u2411:
  5131  0560  2D63               	goto	l2043
  5132  0561                     u2410:
  5133  0561                     l2041:
  5134  0561  17C5               	bsf	___fldiv@b+2,7
  5135  0562  2D67               	goto	l661
  5136  0563                     l2043:
  5137  0563  307F               	movlw	127
  5138  0564  00FF               	movwf	btemp+1
  5139  0565  087F               	movf	btemp+1,w
  5140  0566  05C5               	andwf	___fldiv@b+2,f
  5141  0567                     l661:
  5142  0567  0857               	movf	___fldiv@bexp,w
  5143  0568  00C7               	movwf	??___fldiv
  5144  0569  1003               	clrc
  5145  056A  0C47               	rrf	??___fldiv,w
  5146  056B  00FF               	movwf	btemp+1
  5147  056C  087F               	movf	btemp+1,w
  5148  056D  00C6               	movwf	___fldiv@b+3
  5149  056E  0850               	movf	___fldiv@sign,w
  5150  056F  00FF               	movwf	btemp+1
  5151  0570  087F               	movf	btemp+1,w
  5152  0571  04C6               	iorwf	___fldiv@b+3,f
  5153  0572  2C0B               	goto	l1949
  5154  0573                     l639:
  5155  0573  0008               	return
  5156  0574                     __end_of___fldiv:
  5157                           
  5158                           	psect	text14
  5159  0C0F                     __ptext14:	
  5160 ;; *************** function _LCD_Initialize *****************
  5161 ;; Defined at:
  5162 ;;		line 22 in file "lcd.c"
  5163 ;; Parameters:    Size  Location     Type
  5164 ;;		None
  5165 ;; Auto vars:     Size  Location     Type
  5166 ;;		None
  5167 ;; Return value:  Size  Location     Type
  5168 ;;                  1    wreg      void 
  5169 ;; Registers used:
  5170 ;;		wreg, status,2, status,0, pclath, cstack
  5171 ;; Tracked objects:
  5172 ;;		On entry : 0/0
  5173 ;;		On exit  : 0/0
  5174 ;;		Unchanged: 0/0
  5175 ;; Data sizes:     COMMON   BANK0   BANK1   BANK3   BANK2
  5176 ;;      Params:         0       0       0       0       0
  5177 ;;      Locals:         0       0       0       0       0
  5178 ;;      Temps:          0       2       0       0       0
  5179 ;;      Totals:         0       2       0       0       0
  5180 ;;Total ram usage:        2 bytes
  5181 ;; Hardware stack levels used:    1
  5182 ;; Hardware stack levels required when called:    3
  5183 ;; This function calls:
  5184 ;;		_LCDCmd
  5185 ;; This function is called by:
  5186 ;;		_main
  5187 ;; This function uses a non-reentrant model
  5188 ;;
  5189                           
  5190                           
  5191                           ;psect for function _LCD_Initialize
  5192  0C0F                     _LCD_Initialize:
  5193  0C0F                     l2443:	
  5194                           ;incstack = 0
  5195                           ; Regs used in _LCD_Initialize: [wreg+status,2+status,0+pclath+cstack]
  5196                           
  5197                           
  5198                           ;lcd.c: 24:     PORTD = 0;
  5199  0C0F  1283               	bcf	3,5	;RP0=0, select bank0
  5200  0C10  1303               	bcf	3,6	;RP1=0, select bank0
  5201  0C11  0188               	clrf	8	;volatile
  5202                           
  5203                           ;lcd.c: 26:     TRISD = 0x00;
  5204  0C12  1683               	bsf	3,5	;RP0=1, select bank1
  5205  0C13  1303               	bcf	3,6	;RP1=0, select bank1
  5206  0C14  0188               	clrf	8	;volatile
  5207  0C15                     l2445:
  5208                           
  5209                           ;lcd.c: 29:     _delay((unsigned long)((15)*(8000000/4000.0)));
  5210  0C15  3027               	movlw	39
  5211  0C16  1283               	bcf	3,5	;RP0=0, select bank0
  5212  0C17  1303               	bcf	3,6	;RP1=0, select bank0
  5213  0C18  00A1               	movwf	??_LCD_Initialize+1
  5214  0C19  30F4               	movlw	244
  5215  0C1A  00A0               	movwf	??_LCD_Initialize
  5216  0C1B                     u3737:
  5217  0C1B  0BA0               	decfsz	??_LCD_Initialize,f
  5218  0C1C  2C1B               	goto	u3737
  5219  0C1D  0BA1               	decfsz	??_LCD_Initialize+1,f
  5220  0C1E  2C1B               	goto	u3737
  5221  0C1F  0000               	nop
  5222  0C20                     l2447:
  5223                           
  5224                           ;lcd.c: 32:     LCDCmd(0x32);
  5225  0C20  3032               	movlw	50
  5226  0C21  120A  158A  2318  120A  158A  	fcall	_LCDCmd
  5227  0C26                     l2449:
  5228                           
  5229                           ;lcd.c: 35:     LCDCmd(0x38);
  5230  0C26  3038               	movlw	56
  5231  0C27  120A  158A  2318  120A  158A  	fcall	_LCDCmd
  5232  0C2C                     l2451:
  5233                           
  5234                           ;lcd.c: 38:     LCDCmd(0x0C);
  5235  0C2C  300C               	movlw	12
  5236  0C2D  120A  158A  2318  120A  158A  	fcall	_LCDCmd
  5237  0C32                     l2453:
  5238                           
  5239                           ;lcd.c: 40:     LCDCmd(0x01);
  5240  0C32  3001               	movlw	1
  5241  0C33  120A  158A  2318  120A  158A  	fcall	_LCDCmd
  5242  0C38                     l2455:
  5243                           
  5244                           ;lcd.c: 43:     LCDCmd(0x06);
  5245  0C38  3006               	movlw	6
  5246  0C39  120A  158A  2318  120A  158A  	fcall	_LCDCmd
  5247  0C3E                     l86:
  5248  0C3E  0008               	return
  5249  0C3F                     __end_of_LCD_Initialize:
  5250                           
  5251                           	psect	text15
  5252  0BE2                     __ptext15:	
  5253 ;; *************** function _LCDStr *****************
  5254 ;; Defined at:
  5255 ;;		line 85 in file "lcd.c"
  5256 ;; Parameters:    Size  Location     Type
  5257 ;;  str             2    0[BANK0 ] PTR const unsigned char 
  5258 ;;		 -> STR_2(17), datos(20), 
  5259 ;; Auto vars:     Size  Location     Type
  5260 ;;  i               1    2[BANK0 ] unsigned char 
  5261 ;; Return value:  Size  Location     Type
  5262 ;;                  1    wreg      void 
  5263 ;; Registers used:
  5264 ;;		wreg, fsr0l, fsr0h, status,2, status,0, btemp+1, pclath, cstack
  5265 ;; Tracked objects:
  5266 ;;		On entry : 0/0
  5267 ;;		On exit  : 0/0
  5268 ;;		Unchanged: 0/0
  5269 ;; Data sizes:     COMMON   BANK0   BANK1   BANK3   BANK2
  5270 ;;      Params:         0       2       0       0       0
  5271 ;;      Locals:         0       1       0       0       0
  5272 ;;      Temps:          0       0       0       0       0
  5273 ;;      Totals:         0       3       0       0       0
  5274 ;;Total ram usage:        3 bytes
  5275 ;; Hardware stack levels used:    1
  5276 ;; Hardware stack levels required when called:    3
  5277 ;; This function calls:
  5278 ;;		_LCDChar
  5279 ;; This function is called by:
  5280 ;;		_main
  5281 ;; This function uses a non-reentrant model
  5282 ;;
  5283                           
  5284                           
  5285                           ;psect for function _LCDStr
  5286  0BE2                     _LCDStr:
  5287  0BE2                     l2573:	
  5288                           ;incstack = 0
  5289                           ; Regs used in _LCDStr: [wreg-fsr0h+status,2+status,0+btemp+1+pclath+cstack]
  5290                           
  5291                           
  5292                           ;lcd.c: 86:     uint8_t i=0;
  5293  0BE2  1283               	bcf	3,5	;RP0=0, select bank0
  5294  0BE3  1303               	bcf	3,6	;RP1=0, select bank0
  5295  0BE4  01A2               	clrf	LCDStr@i
  5296                           
  5297                           ;lcd.c: 89:     while (str[i])
  5298  0BE5  2BFD               	goto	l2579
  5299  0BE6                     l2575:
  5300                           
  5301                           ;lcd.c: 90:     {;lcd.c: 92:         LCDChar(str[i++]);
  5302  0BE6  0822               	movf	LCDStr@i,w
  5303  0BE7  0720               	addwf	LCDStr@str,w
  5304  0BE8  0084               	movwf	4
  5305  0BE9  0821               	movf	LCDStr@str+1,w
  5306  0BEA  1803               	skipnc
  5307  0BEB  0A21               	incf	LCDStr@str+1,w
  5308  0BEC  00FF               	movwf	btemp+1
  5309  0BED  120A  158A  2000  120A  158A  	fcall	stringtab
  5310  0BF2  120A  158A  232A  120A  158A  	fcall	_LCDChar
  5311  0BF7                     l2577:
  5312  0BF7  3001               	movlw	1
  5313  0BF8  00FF               	movwf	btemp+1
  5314  0BF9  087F               	movf	btemp+1,w
  5315  0BFA  1283               	bcf	3,5	;RP0=0, select bank0
  5316  0BFB  1303               	bcf	3,6	;RP1=0, select bank0
  5317  0BFC  07A2               	addwf	LCDStr@i,f
  5318  0BFD                     l2579:
  5319                           
  5320                           ;lcd.c: 89:     while (str[i])
  5321  0BFD  0822               	movf	LCDStr@i,w
  5322  0BFE  0720               	addwf	LCDStr@str,w
  5323  0BFF  0084               	movwf	4
  5324  0C00  0821               	movf	LCDStr@str+1,w
  5325  0C01  1803               	skipnc
  5326  0C02  0A21               	incf	LCDStr@str+1,w
  5327  0C03  00FF               	movwf	btemp+1
  5328  0C04  120A  158A  2000  120A  158A  	fcall	stringtab
  5329  0C09  3A00               	xorlw	0
  5330  0C0A  1D03               	skipz
  5331  0C0B  2C0D               	goto	u3401
  5332  0C0C  2C0E               	goto	u3400
  5333  0C0D                     u3401:
  5334  0C0D  2BE6               	goto	l2575
  5335  0C0E                     u3400:
  5336  0C0E                     l101:
  5337  0C0E  0008               	return
  5338  0C0F                     __end_of_LCDStr:
  5339                           
  5340                           	psect	text16
  5341  0B2A                     __ptext16:	
  5342 ;; *************** function _LCDChar *****************
  5343 ;; Defined at:
  5344 ;;		line 69 in file "lcd.c"
  5345 ;; Parameters:    Size  Location     Type
  5346 ;;  ch              1    wreg     unsigned char 
  5347 ;; Auto vars:     Size  Location     Type
  5348 ;;  ch              1    7[COMMON] unsigned char 
  5349 ;; Return value:  Size  Location     Type
  5350 ;;                  1    wreg      void 
  5351 ;; Registers used:
  5352 ;;		wreg, status,2, status,0, pclath, cstack
  5353 ;; Tracked objects:
  5354 ;;		On entry : 0/0
  5355 ;;		On exit  : 0/0
  5356 ;;		Unchanged: 0/0
  5357 ;; Data sizes:     COMMON   BANK0   BANK1   BANK3   BANK2
  5358 ;;      Params:         0       0       0       0       0
  5359 ;;      Locals:         1       0       0       0       0
  5360 ;;      Temps:          2       0       0       0       0
  5361 ;;      Totals:         3       0       0       0       0
  5362 ;;Total ram usage:        3 bytes
  5363 ;; Hardware stack levels used:    1
  5364 ;; Hardware stack levels required when called:    2
  5365 ;; This function calls:
  5366 ;;		_LCDWrite
  5367 ;; This function is called by:
  5368 ;;		_LCDStr
  5369 ;; This function uses a non-reentrant model
  5370 ;;
  5371                           
  5372                           
  5373                           ;psect for function _LCDChar
  5374  0B2A                     _LCDChar:
  5375                           
  5376                           ;incstack = 0
  5377                           ; Regs used in _LCDChar: [wreg+status,2+status,0+pclath+cstack]
  5378                           ;LCDChar@ch stored from wreg
  5379  0B2A  00F7               	movwf	LCDChar@ch
  5380  0B2B                     l2357:
  5381                           
  5382                           ;lcd.c: 70:     _delay((unsigned long)((5)*(8000000/4000.0)));
  5383  0B2B  300D               	movlw	13
  5384  0B2C  00F6               	movwf	??_LCDChar+1
  5385  0B2D  30FB               	movlw	251
  5386  0B2E  00F5               	movwf	??_LCDChar
  5387  0B2F                     u3747:
  5388  0B2F  0BF5               	decfsz	??_LCDChar,f
  5389  0B30  2B2F               	goto	u3747
  5390  0B31  0BF6               	decfsz	??_LCDChar+1,f
  5391  0B32  2B2F               	goto	u3747
  5392  0B33  2B34               	nop2
  5393  0B34                     l2359:
  5394                           
  5395                           ;lcd.c: 73:     LCDWrite(ch,1);
  5396  0B34  01F3               	clrf	LCDWrite@rs
  5397  0B35  0AF3               	incf	LCDWrite@rs,f
  5398  0B36  0877               	movf	LCDChar@ch,w
  5399  0B37  120A  158A  22F7  120A  158A  	fcall	_LCDWrite
  5400  0B3C                     l92:
  5401  0B3C  0008               	return
  5402  0B3D                     __end_of_LCDChar:
  5403                           
  5404                           	psect	text17
  5405  0C3F                     __ptext17:	
  5406 ;; *************** function _LCDGoto *****************
  5407 ;; Defined at:
  5408 ;;		line 97 in file "lcd.c"
  5409 ;; Parameters:    Size  Location     Type
  5410 ;;  pos             1    wreg     unsigned char 
  5411 ;;  ln              1    0[BANK0 ] unsigned char 
  5412 ;; Auto vars:     Size  Location     Type
  5413 ;;  pos             1    5[BANK0 ] unsigned char 
  5414 ;; Return value:  Size  Location     Type
  5415 ;;                  1    wreg      void 
  5416 ;; Registers used:
  5417 ;;		wreg, status,2, status,0, pclath, cstack
  5418 ;; Tracked objects:
  5419 ;;		On entry : 0/0
  5420 ;;		On exit  : 0/0
  5421 ;;		Unchanged: 0/0
  5422 ;; Data sizes:     COMMON   BANK0   BANK1   BANK3   BANK2
  5423 ;;      Params:         0       1       0       0       0
  5424 ;;      Locals:         0       3       0       0       0
  5425 ;;      Temps:          0       2       0       0       0
  5426 ;;      Totals:         0       6       0       0       0
  5427 ;;Total ram usage:        6 bytes
  5428 ;; Hardware stack levels used:    1
  5429 ;; Hardware stack levels required when called:    3
  5430 ;; This function calls:
  5431 ;;		_LCDCmd
  5432 ;; This function is called by:
  5433 ;;		_main
  5434 ;; This function uses a non-reentrant model
  5435 ;;
  5436                           
  5437                           
  5438                           ;psect for function _LCDGoto
  5439  0C3F                     _LCDGoto:
  5440                           
  5441                           ;incstack = 0
  5442                           ; Regs used in _LCDGoto: [wreg+status,2+status,0+pclath+cstack]
  5443                           ;LCDGoto@pos stored from wreg
  5444  0C3F  1283               	bcf	3,5	;RP0=0, select bank0
  5445  0C40  1303               	bcf	3,6	;RP1=0, select bank0
  5446  0C41  00A5               	movwf	LCDGoto@pos
  5447  0C42                     l2559:
  5448                           
  5449                           ;lcd.c: 99:     if ((ln > (2 -1)) || (pos > (16 -1)))
  5450  0C42  3002               	movlw	2
  5451  0C43  0220               	subwf	LCDGoto@ln,w
  5452  0C44  1803               	skipnc
  5453  0C45  2C47               	goto	u3371
  5454  0C46  2C48               	goto	u3370
  5455  0C47                     u3371:
  5456  0C47  2C6F               	goto	l107
  5457  0C48                     u3370:
  5458  0C48                     l2561:
  5459  0C48  3010               	movlw	16
  5460  0C49  0225               	subwf	LCDGoto@pos,w
  5461  0C4A  1C03               	skipc
  5462  0C4B  2C4D               	goto	u3381
  5463  0C4C  2C4E               	goto	u3380
  5464  0C4D                     u3381:
  5465  0C4D  2C4F               	goto	l2563
  5466  0C4E                     u3380:
  5467  0C4E  2C6F               	goto	l107
  5468  0C4F                     l2563:
  5469                           
  5470                           ;lcd.c: 106:     LCDCmd((ln == 1) ? (0xC0 | pos) : (0x80 | pos));
  5471  0C4F  0320               	decf	LCDGoto@ln,w
  5472  0C50  1903               	btfsc	3,2
  5473  0C51  2C53               	goto	u3391
  5474  0C52  2C54               	goto	u3390
  5475  0C53                     u3391:
  5476  0C53  2C5A               	goto	l2567
  5477  0C54                     u3390:
  5478  0C54                     l2565:
  5479  0C54  3080               	movlw	128
  5480  0C55  0425               	iorwf	LCDGoto@pos,w
  5481  0C56  00A3               	movwf	_LCDGoto$314
  5482  0C57  3000               	movlw	0
  5483  0C58  00A4               	movwf	_LCDGoto$314+1
  5484  0C59  2C5F               	goto	l2569
  5485  0C5A                     l2567:
  5486  0C5A  30C0               	movlw	192
  5487  0C5B  0425               	iorwf	LCDGoto@pos,w
  5488  0C5C  00A3               	movwf	_LCDGoto$314
  5489  0C5D  3000               	movlw	0
  5490  0C5E  00A4               	movwf	_LCDGoto$314+1
  5491  0C5F                     l2569:
  5492  0C5F  0823               	movf	_LCDGoto$314,w
  5493  0C60  120A  158A  2318  120A  158A  	fcall	_LCDCmd
  5494  0C65                     l2571:
  5495                           
  5496                           ;lcd.c: 109:     _delay((unsigned long)((5)*(8000000/4000.0)));
  5497  0C65  300D               	movlw	13
  5498  0C66  1283               	bcf	3,5	;RP0=0, select bank0
  5499  0C67  1303               	bcf	3,6	;RP1=0, select bank0
  5500  0C68  00A2               	movwf	??_LCDGoto+1
  5501  0C69  30FB               	movlw	251
  5502  0C6A  00A1               	movwf	??_LCDGoto
  5503  0C6B                     u3757:
  5504  0C6B  0BA1               	decfsz	??_LCDGoto,f
  5505  0C6C  2C6B               	goto	u3757
  5506  0C6D  0BA2               	decfsz	??_LCDGoto+1,f
  5507  0C6E  2C6B               	goto	u3757
  5508  0C6F                     l107:
  5509  0C6F  0008               	return
  5510  0C70                     __end_of_LCDGoto:
  5511                           
  5512                           	psect	text18
  5513  0B18                     __ptext18:	
  5514 ;; *************** function _LCDCmd *****************
  5515 ;; Defined at:
  5516 ;;		line 77 in file "lcd.c"
  5517 ;; Parameters:    Size  Location     Type
  5518 ;;  ch              1    wreg     unsigned char 
  5519 ;; Auto vars:     Size  Location     Type
  5520 ;;  ch              1    7[COMMON] unsigned char 
  5521 ;; Return value:  Size  Location     Type
  5522 ;;                  1    wreg      void 
  5523 ;; Registers used:
  5524 ;;		wreg, status,2, status,0, pclath, cstack
  5525 ;; Tracked objects:
  5526 ;;		On entry : 0/0
  5527 ;;		On exit  : 0/0
  5528 ;;		Unchanged: 0/0
  5529 ;; Data sizes:     COMMON   BANK0   BANK1   BANK3   BANK2
  5530 ;;      Params:         0       0       0       0       0
  5531 ;;      Locals:         1       0       0       0       0
  5532 ;;      Temps:          2       0       0       0       0
  5533 ;;      Totals:         3       0       0       0       0
  5534 ;;Total ram usage:        3 bytes
  5535 ;; Hardware stack levels used:    1
  5536 ;; Hardware stack levels required when called:    2
  5537 ;; This function calls:
  5538 ;;		_LCDWrite
  5539 ;; This function is called by:
  5540 ;;		_LCD_Initialize
  5541 ;;		_LCDGoto
  5542 ;; This function uses a non-reentrant model
  5543 ;;
  5544                           
  5545                           
  5546                           ;psect for function _LCDCmd
  5547  0B18                     _LCDCmd:
  5548                           
  5549                           ;incstack = 0
  5550                           ; Regs used in _LCDCmd: [wreg+status,2+status,0+pclath+cstack]
  5551                           ;LCDCmd@ch stored from wreg
  5552  0B18  00F7               	movwf	LCDCmd@ch
  5553  0B19                     l2353:
  5554                           
  5555                           ;lcd.c: 78:     _delay((unsigned long)((5)*(8000000/4000.0)));
  5556  0B19  300D               	movlw	13
  5557  0B1A  00F6               	movwf	??_LCDCmd+1
  5558  0B1B  30FB               	movlw	251
  5559  0B1C  00F5               	movwf	??_LCDCmd
  5560  0B1D                     u3767:
  5561  0B1D  0BF5               	decfsz	??_LCDCmd,f
  5562  0B1E  2B1D               	goto	u3767
  5563  0B1F  0BF6               	decfsz	??_LCDCmd+1,f
  5564  0B20  2B1D               	goto	u3767
  5565  0B21  2B22               	nop2
  5566  0B22                     l2355:
  5567                           
  5568                           ;lcd.c: 80:     LCDWrite(ch,0);
  5569  0B22  01F3               	clrf	LCDWrite@rs
  5570  0B23  0877               	movf	LCDCmd@ch,w
  5571  0B24  120A  158A  22F7  120A  158A  	fcall	_LCDWrite
  5572  0B29                     l95:
  5573  0B29  0008               	return
  5574  0B2A                     __end_of_LCDCmd:
  5575                           
  5576                           	psect	text19
  5577  0AF7                     __ptext19:	
  5578 ;; *************** function _LCDWrite *****************
  5579 ;; Defined at:
  5580 ;;		line 48 in file "lcd.c"
  5581 ;; Parameters:    Size  Location     Type
  5582 ;;  ch              1    wreg     unsigned char 
  5583 ;;  rs              1    3[COMMON] unsigned char 
  5584 ;; Auto vars:     Size  Location     Type
  5585 ;;  ch              1    4[COMMON] unsigned char 
  5586 ;; Return value:  Size  Location     Type
  5587 ;;                  1    wreg      void 
  5588 ;; Registers used:
  5589 ;;		wreg, status,2, status,0
  5590 ;; Tracked objects:
  5591 ;;		On entry : 0/0
  5592 ;;		On exit  : 0/0
  5593 ;;		Unchanged: 0/0
  5594 ;; Data sizes:     COMMON   BANK0   BANK1   BANK3   BANK2
  5595 ;;      Params:         1       0       0       0       0
  5596 ;;      Locals:         1       0       0       0       0
  5597 ;;      Temps:          0       0       0       0       0
  5598 ;;      Totals:         2       0       0       0       0
  5599 ;;Total ram usage:        2 bytes
  5600 ;; Hardware stack levels used:    1
  5601 ;; Hardware stack levels required when called:    1
  5602 ;; This function calls:
  5603 ;;		Nothing
  5604 ;; This function is called by:
  5605 ;;		_LCDChar
  5606 ;;		_LCDCmd
  5607 ;; This function uses a non-reentrant model
  5608 ;;
  5609                           
  5610                           
  5611                           ;psect for function _LCDWrite
  5612  0AF7                     _LCDWrite:
  5613                           
  5614                           ;incstack = 0
  5615                           ; Regs used in _LCDWrite: [wreg+status,2+status,0]
  5616                           ;LCDWrite@ch stored from wreg
  5617  0AF7  00F4               	movwf	LCDWrite@ch
  5618  0AF8                     l2343:
  5619                           
  5620                           ;lcd.c: 51:     PORTD = (PORTD & 0x00);
  5621  0AF8  1283               	bcf	3,5	;RP0=0, select bank0
  5622  0AF9  1303               	bcf	3,6	;RP1=0, select bank0
  5623  0AFA  0188               	clrf	8	;volatile
  5624  0AFB                     l2345:
  5625                           
  5626                           ;lcd.c: 54:     PORTD = (PORTD | ch);
  5627  0AFB  0808               	movf	8,w	;volatile
  5628  0AFC  0474               	iorwf	LCDWrite@ch,w
  5629  0AFD  0088               	movwf	8	;volatile
  5630                           
  5631                           ;lcd.c: 57:     PORTEbits.RE0 = rs;
  5632  0AFE  0C73               	rrf	LCDWrite@rs,w
  5633  0AFF  1C03               	skipc
  5634  0B00  1009               	bcf	9,0	;volatile
  5635  0B01  1803               	skipnc
  5636  0B02  1409               	bsf	9,0	;volatile
  5637  0B03                     l2347:
  5638                           
  5639                           ;lcd.c: 60:     PORTEbits.RE2 = 0;
  5640  0B03  1109               	bcf	9,2	;volatile
  5641  0B04                     l2349:
  5642                           
  5643                           ;lcd.c: 63:     PORTEbits.RE1 = 1;
  5644  0B04  1489               	bsf	9,1	;volatile
  5645  0B05                     l2351:
  5646                           
  5647                           ;lcd.c: 66:     PORTEbits.RE1 = 0;
  5648  0B05  1089               	bcf	9,1	;volatile
  5649  0B06                     l89:
  5650  0B06  0008               	return
  5651  0B07                     __end_of_LCDWrite:
  5652                           
  5653                           	psect	text20
  5654  0CF2                     __ptext20:	
  5655 ;; *************** function _CONUSARTM *****************
  5656 ;; Defined at:
  5657 ;;		line 4 in file "EUSCON.c"
  5658 ;; Parameters:    Size  Location     Type
  5659 ;;  baudrate        4   14[BANK0 ] const long 
  5660 ;; Auto vars:     Size  Location     Type
  5661 ;;  p               4    4[COMMON] long 
  5662 ;; Return value:  Size  Location     Type
  5663 ;;                  1    wreg      void 
  5664 ;; Registers used:
  5665 ;;		wreg, status,2, status,0, btemp+1, pclath, cstack
  5666 ;; Tracked objects:
  5667 ;;		On entry : 0/0
  5668 ;;		On exit  : 0/0
  5669 ;;		Unchanged: 0/0
  5670 ;; Data sizes:     COMMON   BANK0   BANK1   BANK3   BANK2
  5671 ;;      Params:         0       4       0       0       0
  5672 ;;      Locals:         4       0       0       0       0
  5673 ;;      Temps:          0      12       0       0       0
  5674 ;;      Totals:         4      16       0       0       0
  5675 ;;Total ram usage:       20 bytes
  5676 ;; Hardware stack levels used:    1
  5677 ;; Hardware stack levels required when called:    2
  5678 ;; This function calls:
  5679 ;;		___aldiv
  5680 ;; This function is called by:
  5681 ;;		_main
  5682 ;; This function uses a non-reentrant model
  5683 ;;
  5684                           
  5685                           
  5686                           ;psect for function _CONUSARTM
  5687  0CF2                     _CONUSARTM:
  5688  0CF2                     l2457:	
  5689                           ;incstack = 0
  5690                           ; Regs used in _CONUSARTM: [wreg+status,2+status,0+btemp+1+pclath+cstack]
  5691                           
  5692                           
  5693                           ;EUSCON.c: 5:     long int p;;EUSCON.c: 6:     TXSTA = 0b00100000;
  5694  0CF2  3020               	movlw	32
  5695  0CF3  1683               	bsf	3,5	;RP0=1, select bank1
  5696  0CF4  1303               	bcf	3,6	;RP1=0, select bank1
  5697  0CF5  0098               	movwf	24	;volatile
  5698  0CF6                     l2459:
  5699                           
  5700                           ;EUSCON.c: 7:     BAUDCTLbits.BRG16 = 0;
  5701  0CF6  1683               	bsf	3,5	;RP0=1, select bank3
  5702  0CF7  1703               	bsf	3,6	;RP1=1, select bank3
  5703  0CF8  1187               	bcf	7,3	;volatile
  5704                           
  5705                           ;EUSCON.c: 8:     RCSTA= 0b10010000;
  5706  0CF9  3090               	movlw	144
  5707  0CFA  1283               	bcf	3,5	;RP0=0, select bank0
  5708  0CFB  1303               	bcf	3,6	;RP1=0, select bank0
  5709  0CFC  0098               	movwf	24	;volatile
  5710  0CFD                     l2461:
  5711                           
  5712                           ;EUSCON.c: 9:     p = (8000000 - baudrate*64)/(baudrate*64);
  5713  0CFD  082E               	movf	CONUSARTM@baudrate,w
  5714  0CFE  00B2               	movwf	??_CONUSARTM
  5715  0CFF  082F               	movf	CONUSARTM@baudrate+1,w
  5716  0D00  00B3               	movwf	??_CONUSARTM+1
  5717  0D01  0830               	movf	CONUSARTM@baudrate+2,w
  5718  0D02  00B4               	movwf	??_CONUSARTM+2
  5719  0D03  0831               	movf	CONUSARTM@baudrate+3,w
  5720  0D04  00B5               	movwf	??_CONUSARTM+3
  5721  0D05  3006               	movlw	6
  5722  0D06                     u3205:
  5723  0D06  1003               	clrc
  5724  0D07  0DB2               	rlf	??_CONUSARTM,f
  5725  0D08  0DB3               	rlf	??_CONUSARTM+1,f
  5726  0D09  0DB4               	rlf	??_CONUSARTM+2,f
  5727  0D0A  0DB5               	rlf	??_CONUSARTM+3,f
  5728  0D0B                     u3200:
  5729  0D0B  3EFF               	addlw	-1
  5730  0D0C  1D03               	skipz
  5731  0D0D  2D06               	goto	u3205
  5732  0D0E  0835               	movf	??_CONUSARTM+3,w
  5733  0D0F  00A3               	movwf	___aldiv@divisor+3
  5734  0D10  0834               	movf	??_CONUSARTM+2,w
  5735  0D11  00A2               	movwf	___aldiv@divisor+2
  5736  0D12  0833               	movf	??_CONUSARTM+1,w
  5737  0D13  00A1               	movwf	___aldiv@divisor+1
  5738  0D14  0832               	movf	??_CONUSARTM,w
  5739  0D15  00A0               	movwf	___aldiv@divisor
  5740  0D16  082E               	movf	CONUSARTM@baudrate,w
  5741  0D17  00B6               	movwf	??_CONUSARTM+4
  5742  0D18  082F               	movf	CONUSARTM@baudrate+1,w
  5743  0D19  00B7               	movwf	??_CONUSARTM+5
  5744  0D1A  0830               	movf	CONUSARTM@baudrate+2,w
  5745  0D1B  00B8               	movwf	??_CONUSARTM+6
  5746  0D1C  0831               	movf	CONUSARTM@baudrate+3,w
  5747  0D1D  00B9               	movwf	??_CONUSARTM+7
  5748  0D1E  3006               	movlw	6
  5749  0D1F                     u3215:
  5750  0D1F  1003               	clrc
  5751  0D20  0DB6               	rlf	??_CONUSARTM+4,f
  5752  0D21  0DB7               	rlf	??_CONUSARTM+5,f
  5753  0D22  0DB8               	rlf	??_CONUSARTM+6,f
  5754  0D23  0DB9               	rlf	??_CONUSARTM+7,f
  5755  0D24                     u3210:
  5756  0D24  3EFF               	addlw	-1
  5757  0D25  1D03               	skipz
  5758  0D26  2D1F               	goto	u3215
  5759  0D27  3000               	movlw	0
  5760  0D28  00BA               	movwf	??_CONUSARTM+8
  5761  0D29  3012               	movlw	18
  5762  0D2A  00BB               	movwf	??_CONUSARTM+9
  5763  0D2B  307A               	movlw	122
  5764  0D2C  00BC               	movwf	??_CONUSARTM+10
  5765  0D2D  3000               	movlw	0
  5766  0D2E  00BD               	movwf	??_CONUSARTM+11
  5767  0D2F  0836               	movf	??_CONUSARTM+4,w
  5768  0D30  02BA               	subwf	??_CONUSARTM+8,f
  5769  0D31  0837               	movf	??_CONUSARTM+5,w
  5770  0D32  1C03               	skipc
  5771  0D33  0F37               	incfsz	??_CONUSARTM+5,w
  5772  0D34  2D36               	goto	u3221
  5773  0D35  2D37               	goto	u3222
  5774  0D36                     u3221:
  5775  0D36  02BB               	subwf	??_CONUSARTM+9,f
  5776  0D37                     u3222:
  5777  0D37  0838               	movf	??_CONUSARTM+6,w
  5778  0D38  1C03               	skipc
  5779  0D39  0F38               	incfsz	??_CONUSARTM+6,w
  5780  0D3A  2D3C               	goto	u3223
  5781  0D3B  2D3D               	goto	u3224
  5782  0D3C                     u3223:
  5783  0D3C  02BC               	subwf	??_CONUSARTM+10,f
  5784  0D3D                     u3224:
  5785  0D3D  0839               	movf	??_CONUSARTM+7,w
  5786  0D3E  1C03               	skipc
  5787  0D3F  0F39               	incfsz	??_CONUSARTM+7,w
  5788  0D40  2D42               	goto	u3225
  5789  0D41  2D43               	goto	u3226
  5790  0D42                     u3225:
  5791  0D42  02BD               	subwf	??_CONUSARTM+11,f
  5792  0D43                     u3226:
  5793  0D43  083D               	movf	??_CONUSARTM+11,w
  5794  0D44  00A7               	movwf	___aldiv@dividend+3
  5795  0D45  083C               	movf	??_CONUSARTM+10,w
  5796  0D46  00A6               	movwf	___aldiv@dividend+2
  5797  0D47  083B               	movf	??_CONUSARTM+9,w
  5798  0D48  00A5               	movwf	___aldiv@dividend+1
  5799  0D49  083A               	movf	??_CONUSARTM+8,w
  5800  0D4A  00A4               	movwf	___aldiv@dividend
  5801  0D4B  120A  158A  25DB  120A  158A  	fcall	___aldiv
  5802  0D50  1283               	bcf	3,5	;RP0=0, select bank0
  5803  0D51  1303               	bcf	3,6	;RP1=0, select bank0
  5804  0D52  0823               	movf	?___aldiv+3,w
  5805  0D53  00F7               	movwf	CONUSARTM@p+3
  5806  0D54  0822               	movf	?___aldiv+2,w
  5807  0D55  00F6               	movwf	CONUSARTM@p+2
  5808  0D56  0821               	movf	?___aldiv+1,w
  5809  0D57  00F5               	movwf	CONUSARTM@p+1
  5810  0D58  0820               	movf	?___aldiv,w
  5811  0D59  00F4               	movwf	CONUSARTM@p
  5812  0D5A                     l2463:
  5813                           
  5814                           ;EUSCON.c: 10:     SPBRG = p;
  5815  0D5A  0874               	movf	CONUSARTM@p,w
  5816  0D5B  1683               	bsf	3,5	;RP0=1, select bank1
  5817  0D5C  1303               	bcf	3,6	;RP1=0, select bank1
  5818  0D5D  0099               	movwf	25	;volatile
  5819  0D5E                     l122:
  5820  0D5E  0008               	return
  5821  0D5F                     __end_of_CONUSARTM:
  5822                           
  5823                           	psect	text21
  5824  0DDB                     __ptext21:	
  5825 ;; *************** function ___aldiv *****************
  5826 ;; Defined at:
  5827 ;;		line 5 in file "C:\Program Files\Microchip\xc8\v2.20\pic\sources\c90\common\aldiv.c"
  5828 ;; Parameters:    Size  Location     Type
  5829 ;;  divisor         4    0[BANK0 ] long 
  5830 ;;  dividend        4    4[BANK0 ] long 
  5831 ;; Auto vars:     Size  Location     Type
  5832 ;;  quotient        4   10[BANK0 ] long 
  5833 ;;  sign            1    9[BANK0 ] unsigned char 
  5834 ;;  counter         1    8[BANK0 ] unsigned char 
  5835 ;; Return value:  Size  Location     Type
  5836 ;;                  4    0[BANK0 ] long 
  5837 ;; Registers used:
  5838 ;;		wreg, status,2, status,0, btemp+1
  5839 ;; Tracked objects:
  5840 ;;		On entry : 0/0
  5841 ;;		On exit  : 0/0
  5842 ;;		Unchanged: 0/0
  5843 ;; Data sizes:     COMMON   BANK0   BANK1   BANK3   BANK2
  5844 ;;      Params:         0       8       0       0       0
  5845 ;;      Locals:         0       6       0       0       0
  5846 ;;      Temps:          1       0       0       0       0
  5847 ;;      Totals:         1      14       0       0       0
  5848 ;;Total ram usage:       15 bytes
  5849 ;; Hardware stack levels used:    1
  5850 ;; Hardware stack levels required when called:    1
  5851 ;; This function calls:
  5852 ;;		Nothing
  5853 ;; This function is called by:
  5854 ;;		_CONUSARTM
  5855 ;; This function uses a non-reentrant model
  5856 ;;
  5857                           
  5858                           
  5859                           ;psect for function ___aldiv
  5860  0DDB                     ___aldiv:
  5861  0DDB                     l2375:	
  5862                           ;incstack = 0
  5863                           ; Regs used in ___aldiv: [wreg+status,2+status,0+btemp+1]
  5864                           
  5865  0DDB  1283               	bcf	3,5	;RP0=0, select bank0
  5866  0DDC  1303               	bcf	3,6	;RP1=0, select bank0
  5867  0DDD  01A9               	clrf	___aldiv@sign
  5868  0DDE                     l2377:
  5869  0DDE  1FA3               	btfss	___aldiv@divisor+3,7
  5870  0DDF  2DE1               	goto	u3031
  5871  0DE0  2DE2               	goto	u3030
  5872  0DE1                     u3031:
  5873  0DE1  2DEF               	goto	l353
  5874  0DE2                     u3030:
  5875  0DE2                     l2379:
  5876  0DE2  09A0               	comf	___aldiv@divisor,f
  5877  0DE3  09A1               	comf	___aldiv@divisor+1,f
  5878  0DE4  09A2               	comf	___aldiv@divisor+2,f
  5879  0DE5  09A3               	comf	___aldiv@divisor+3,f
  5880  0DE6  0AA0               	incf	___aldiv@divisor,f
  5881  0DE7  1903               	skipnz
  5882  0DE8  0AA1               	incf	___aldiv@divisor+1,f
  5883  0DE9  1903               	skipnz
  5884  0DEA  0AA2               	incf	___aldiv@divisor+2,f
  5885  0DEB  1903               	skipnz
  5886  0DEC  0AA3               	incf	___aldiv@divisor+3,f
  5887  0DED  01A9               	clrf	___aldiv@sign
  5888  0DEE  0AA9               	incf	___aldiv@sign,f
  5889  0DEF                     l353:
  5890  0DEF  1FA7               	btfss	___aldiv@dividend+3,7
  5891  0DF0  2DF2               	goto	u3041
  5892  0DF1  2DF3               	goto	u3040
  5893  0DF2                     u3041:
  5894  0DF2  2E02               	goto	l2385
  5895  0DF3                     u3040:
  5896  0DF3                     l2381:
  5897  0DF3  09A4               	comf	___aldiv@dividend,f
  5898  0DF4  09A5               	comf	___aldiv@dividend+1,f
  5899  0DF5  09A6               	comf	___aldiv@dividend+2,f
  5900  0DF6  09A7               	comf	___aldiv@dividend+3,f
  5901  0DF7  0AA4               	incf	___aldiv@dividend,f
  5902  0DF8  1903               	skipnz
  5903  0DF9  0AA5               	incf	___aldiv@dividend+1,f
  5904  0DFA  1903               	skipnz
  5905  0DFB  0AA6               	incf	___aldiv@dividend+2,f
  5906  0DFC  1903               	skipnz
  5907  0DFD  0AA7               	incf	___aldiv@dividend+3,f
  5908  0DFE                     l2383:
  5909  0DFE  3001               	movlw	1
  5910  0DFF  00FF               	movwf	btemp+1
  5911  0E00  087F               	movf	btemp+1,w
  5912  0E01  06A9               	xorwf	___aldiv@sign,f
  5913  0E02                     l2385:
  5914  0E02  3000               	movlw	0
  5915  0E03  00AD               	movwf	___aldiv@quotient+3
  5916  0E04  3000               	movlw	0
  5917  0E05  00AC               	movwf	___aldiv@quotient+2
  5918  0E06  3000               	movlw	0
  5919  0E07  00AB               	movwf	___aldiv@quotient+1
  5920  0E08  3000               	movlw	0
  5921  0E09  00AA               	movwf	___aldiv@quotient
  5922  0E0A                     l2387:
  5923  0E0A  0823               	movf	___aldiv@divisor+3,w
  5924  0E0B  0422               	iorwf	___aldiv@divisor+2,w
  5925  0E0C  0421               	iorwf	___aldiv@divisor+1,w
  5926  0E0D  0420               	iorwf	___aldiv@divisor,w
  5927  0E0E  1903               	skipnz
  5928  0E0F  2E11               	goto	u3051
  5929  0E10  2E12               	goto	u3050
  5930  0E11                     u3051:
  5931  0E11  2E5F               	goto	l2409
  5932  0E12                     u3050:
  5933  0E12                     l2389:
  5934  0E12  01A8               	clrf	___aldiv@counter
  5935  0E13  0AA8               	incf	___aldiv@counter,f
  5936  0E14  2E22               	goto	l2395
  5937  0E15                     l2391:
  5938  0E15  3001               	movlw	1
  5939  0E16  00F3               	movwf	??___aldiv
  5940  0E17                     u3065:
  5941  0E17  1003               	clrc
  5942  0E18  0DA0               	rlf	___aldiv@divisor,f
  5943  0E19  0DA1               	rlf	___aldiv@divisor+1,f
  5944  0E1A  0DA2               	rlf	___aldiv@divisor+2,f
  5945  0E1B  0DA3               	rlf	___aldiv@divisor+3,f
  5946  0E1C  0BF3               	decfsz	??___aldiv,f
  5947  0E1D  2E17               	goto	u3065
  5948  0E1E                     l2393:
  5949  0E1E  3001               	movlw	1
  5950  0E1F  00FF               	movwf	btemp+1
  5951  0E20  087F               	movf	btemp+1,w
  5952  0E21  07A8               	addwf	___aldiv@counter,f
  5953  0E22                     l2395:
  5954  0E22  1FA3               	btfss	___aldiv@divisor+3,7
  5955  0E23  2E25               	goto	u3071
  5956  0E24  2E26               	goto	u3070
  5957  0E25                     u3071:
  5958  0E25  2E15               	goto	l2391
  5959  0E26                     u3070:
  5960  0E26                     l2397:
  5961  0E26  3001               	movlw	1
  5962  0E27  00F3               	movwf	??___aldiv
  5963  0E28                     u3085:
  5964  0E28  1003               	clrc
  5965  0E29  0DAA               	rlf	___aldiv@quotient,f
  5966  0E2A  0DAB               	rlf	___aldiv@quotient+1,f
  5967  0E2B  0DAC               	rlf	___aldiv@quotient+2,f
  5968  0E2C  0DAD               	rlf	___aldiv@quotient+3,f
  5969  0E2D  0BF3               	decfsz	??___aldiv,f
  5970  0E2E  2E28               	goto	u3085
  5971  0E2F                     l2399:
  5972  0E2F  0823               	movf	___aldiv@divisor+3,w
  5973  0E30  0227               	subwf	___aldiv@dividend+3,w
  5974  0E31  1D03               	skipz
  5975  0E32  2E3D               	goto	u3095
  5976  0E33  0822               	movf	___aldiv@divisor+2,w
  5977  0E34  0226               	subwf	___aldiv@dividend+2,w
  5978  0E35  1D03               	skipz
  5979  0E36  2E3D               	goto	u3095
  5980  0E37  0821               	movf	___aldiv@divisor+1,w
  5981  0E38  0225               	subwf	___aldiv@dividend+1,w
  5982  0E39  1D03               	skipz
  5983  0E3A  2E3D               	goto	u3095
  5984  0E3B  0820               	movf	___aldiv@divisor,w
  5985  0E3C  0224               	subwf	___aldiv@dividend,w
  5986  0E3D                     u3095:
  5987  0E3D  1C03               	skipc
  5988  0E3E  2E40               	goto	u3091
  5989  0E3F  2E41               	goto	u3090
  5990  0E40                     u3091:
  5991  0E40  2E50               	goto	l2405
  5992  0E41                     u3090:
  5993  0E41                     l2401:
  5994  0E41  0820               	movf	___aldiv@divisor,w
  5995  0E42  02A4               	subwf	___aldiv@dividend,f
  5996  0E43  0821               	movf	___aldiv@divisor+1,w
  5997  0E44  1C03               	skipc
  5998  0E45  0F21               	incfsz	___aldiv@divisor+1,w
  5999  0E46  02A5               	subwf	___aldiv@dividend+1,f
  6000  0E47  0822               	movf	___aldiv@divisor+2,w
  6001  0E48  1C03               	skipc
  6002  0E49  0F22               	incfsz	___aldiv@divisor+2,w
  6003  0E4A  02A6               	subwf	___aldiv@dividend+2,f
  6004  0E4B  0823               	movf	___aldiv@divisor+3,w
  6005  0E4C  1C03               	skipc
  6006  0E4D  0F23               	incfsz	___aldiv@divisor+3,w
  6007  0E4E  02A7               	subwf	___aldiv@dividend+3,f
  6008  0E4F                     l2403:
  6009  0E4F  142A               	bsf	___aldiv@quotient,0
  6010  0E50                     l2405:
  6011  0E50  3001               	movlw	1
  6012  0E51                     u3105:
  6013  0E51  1003               	clrc
  6014  0E52  0CA3               	rrf	___aldiv@divisor+3,f
  6015  0E53  0CA2               	rrf	___aldiv@divisor+2,f
  6016  0E54  0CA1               	rrf	___aldiv@divisor+1,f
  6017  0E55  0CA0               	rrf	___aldiv@divisor,f
  6018  0E56  3EFF               	addlw	-1
  6019  0E57  1D03               	skipz
  6020  0E58  2E51               	goto	u3105
  6021  0E59                     l2407:
  6022  0E59  3001               	movlw	1
  6023  0E5A  02A8               	subwf	___aldiv@counter,f
  6024  0E5B  1D03               	btfss	3,2
  6025  0E5C  2E5E               	goto	u3111
  6026  0E5D  2E5F               	goto	u3110
  6027  0E5E                     u3111:
  6028  0E5E  2E26               	goto	l2397
  6029  0E5F                     u3110:
  6030  0E5F                     l2409:
  6031  0E5F  0829               	movf	___aldiv@sign,w
  6032  0E60  1903               	btfsc	3,2
  6033  0E61  2E63               	goto	u3121
  6034  0E62  2E64               	goto	u3120
  6035  0E63                     u3121:
  6036  0E63  2E6F               	goto	l2413
  6037  0E64                     u3120:
  6038  0E64                     l2411:
  6039  0E64  09AA               	comf	___aldiv@quotient,f
  6040  0E65  09AB               	comf	___aldiv@quotient+1,f
  6041  0E66  09AC               	comf	___aldiv@quotient+2,f
  6042  0E67  09AD               	comf	___aldiv@quotient+3,f
  6043  0E68  0AAA               	incf	___aldiv@quotient,f
  6044  0E69  1903               	skipnz
  6045  0E6A  0AAB               	incf	___aldiv@quotient+1,f
  6046  0E6B  1903               	skipnz
  6047  0E6C  0AAC               	incf	___aldiv@quotient+2,f
  6048  0E6D  1903               	skipnz
  6049  0E6E  0AAD               	incf	___aldiv@quotient+3,f
  6050  0E6F                     l2413:
  6051  0E6F  082D               	movf	___aldiv@quotient+3,w
  6052  0E70  00A3               	movwf	?___aldiv+3
  6053  0E71  082C               	movf	___aldiv@quotient+2,w
  6054  0E72  00A2               	movwf	?___aldiv+2
  6055  0E73  082B               	movf	___aldiv@quotient+1,w
  6056  0E74  00A1               	movwf	?___aldiv+1
  6057  0E75  082A               	movf	___aldiv@quotient,w
  6058  0E76  00A0               	movwf	?___aldiv
  6059  0E77                     l363:
  6060  0E77  0008               	return
  6061  0E78                     __end_of___aldiv:
  6062                           
  6063                           	psect	text22
  6064  0B69                     __ptext22:	
  6065 ;; *************** function _intac *****************
  6066 ;; Defined at:
  6067 ;;		line 28 in file "master.c"
  6068 ;; Parameters:    Size  Location     Type
  6069 ;;		None
  6070 ;; Auto vars:     Size  Location     Type
  6071 ;;		None
  6072 ;; Return value:  Size  Location     Type
  6073 ;;                  1    wreg      void 
  6074 ;; Registers used:
  6075 ;;		wreg, fsr0l, fsr0h, status,2, status,0
  6076 ;; Tracked objects:
  6077 ;;		On entry : 0/0
  6078 ;;		On exit  : 0/0
  6079 ;;		Unchanged: 0/0
  6080 ;; Data sizes:     COMMON   BANK0   BANK1   BANK3   BANK2
  6081 ;;      Params:         0       0       0       0       0
  6082 ;;      Locals:         0       0       0       0       0
  6083 ;;      Temps:          3       0       0       0       0
  6084 ;;      Totals:         3       0       0       0       0
  6085 ;;Total ram usage:        3 bytes
  6086 ;; Hardware stack levels used:    1
  6087 ;; This function calls:
  6088 ;;		Nothing
  6089 ;; This function is called by:
  6090 ;;		Interrupt level 1
  6091 ;; This function uses a non-reentrant model
  6092 ;;
  6093                           
  6094                           
  6095                           ;psect for function _intac
  6096  0B69                     _intac:
  6097  0B69                     i1l2239:
  6098                           
  6099                           ;master.c: 30:     if (PIR1bits.TXIF == 1) {
  6100  0B69  1283               	bcf	3,5	;RP0=0, select bank0
  6101  0B6A  1303               	bcf	3,6	;RP1=0, select bank0
  6102  0B6B  1E0C               	btfss	12,4	;volatile
  6103  0B6C  2B6E               	goto	u293_21
  6104  0B6D  2B6F               	goto	u293_20
  6105  0B6E                     u293_21:
  6106  0B6E  2B85               	goto	i1l60
  6107  0B6F                     u293_20:
  6108  0B6F                     i1l2241:
  6109                           
  6110                           ;master.c: 31:         TXREG = datos[incre];
  6111  0B6F  0878               	movf	_incre,w
  6112  0B70  3EB8               	addlw	(low (_datos| 0))& (0+255)
  6113  0B71  0084               	movwf	4
  6114  0B72  1383               	bcf	3,7	;select IRP bank1
  6115  0B73  0800               	movf	0,w
  6116  0B74  0099               	movwf	25	;volatile
  6117  0B75                     i1l2243:
  6118                           
  6119                           ;master.c: 34:         if (incre == 16) {
  6120  0B75  3010               	movlw	16
  6121  0B76  0678               	xorwf	_incre,w
  6122  0B77  0479               	iorwf	_incre+1,w
  6123  0B78  1D03               	btfss	3,2
  6124  0B79  2B7B               	goto	u294_21
  6125  0B7A  2B7C               	goto	u294_20
  6126  0B7B                     u294_21:
  6127  0B7B  2B7F               	goto	i1l2247
  6128  0B7C                     u294_20:
  6129  0B7C                     i1l2245:
  6130                           
  6131                           ;master.c: 35:             incre = 0;
  6132  0B7C  01F8               	clrf	_incre
  6133  0B7D  01F9               	clrf	_incre+1
  6134                           
  6135                           ;master.c: 36:         } else {
  6136  0B7E  2B85               	goto	i1l60
  6137  0B7F                     i1l2247:
  6138                           
  6139                           ;master.c: 37:             incre++;
  6140  0B7F  3001               	movlw	1
  6141  0B80  07F8               	addwf	_incre,f
  6142  0B81  1803               	skipnc
  6143  0B82  0AF9               	incf	_incre+1,f
  6144  0B83  3000               	movlw	0
  6145  0B84  07F9               	addwf	_incre+1,f
  6146  0B85                     i1l60:
  6147  0B85  0872               	movf	??_intac+2,w
  6148  0B86  008A               	movwf	10
  6149  0B87  0871               	movf	??_intac+1,w
  6150  0B88  0084               	movwf	4
  6151  0B89  0E70               	swapf	??_intac^(0+4294967168),w
  6152  0B8A  0083               	movwf	3
  6153  0B8B  0EFE               	swapf	btemp,f
  6154  0B8C  0E7E               	swapf	btemp,w
  6155  0B8D  0009               	retfie
  6156  0B8E                     __end_of_intac:
  6157  007E                     btemp	set	126	;btemp
  6158  007E                     wtemp0	set	126
  6159                           
  6160                           	psect	intentry
  6161  0004                     __pintentry:	
  6162                           ;incstack = 0
  6163                           ; Regs used in _intac: [wreg-fsr0h+status,2+status,0]
  6164                           
  6165  0004                     interrupt_function:
  6166  007E                     saved_w	set	btemp
  6167  0004  00FE               	movwf	btemp
  6168  0005  0E03               	swapf	3,w
  6169  0006  00F0               	movwf	??_intac
  6170  0007  0804               	movf	4,w
  6171  0008  00F1               	movwf	??_intac+1
  6172  0009  080A               	movf	10,w
  6173  000A  00F2               	movwf	??_intac+2
  6174  000B  120A  158A  2B69   	ljmp	_intac
  6175                           
  6176                           	psect	config
  6177                           
  6178                           ;Config register CONFIG1 @ 0x2007
  6179                           ;	Oscillator Selection bits
  6180                           ;	FOSC = EXTRC_CLKOUT, RC oscillator: CLKOUT function on RA6/OSC2/CLKOUT pin, RC on RA7/
      +                          OSC1/CLKIN
  6181                           ;	Watchdog Timer Enable bit
  6182                           ;	WDTE = OFF, WDT disabled and can be enabled by SWDTEN bit of the WDTCON register
  6183                           ;	Power-up Timer Enable bit
  6184                           ;	PWRTE = OFF, PWRT disabled
  6185                           ;	RE3/MCLR pin function select bit
  6186                           ;	MCLRE = OFF, RE3/MCLR pin function is digital input, MCLR internally tied to VDD
  6187                           ;	Code Protection bit
  6188                           ;	CP = OFF, Program memory code protection is disabled
  6189                           ;	Data Code Protection bit
  6190                           ;	CPD = OFF, Data memory code protection is disabled
  6191                           ;	Brown Out Reset Selection bits
  6192                           ;	BOREN = ON, BOR enabled
  6193                           ;	Internal External Switchover bit
  6194                           ;	IESO = OFF, Internal/External Switchover mode is disabled
  6195                           ;	Fail-Safe Clock Monitor Enabled bit
  6196                           ;	FCMEN = OFF, Fail-Safe Clock Monitor is disabled
  6197                           ;	Low Voltage Programming Enable bit
  6198                           ;	LVP = OFF, RB3 pin has digital I/O, HV on MCLR must be used for programming
  6199                           ;	In-Circuit Debugger Mode bit
  6200                           ;	DEBUG = 0x1, unprogrammed default
  6201  2007                     	org	8199
  6202  2007  23D7               	dw	9175
  6203                           
  6204                           ;Config register CONFIG2 @ 0x2008
  6205                           ;	Brown-out Reset Selection bit
  6206                           ;	BOR4V = BOR40V, Brown-out Reset set to 4.0V
  6207                           ;	Flash Program Memory Self Write Enable bits
  6208                           ;	WRT = OFF, Write protection off
  6209  2008                     	org	8200
  6210  2008  3FFF               	dw	16383

Data Sizes:
    Strings     36
    Constant    10
    Data        25
    BSS         58
    Persistent  0
    Stack       0

Auto Spaces:
    Space          Size  Autos    Used
    COMMON           14      8      11
    BANK0            80     67      78
    BANK1            80      6      75
    BANK3            96      0       0
    BANK2            96      0       0

Pointer List with Targets:

    sprintf@f	PTR const unsigned char  size(1) Largest target is 19
		 -> STR_1(CODE[19]), 

    sprintf@sp	PTR unsigned char  size(1) Largest target is 20
		 -> datos(BANK1[20]), 

    sprintf@ap	PTR void [1] size(1) Largest target is 2
		 -> ?_sprintf(BANK0[2]), 

    LCDStr@str	PTR const unsigned char  size(2) Largest target is 20
		 -> STR_2(CODE[17]), datos(BANK1[20]), 


Critical Paths under _main in COMMON

    _main->_CONUSARTM
    _main->___lwmod
    _sprintf->___lwmod
    ___lwmod->___lwdiv
    ___flmul->__Umul8_16
    _LCD_Initialize->_LCDCmd
    _LCDStr->_LCDChar
    _LCDChar->_LCDWrite
    _LCDGoto->_LCDCmd
    _LCDCmd->_LCDWrite
    _CONUSARTM->___aldiv

Critical Paths under _intac in COMMON

    None.

Critical Paths under _main in BANK0

    _main->___fltol
    _sprintf->___lwmod
    ___lwmod->___lwdiv
    ___fltol->___fldiv
    ___flmul->__Umul8_16
    ___fldiv->___flmul
    _CONUSARTM->___aldiv

Critical Paths under _intac in BANK0

    None.

Critical Paths under _main in BANK1

    None.

Critical Paths under _intac in BANK1

    None.

Critical Paths under _main in BANK3

    None.

Critical Paths under _intac in BANK3

    None.

Critical Paths under _main in BANK2

    None.

Critical Paths under _intac in BANK2

    None.

Call Graph Tables:

 ---------------------------------------------------------------------------------
 (Depth) Function   	        Calls       Base Space   Used Autos Params    Refs
 ---------------------------------------------------------------------------------
 (0) _main                                                 6     6      0   10728
                                              0 BANK1      6     6      0
                          _CONUSARTM
                            _LCDGoto
                             _LCDStr
                     _LCD_Initialize
                            ___fldiv
                            ___flmul
                            ___fltol
                            ___lwdiv
                            ___lwmod
                           ___xxtofl
                              _inter
                            _setupm1
                            _spiconm
                            _sprintf
 ---------------------------------------------------------------------------------
 (1) _sprintf                                             31    20     11    2669
                                              7 BANK0     23    12     11
                            ___lwdiv
                            ___lwmod
                             ___wmul
                            _isdigit
 ---------------------------------------------------------------------------------
 (2) _isdigit                                              2     2      0      68
                                              3 COMMON     2     2      0
 ---------------------------------------------------------------------------------
 (2) ___wmul                                               6     2      4     316
                                              3 COMMON     4     0      4
                                              0 BANK0      2     2      0
 ---------------------------------------------------------------------------------
 (2) ___lwmod                                              5     1      4     463
                                              7 COMMON     1     1      0
                                              3 BANK0      4     0      4
                            ___lwdiv (ARG)
 ---------------------------------------------------------------------------------
 (2) ___lwdiv                                              7     3      4     601
                                              3 COMMON     4     0      4
                                              0 BANK0      3     3      0
 ---------------------------------------------------------------------------------
 (1) _spiconm                                              0     0      0       0
 ---------------------------------------------------------------------------------
 (1) _setupm1                                              0     0      0       0
 ---------------------------------------------------------------------------------
 (1) _inter                                                0     0      0       0
 ---------------------------------------------------------------------------------
 (1) ___xxtofl                                            14    10      4     566
                                              3 COMMON     4     0      4
                                              0 BANK0     10    10      0
 ---------------------------------------------------------------------------------
 (1) ___fltol                                             10     6      4     427
                                             57 BANK0     10     6      4
                            ___fldiv (ARG)
                            ___flmul (ARG)
 ---------------------------------------------------------------------------------
 (1) ___flmul                                             26    18      8    2417
                                              5 BANK0     26    18      8
                          __Umul8_16
 ---------------------------------------------------------------------------------
 (2) __Umul8_16                                            9     7      2     799
                                              3 COMMON     4     2      2
                                              0 BANK0      5     5      0
 ---------------------------------------------------------------------------------
 (1) ___fldiv                                             26    18      8    1273
                                             31 BANK0     26    18      8
                            ___flmul (ARG)
 ---------------------------------------------------------------------------------
 (1) _LCD_Initialize                                       2     2      0     273
                                              0 BANK0      2     2      0
                             _LCDCmd
 ---------------------------------------------------------------------------------
 (1) _LCDStr                                               3     1      2     583
                                              0 BANK0      3     1      2
                            _LCDChar
 ---------------------------------------------------------------------------------
 (2) _LCDChar                                              3     3      0     273
                                              5 COMMON     3     3      0
                           _LCDWrite
 ---------------------------------------------------------------------------------
 (1) _LCDGoto                                              6     5      1     645
                                              0 BANK0      6     5      1
                             _LCDCmd
 ---------------------------------------------------------------------------------
 (2) _LCDCmd                                               3     3      0     273
                                              5 COMMON     3     3      0
                           _LCDWrite
 ---------------------------------------------------------------------------------
 (3) _LCDWrite                                             2     1      1     242
                                              3 COMMON     2     1      1
 ---------------------------------------------------------------------------------
 (1) _CONUSARTM                                           20    16      4     811
                                              4 COMMON     4     4      0
                                             14 BANK0     16    12      4
                            ___aldiv
 ---------------------------------------------------------------------------------
 (2) ___aldiv                                             15     7      8     625
                                              3 COMMON     1     1      0
                                              0 BANK0     14     6      8
 ---------------------------------------------------------------------------------
 Estimated maximum stack depth 3
 ---------------------------------------------------------------------------------
 (Depth) Function   	        Calls       Base Space   Used Autos Params    Refs
 ---------------------------------------------------------------------------------
 (4) _intac                                                3     3      0       0
                                              0 COMMON     3     3      0
 ---------------------------------------------------------------------------------
 Estimated maximum stack depth 4
 ---------------------------------------------------------------------------------

 Call Graph Graphs:

 _main (ROOT)
   _CONUSARTM
     ___aldiv
   _LCDGoto
     _LCDCmd
       _LCDWrite
   _LCDStr
     _LCDChar
       _LCDWrite
   _LCD_Initialize
     _LCDCmd
       _LCDWrite
   ___fldiv
     ___flmul (ARG)
       __Umul8_16
   ___flmul
     __Umul8_16
   ___fltol
     ___fldiv (ARG)
       ___flmul (ARG)
         __Umul8_16
     ___flmul (ARG)
       __Umul8_16
   ___lwdiv
   ___lwmod
     ___lwdiv (ARG)
   ___xxtofl
   _inter
   _setupm1
   _spiconm
   _sprintf
     ___lwdiv
     ___lwmod
       ___lwdiv (ARG)
     ___wmul
     _isdigit

 _intac (ROOT)

 Address spaces:
Name               Size   Autos  Total    Cost      Usage
BANK3               60      0       0       9        0.0%
BITBANK3            60      0       0       8        0.0%
SFR3                 0      0       0       4        0.0%
BITSFR3              0      0       0       4        0.0%
BANK2               60      0       0      11        0.0%
BITBANK2            60      0       0      10        0.0%
SFR2                 0      0       0       5        0.0%
BITSFR2              0      0       0       5        0.0%
BANK1               50      6      4B       7       93.8%
BITBANK1            50      0       0       6        0.0%
SFR1                 0      0       0       2        0.0%
BITSFR1              0      0       0       2        0.0%
BANK0               50     43      4E       5       97.5%
BITBANK0            50      0       0       4        0.0%
SFR0                 0      0       0       1        0.0%
BITSFR0              0      0       0       1        0.0%
COMMON               E      8       B       1       78.6%
BITCOMMON            E      0       0       0        0.0%
CODE                 0      0       0       0        0.0%
DATA                 0      0      A4      12        0.0%
ABS                  0      0      A4       3        0.0%
NULL                 0      0       0       0        0.0%
STACK                0      0       0       2        0.0%
EEDATA             100      0       0       0        0.0%


Microchip Technology PIC Macro Assembler V2.20 build 20200408173844 
Symbol Table                                                                                   Wed Feb 24 22:56:16 2021

           ___fldiv@aexp 0058             ___fldiv@bexp 0057                        _i 0068  
         _LCD_Initialize 0C0F                        pc 0002             ___fldiv@sign 0050  
            _SSPSTATbits 0094                       l67 05FC                       l92 0B3C  
                     l68 0624                       l86 0C3E                       l95 0B29  
                     l89 0B06                       fsr 0004      ___wmul@multiplicand 0075  
    __Umul8_16@word_mpld 0022                      l101 0C0E                      l122 0D5E  
                    l107 0C6F                      l151 0B17                      l154 0AEA  
                    l163 0AF6                      l353 0DEF                      l273 0F57  
                    l290 0BE1                      l363 0E77                      l284 0FFF  
                    l560 0CF1                      l288 0BC7                      l481 0DC5  
                    l721 0756                      l474 0DDA                      l570 0CAB  
                    l723 07ED                      l484 0DDA                      l661 0567  
                    l653 04E5                      l637 03F3                      l741 07FF  
                    l734 07B7                      l639 0573                      l735 07C3  
                    l683 0302                      l677 0396                      l696 0BA4  
                    l689 038A                      l698 0BB6                      fsr0 0004  
                    indf 0000             ___flmul@aexp 0037             ___flmul@bexp 0038  
           ___flmul@sign 0032             ___flmul@temp 003D             ___flmul@prod 0039  
        __end_of_LCDChar 0B3D          __end_of_LCDGoto 0C70             ___fltol@exp1 0062  
                   l2001 04BF                     l2011 04E2                     l2003 04C5  
                   l2021 0501                     l2005 04C9                     l2101 00F9  
                   l2031 054A                     l2023 051A                     l2015 04EA  
                   l2007 04CA                     l2111 0176                     l2103 0125  
                   l2041 0561                     l2033 054E                     l2017 04EF  
                   l2025 0520                     l2009 04CE                     l2121 01F6  
                   l2113 0193                     l2105 0141                     l2043 0563  
                   l2035 0556                     l2027 052D                     l2019 04FD  
                   l2131 02AE                     l2123 0223                     l2115 01A3  
                   l2107 015D                     l2051 003D                     l2037 0557  
                   l2029 053B                     l2141 02D3                     l2133 02B7  
                   l2125 0233                     l2117 01C0                     l2109 0166  
                   l2061 0052                     l2053 0043                     l2039 055D  
                   l2151 02EB                     l2143 02DC                     l2135 02C5  
                   l2127 0260                     l2119 01D9                     l2071 006F  
                   l2063 005A                     l2055 0047                     l2401 0E41  
                   l2161 031A                     l2153 02FF                     l2137 02CE  
                   l2145 02E2                     l2129 0286                     l2081 0086  
                   l2073 0073                     l2065 005C                     l2057 0048  
                   l2049 0036                     l2411 0E64                     l2403 0E4F  
                   l2171 0355                     l2163 031E                     l2147 02E6  
                   l2139 02D2                     l2083 0088                     l2075 0074  
                   l2067 0064                     l2059 004D                     l2413 0E6F  
                   l2405 0E50                     l2181 037E                     l2173 0364  
                   l2165 0337                     l2157 0307                     l2149 02E7  
                   l2093 00A3                     l2085 0090                     l2077 0079  
                   l2069 0069                     l2421 0CB6                     l1701 0CA7  
                   l2501 0F1D       __size_of_CONUSARTM 006D                     l2407 0E59  
                   l2351 0B05                     l2343 0AF8                     l1711 0B9E  
                   l2183 0382                     l2175 036E                     l2159 030C  
                   l2167 033D                     l2095 00B3                     l2087 0095  
                   l2079 007E                     l2431 0CD9                     l2423 0CB9  
                   l2511 0F3B                     l2409 0E5F                     l2345 0AFB  
                   l2353 0B19                     l1713 0BAD                     l1705 0B91  
                   l2185 0383                     l2177 0370                     l2169 034A  
                   l2097 00C0                     l2089 009A                     l1721 0AE1  
                   l2433 0CDF                     l2425 0CC0                     l2417 0CAC  
                   l2361 0BB7                     l2521 0F62                     l2513 0F3F  
                   l2347 0B03                     l2355 0B22                     l2451 0C2C  
                   l2443 0C0F                     l1715 0BB2                     l1707 0B93  
                   l2187 038E                     l2179 0376                     l2099 00DD  
                   l2603 0DA1                     l2435 0CE0                     l2427 0CC4  
                   l2419 0CB0                     l2371 0BDB                     l2363 0BBB  
                   l2531 0F83                     l2523 0F6E                     l2515 0F45  
                   l2507 0F1F                     l2381 0DF3                     l2461 0CFD  
                   l2349 0B04                     l2357 0B2B                     l2453 0C32  
                   l2445 0C15                     l1709 0B9A                     l2613 0DBA  
                   l2605 0DAA                     l2621 073A                     l2437 0CE7  
                   l2429 0CC8                     l2365 0BBF                     l2541 0FA5  
                   l2533 0F8F                     l2525 0F72                     l2517 0F4B  
                   l2701 05E3                     l2391 0E15                     l2383 0DFE  
                   l2375 0DDB                     l2463 0D5A                     l2359 0B34  
                   l2455 0C38                     l2447 0C20                     l1911 03A8  
                   l2615 0DCA                     l2607 0DB3                     l2631 0767  
                   l2623 073E                     l1719 0B07                     l2439 0CED  
                   l2367 0BCE                     l1591 07F0                     l2543 0FD5  
                   l2535 0F95                     l2527 0F78                     l2519 0F51  
                   l2551 0FFB                     l2471 0E8D                     l2711 060D  
                   l2703 05E5                     l2393 0E1E                     l2385 0E02  
                   l2377 0DDE                     l2457 0CF2                     l2561 0C48  
                   l2449 0C26                     l1921 03BC                     l1913 03A9  
                   l1905 0397                     l2617 0DCF                     l2641 0784  
                   l2633 076C                     l2625 074E                     l1745 0AEB  
                   l2369 0BD5                     l1593 07F6                     l2545 0FDC  
                   l2537 0F9C                     l2529 0F7F                     l2481 0EBE  
                   l2473 0E92                     l2465 0E7B                     l2713 0613  
                   l2705 05EB                     l2395 0E22                     l2387 0E0A  
                   l2379 0DE2                     l2459 0CF6                     l2571 0C65  
                   l2563 0C4F                     l1931 03D5                     l1915 03AE  
                   l1923 03BE                     l1907 039E                     l2651 07B1  
                   l2643 0792                     l2635 0770                     l2627 075E  
                   l2619 0735                     l1747 0AEF                     l1691 0C86  
                   l1683 0C70                     l1595 07FC                     l2547 0FE0  
                   l2539 0FA0                     l2491 0F04                     l2483 0ED1  
                   l2475 0E95                     l2467 0E80                     l2731 06B7  
                   l2715 062F                     l2707 0607                     l2397 0E26  
                   l2389 0E12                     l2565 0C54                     l2573 0BE2  
                   l1941 03E9                     l1933 03D6                     l1925 03C6  
                   l1917 03B3                     l1909 03A4                     l2581 0D5F  
                   l2661 07E4                     l2653 07BB                     l2645 079B  
                   l2637 0779                     l1749 0AF3                     l1693 0C8A  
                   l1685 0C78                     l1597 07FE                     l1589 07EF  
                   l2493 0F0C                     l2485 0ED5                     l2477 0EA5  
                   l2469 0E86                     l2549 0FE9                     l2733 06C4  
                   l2725 0685                     l2717 0632                     l2709 060A  
                   l2399 0E2F                     l2567 0C5A                     l2559 0C42  
                   l2575 0BE6                     l1935 03DB                     l1943 03EB  
                   l1927 03CB                     l1919 03BB                     l2591 0D8B  
                   l2583 0D6C                     l2663 07E5                     l2655 07C5  
                   l2647 07A2                     l2639 0780                     l1695 0C94  
                   l1687 0C7B                     l2495 0F10                     l2479 0EA9  
                   l2735 0705                     l2727 069E                     l2719 0683  
                   l2671 058A                     l2569 0C5F                     l2577 0BF7  
                   l1961 0434                     l1945 03FB                     l1953 0414  
                   l1937 03E0                     l1929 03D1                     l2593 0D93  
                   l2657 07DB                     l2649 07AD                     l1697 0C9A  
                   l1689 0C82                     l2497 0F14                     l2761 0EF9  
                   l2489 0EE5                     l2737 070E                     l2729 06B1  
                   l2681 05A3                     l2673 0599                     l2579 0BFD  
                   l1971 0453                     l1963 043C                     l1955 0419  
                   l1947 0407                     l1939 03E8                     l2595 0D95  
                   l2587 0D75                     l2659 07E0                     l1699 0CA1  
                   l2499 0F18                     l2739 0723                     l2691 05AD  
                   l2683 05A6                     l2675 059E                     l2667 0574  
                   l1981 0485                     l1973 0465                     l1965 0444  
                   l1949 040B                     l2597 0D99                     l2589 0D8A  
                   l2693 05B3                     l2685 05A7                     l2677 05A1  
                   l2669 057E                     l1991 04A6                     l1983 0486  
                   l1975 0469                     l1967 044C                     l1959 0422  
                   l2695 05D4                     l2687 05A8                     l2679 05A2  
                   l1993 04A8                     l1985 0494                     l1977 046A  
                   l1969 044E                     l2697 05DF                     l2689 05AB  
                   l1995 04B1                     l1979 0473                     l1987 0498  
                   l2699 05E2                     l1997 04B5                     l1989 049E  
                   l1999 04B6                     STR_1 081A                     STR_2 082D  
                   u2200 0419                     u2201 0418                     u2210 0453  
                   u2130 03A8                     u2211 0452                     u2131 03A7  
                   u2300 04B5                     u2140 03AE                     u3020 0BDB  
                   u1500 07F6                     u2301 04B4                     u2141 03AD  
                   u3021 0BDA                     u3005 0BC8                     u1501 07F5  
                   u3110 0E5F                     u3030 0DE2                     u2150 03B3  
                   u1510 07FC                     u3111 0E5E                     u3031 0DE1  
                   u2151 03B2                     u3015 0BCF                     u1511 07FB  
                   u3120 0E64                     u3040 0DF3                     u3200 0D0B  
                   u2400 054A                     u2320 04C9                     u2240 0469  
                   u2160 03D5                     u3121 0E63                     u3105 0E51  
                   u3041 0DF2                     u2401 0549                     u2321 04C8  
                   u2241 0468                     u2225 0455                     u2161 03D4  
                   u3050 0E12                     u3210 0D24                     u2410 0561  
                   u2330 04CE                     u2170 03DB                     u3130 0CB6  
                   u3051 0E11                     u2411 0560                     u2331 04CD  
                   u2315 04B8                     u2235 045E                     u2171 03DA  
                   u3131 0CB5                     u2340 04E2                     u2260 0485  
                   u2180 03E0                     u2420 0047                     u3300 0F51  
                   u3221 0D36                     u3205 0D06                     u2405 0546  
                   u2341 04E1                     u2261 0484                     u2181 03DF  
                   u2501 00EB                     u2421 0046                     u3301 0F50  
                   u3070 0E26                     u3222 0D37                     u2350 04E9  
                   u2270 049E                     u2190 03FB                     u2502 00F2  
                   u2430 004D                     u3150 0CC8                     u3310 0F62  
                   u3230 0E86                     u3071 0E25                     u3223 0D3C  
                   u3215 0D1F                     u2351 04E8                     u2271 049D  
                   u2255 046C                     u2191 03FA                     u2511 0107  
                   u2503 00F9                     u2431 004C                     u3151 0CC7  
                   u3311 0F61                     u3231 0E85                     u3224 0D3D  
                   u3400 0C0E                     u2360 04EF                     u2280 04A6  
                   u2512 010E                     u2440 0052                     u3320 0F78  
                   u3240 0EA5                     u3065 0E17                     u3225 0D42  
                   u3401 0C0D                     u2361 04EE                     u2281 04A5  
                   u2265 0481                     u2601 0242                     u2521 0133  
                   u2513 0115                     u2441 0051                     u3145 0CBA  
                   u3321 0F77                     u3241 0EA4                     u3090 0E41  
                   u3226 0D43                     u2370 0501                     u1810 0BB2  
                   u2610 026C                     u2602 0249                     u2522 013A  
                   u2450 0073                     u3410 0D6C                     u3170 0CD9  
                   u1730 0C78                     u3330 0F8F                     u3250 0EE5  
                   u3091 0E40                     u2371 0500                     u1811 0BB1  
                   u2603 0250                     u2531 014F                     u2523 0141  
                   u2451 0072                     u3411 0D6B                     u3171 0CD8  
                   u1731 0C77                     u3331 0F8E                     u3315 0F5E  
                   u3251 0EE4                     u2380 0510                     u2700 02EB  
                   u2532 0156                     u2460 0079                     u3500 0DCF  
                   u3420 0D83                     u3340 0F95                     u3260 0F14  
                   u3085 0E28                     u1805 0BA5                     u2701 02EA  
                   u2621 0278                     u2533 015D                     u2461 0078  
                   u3501 0DCE                     u3165 0CC9                     u3341 0F94  
                   u3261 0F13                     u2390 052D                     u2710 02FF  
                   u2630 0294                     u2622 027F                     u2470 007E  
                   u3430 0D99                     u3510 073A                     u3190 0CED  
                   u1750 0C8A                     u3350 0FE9                     u3270 0F3A  
                   u3095 0E3D                     u2391 052C                     u2295 04AA  
                   u2711 02FE                     u2623 0286                     u2615 0267  
                   u2551 0185                     u2471 007D                     u3431 0D98  
                   u3511 0739                     u3191 0CEC                     u3175 0CD5  
                   u1751 0C89                     u3351 0FE8                     u3271 0F39  
                   u2720 0306                     u2552 018C                     u2480 0095  
                   u3440 0DA0                     u3600 07B7                     u3520 073E  
                   u1760 0C94                     u3360 0FFB                     u3280 0F45  
                   u2385 050B                     u2721 0305                     u2641 02A0  
                   u2561 01B2                     u2553 0193                     u2545 015F  
                   u2481 0094                     u3441 0D9F                     u3425 0D7E  
                   u3601 07B6                     u3521 073D                     u3185 0CE1  
                   u1761 0C93                     u1745 0C7C                     u3361 0FFA  
                   u3281 0F44                     u3370 0C48                     u2730 030C  
                   u2642 02A7                     u2562 01B9                     u2490 009A  
                   u3610 07BB                     u3530 075E                     u3290 0F4B  
                   u3371 0C47                     u2395 0529                     u2731 030B  
                   u2643 02AE                     u2635 028F                     u2563 01C0  
                   u2491 0099                     u3611 07BA                     u3531 075D  
                   u3291 0F4A                     u3275 0F36                     u3380 0C4E  
                   u2740 031E                     u3460 0DB2                     u3620 07D0  
                   u1780 0CA7                     u3381 0C4D                     u2741 031D  
                   u2581 01E8                     u3461 0DB1                     u1781 0CA6  
                   u1765 0C90                     u3390 0C54                     u1790 0B9E  
                   u2750 032D                     u2670 02D2                     u2582 01EF  
                   u3470 0DB9                     u3630 07E0                     u3550 077F  
                   u3391 0C53                     u1791 0B9D                     u2671 02D1  
                   u2655 02B0                     u2591 0215                     u2583 01F6  
                   u2575 01C2                     u3471 0DB8                     u3455 0DA2  
                   u3631 07DF                     u3551 077E                     u1775 0C9B  
                   u2760 034A                     u2592 021C                     u3640 07E4  
                   u2761 0349                     u2665 02C7                     u2593 0223  
                   u3641 07E3                     u3625 07CB                     u3545 0771  
                   u2770 0364                     u2690 02E6                     u3490 0DCA  
                   u3570 07A1                     u3650 05B3                     u2771 0363  
                   u2755 0328                     u2691 02E5                     u3491 0DC9  
                   u3571 07A0                     u3707 05DA                     u3651 05B2  
                   u2780 0382                     u3660 05EB                     u2781 0381  
                   u2765 0346                     u2685 02D5                     u3485 0DBC  
                   u3565 0793                     u3717 0602                     u3661 05EA  
                   u3590 07B1                     u3670 0613                     u2775 0360  
                   u3591 07B0                     u3727 062A                     u3671 0612  
                   u3680 06C4                     u3737 0C1B                     u3585 07A6  
                   u3681 06C3                     u3747 0B2F                     i1l60 0B85  
                   u3757 0C6B                     u3685 06C0                     u2990 0BBF  
                   u3767 0B1D                     u2991 0BBE                     u3697 0582  
                   _main 0574                     _leer 007A                     _hola 00CC  
                   btemp 007E                     start 000E          ___fldiv@new_exp 0051  
 __end_of_LCD_Initialize 0C3F         __end_of_LCDWrite 0B07            ___fltol@sign1 0061  
        __end_of___aldiv 0E78                    ?_main 0070          __end_of___fldiv 0574  
        __end_of___flmul 0397          __end_of___fltol 0DDB                    _ANSEL 0188  
        __end_of___lwdiv 0CF2          __end_of___lwmod 0CAC                    _RCSTA 0018  
                  _SPBRG 0099                    _PORTA 0005                    _PORTB 0006  
                  _PORTD 0008                    _PORTE 0009                    _TRISA 0085  
                  _TRISB 0086                    _TRISD 0088                    _TRISE 0089  
                  _TXREG 0019                    _TXSTA 0098                    _datos 00B8  
        __end_of_dpowers 081A                    _incre 0078                    _intac 0B69  
                  _inter 0AE1          __end_of_isdigit 0800                    pclath 000A  
        __end_of_setupm1 0B18          __end_of_spiconm 0AF7                    status 0003  
                  wtemp0 007E          __end_of_sprintf 1000             _voltage_int1 006C  
        ?_LCD_Initialize 0070          __initialization 0011             __end_of_main 0732  
      __end_of_CONUSARTM 0D5F                   ??_main 00E5                ??_LCDChar 0075  
              ??_LCDGoto 0021                   ?_intac 0070                   ?_inter 0070  
                 _ANSELH 0189                   _LCDCmd 0B18                   i1l2241 0B6F  
                 i1l2243 0B75                   i1l2245 0B7C                   i1l2247 0B7F  
                 i1l2239 0B69                   _LCDStr 0BE2                   u293_20 0B6F  
                 u293_21 0B6E                   u294_20 0B7C                   u294_21 0B7B  
                 _SSPBUF 0013                   _SSPCON 0014         __end_of___xxtofl 07EE  
              ??___aldiv 0073                   ___wmul 0BB7                ??___fldiv 0047  
              ??___flmul 002D                ??___fltol 005D                ??___lwdiv 0077  
              ??___lwmod 0077                   _buffer 00A0        CONUSARTM@baudrate 002E  
              ??_isdigit 0073       __size_of__Umul8_16 0029                   saved_w 007E  
              ??_setupm1 0073                ??_spiconm 0073                ??_sprintf 0032  
           ___xxtofl@arg 0026                LCDChar@ch 0077             ___xxtofl@exp 0025  
           ___xxtofl@val 0073  __end_of__initialization 0032                ?_LCDWrite 0073  
             ___fltol@f1 0059                LCDGoto@ln 0020           __pcstackCOMMON 0070  
           __pidataBANK1 0B50                LCDStr@str 0020            __end_of_intac 0B8E  
          __end_of_inter 0AEB                  ??_intac 0070                  ??_inter 0073  
           sprintf@width 003B                  ?_LCDCmd 0070               __pbssBANK0 0063  
             __pbssBANK1 00A0                  ?_LCDStr 0020                  LCDStr@i 0022  
             ??_LCDWrite 0074        __end_of__Umul8_16 0BB7               __pmaintext 0574  
                ?___wmul 0073               __pintentry 0004                  _LCDChar 0B2A  
                _LCDGoto 0C3F                ?___xxtofl 0073                  _SSPSTAT 0094  
             __stringtab 0800          __size_of_LCDCmd 0012          __size_of_LCDStr 002D  
       ??_LCD_Initialize 0020                  ___aldiv 0DDB                  ___fldiv 0397  
                ___flmul 0036                  ___fltol 0D5F          __size_of___wmul 002B  
                ___lwdiv 0CAC                  ___lwmod 0C70                  _digitos 0063  
                __ptext1 0E78                  __ptext2 07EE                  __ptext3 0BB7  
                __ptext4 0C70                  __ptext5 0CAC                  __ptext6 0AEB  
                __ptext7 0B07                  __ptext8 0AE1                  __ptext9 0732  
                _divisor 00B4                _CONUSARTM 0CF2                  _dpowers 0810  
                _isdigit 07EE               ??___xxtofl 0020         ___aldiv@dividend 0024  
                _setupm1 0B07                  _spiconm 0AEB                  _sprintf 0E78  
                clrloop0 0ADA     end_of_initialization 0032         ___aldiv@quotient 002A  
             CONUSARTM@p 0074                _PORTCbits 0007                _PORTEbits 0009  
             ?_CONUSARTM 002E            ___xxtofl@sign 0024                _TRISCbits 0087  
            ___fldiv@grs 0053              ___fldiv@rem 004C              ___flmul@grs 0033  
         __end_of_LCDCmd 0B2A           __end_of_LCDStr 0C0F               LCDGoto@pos 0025  
      __size_of_LCDWrite 0010           __end_of___wmul 0BE2              _BAUDCTLbits 0187  
             LCDWrite@ch 0074               LCDWrite@rs 0073      start_initialization 0011  
               ??_LCDCmd 0075                 ??_LCDStr 0078                 ??___wmul 0077  
             init_fetch0 0B3D                __Umul8_16 0B8E              __pdataBANK1 00CC  
            ??_CONUSARTM 0032                 LCDCmd@ch 0077                 ?_LCDChar 0070  
               ?_LCDGoto 0020                ___fldiv@a 003F                ___fldiv@b 0043  
              ___flmul@a 0029                ___flmul@b 0025              __pbssCOMMON 0078  
              ___latbits 0002            __pcstackBANK0 0020            __pcstackBANK1 00E5  
      __size_of___xxtofl 00BC              sprintf@flag 0037              sprintf@prec 0036  
       ___lwdiv@dividend 0075                 ?___aldiv 0020                 ?___fldiv 003F  
               ?___flmul 0025                 ?___fltol 0059               ?__Umul8_16 0073  
               ?___lwdiv 0073                 ?___lwmod 0023                __pstrings 0800  
              _contador2 006A                 ?_isdigit 0070                 ?_setupm1 0070  
               ?_spiconm 0070         ___lwdiv@quotient 0021                 ?_sprintf 0027  
         __size_of_intac 0025           __size_of_inter 000A          ___aldiv@divisor 0020  
      interrupt_function 0004          ___aldiv@counter 0028           ___wmul@product 0020  
               _LCDWrite 0AF7                clear_ram0 0AD9                 _PIE1bits 008C  
            _LCDGoto$314 0023                 _PIR1bits 000C              __stringbase 080F  
      ___wmul@multiplier 0073         __size_of_LCDChar 0013         __size_of_LCDGoto 0031  
            ??__Umul8_16 0075  __size_of_LCD_Initialize 0030         __size_of___aldiv 009D  
       __size_of___fldiv 01DD         __size_of___flmul 0361         __size_of___fltol 007C  
       __size_of___lwdiv 0046         __size_of___lwmod 003C       __end_of__stringtab 0810  
            _isdigit$907 0073               sprintf@val 0038                 ___xxtofl 0732  
       __size_of_isdigit 0012          ___lwdiv@divisor 0073          ___lwdiv@counter 0020  
               __ptext10 0D5F                 __ptext11 0036                 __ptext20 0CF2  
               __ptext12 0B8E                 __ptext21 0DDB                 __ptext13 0397  
               __ptext22 0B69                 __ptext14 0C0F                 __ptext15 0BE2  
               __ptext16 0B2A                 __ptext17 0C3F                 __ptext18 0B18  
               __ptext19 0AF7         __size_of_setupm1 0011         __size_of_spiconm 000C  
       __size_of_sprintf 0188            __size_of_main 01BE               _INTCONbits 000B  
               init_ram0 0B41                 isdigit@c 0074                 intlevel1 0000  
              sprintf@ap 0035                sprintf@sp 003A         ___lwmod@dividend 0025  
              stringcode 080A   __Umul8_16@multiplicand 0073              _temperatura 0066  
               sprintf@c 003D                 sprintf@f 0027          ___lwmod@divisor 0023  
        ___lwmod@counter 0077                 stringdir 080A                 stringtab 0800  
           ___aldiv@sign 0029     __Umul8_16@multiplier 0024        __Umul8_16@product 0020  
